

Microchip MPLAB XC8 Assembler V2.36 build 20220127204148 
                                                                                               Sat Apr 02 04:59:00 2022

Microchip MPLAB XC8 C Compiler v2.36 (Free license) build 20220127204148 Og1 
     1                           	processor	18F4550
     2                           	fnconf	rparam,??,?,0
     3                           	pagewidth 120
     4                           	opt	flic
     5                           	psect	idataBANK0,global,class=CODE,delta=1,noexec
     6                           	psect	idataBANK1,global,class=CODE,delta=1,noexec
     7                           	psect	nvBANK0,global,class=BANK0,space=1,delta=1,lowdata,noexec
     8                           	psect	smallconst,global,reloc=2,class=SMALLCONST,delta=1,noexec
     9                           	psect	cinit,global,reloc=2,class=CODE,delta=1
    10                           	psect	bitbssBANK0,global,bit,class=BANK0,space=1,delta=1,lowdata,noexec
    11                           	psect	bssBANK0,global,class=BANK0,space=1,delta=1,lowdata,noexec
    12                           	psect	dataBANK0,global,class=BANK0,space=1,delta=1,lowdata,noexec
    13                           	psect	bssBANK1,global,class=BANK1,space=1,delta=1,lowdata,noexec
    14                           	psect	dataBANK1,global,class=BANK1,space=1,delta=1,lowdata,noexec
    15                           	psect	cstackBANK0,global,class=BANK0,space=1,delta=1,lowdata,noexec
    16                           	psect	cstackCOMRAM,global,class=COMRAM,space=1,delta=1,lowdata,noexec
    17                           	psect	text0,global,reloc=2,class=CODE,delta=1
    18                           	psect	text1,global,reloc=2,class=CODE,delta=1,group=3
    19                           	psect	text2,global,reloc=2,class=CODE,delta=1,group=1
    20                           	psect	text3,global,reloc=2,class=CODE,delta=1,group=1
    21                           	psect	text4,global,reloc=2,class=CODE,delta=1,group=1
    22                           	psect	text5,global,reloc=2,class=CODE,delta=1,group=3
    23                           	psect	text6,global,reloc=2,class=CODE,delta=1,group=3
    24                           	psect	text7,global,reloc=2,class=CODE,delta=1,group=1
    25                           	psect	text8,global,reloc=2,class=CODE,delta=1,group=3
    26                           	psect	text9,global,reloc=2,class=CODE,delta=1,group=3
    27                           	psect	text10,global,reloc=2,class=CODE,delta=1,group=3
    28                           	psect	text11,global,reloc=2,class=CODE,delta=1,group=3
    29                           	psect	text12,global,reloc=2,class=CODE,delta=1,group=3
    30                           	psect	text13,global,reloc=2,class=CODE,delta=1
    31                           	psect	text14,global,reloc=2,class=CODE,delta=1,group=3
    32                           	psect	text15,global,reloc=2,class=CODE,delta=1
    33                           	psect	text16,global,reloc=2,class=CODE,delta=1,group=2
    34                           	psect	text17,global,reloc=2,class=CODE,delta=1,group=2
    35                           	psect	text18,global,reloc=2,class=CODE,delta=1,group=2
    36                           	psect	text19,global,reloc=2,class=CODE,delta=1,group=2
    37                           	psect	text20,global,reloc=2,class=CODE,delta=1
    38                           	psect	text21,global,reloc=2,class=CODE,delta=1
    39                           	psect	text22,global,reloc=2,class=CODE,delta=1
    40                           	psect	text23,global,reloc=2,class=CODE,delta=1
    41                           	psect	text24,global,reloc=2,class=CODE,delta=1
    42                           	psect	text25,global,reloc=2,class=CODE,delta=1
    43                           	psect	text26,global,reloc=2,class=CODE,delta=1
    44                           	psect	text27,global,reloc=2,class=CODE,delta=1
    45                           	psect	text28,global,reloc=2,class=CODE,delta=1
    46                           	psect	text29,global,reloc=2,class=CODE,delta=1
    47                           	psect	text30,global,reloc=2,class=CODE,delta=1
    48                           	psect	text31,global,reloc=2,class=CODE,delta=1
    49                           	psect	text32,global,reloc=2,class=CODE,delta=1
    50                           	psect	text33,global,reloc=2,class=CODE,delta=1
    51                           	psect	text34,global,reloc=2,class=CODE,delta=1
    52                           	psect	text35,global,reloc=2,class=CODE,delta=1
    53                           	psect	text36,global,reloc=2,class=CODE,delta=1
    54                           	psect	text37,global,reloc=2,class=CODE,delta=1
    55                           	psect	text38,global,reloc=2,class=CODE,delta=1
    56                           	psect	text39,global,reloc=2,class=CODE,delta=1
    57                           	psect	text40,global,reloc=2,class=CODE,delta=1
    58                           	psect	text41,global,reloc=2,class=CODE,delta=1
    59                           	psect	text42,global,reloc=2,class=CODE,delta=1
    60                           	psect	text43,global,reloc=2,class=CODE,delta=1
    61                           	psect	text44,global,reloc=2,class=CODE,delta=1
    62                           	psect	text45,global,reloc=2,class=CODE,delta=1
    63                           	psect	text46,global,reloc=2,class=CODE,delta=1
    64                           	psect	text47,global,reloc=2,class=CODE,delta=1
    65                           	psect	text48,global,reloc=2,class=CODE,delta=1
    66                           	psect	text49,global,reloc=2,class=CODE,delta=1
    67                           	psect	text50,global,reloc=2,class=CODE,delta=1
    68                           	psect	text51,global,reloc=2,class=CODE,delta=1
    69                           	psect	text52,global,reloc=2,class=CODE,delta=1
    70                           	psect	text53,global,reloc=2,class=CODE,delta=1
    71                           	psect	text54,global,reloc=2,class=CODE,delta=1
    72                           	psect	text55,global,reloc=2,class=CODE,delta=1
    73                           	psect	text56,global,reloc=2,class=CODE,delta=1
    74                           	psect	text57,global,reloc=2,class=CODE,delta=1
    75                           	psect	text58,global,reloc=2,class=CODE,delta=1
    76                           	psect	text59,global,reloc=2,class=CODE,delta=1
    77                           	psect	text60,global,reloc=2,class=CODE,delta=1
    78                           	psect	text61,global,reloc=2,class=CODE,delta=1
    79                           	psect	text62,global,reloc=2,class=CODE,delta=1
    80                           	psect	text63,global,reloc=2,class=CODE,delta=1
    81                           	psect	text64,global,reloc=2,class=CODE,delta=1
    82                           	psect	text65,global,reloc=2,class=CODE,delta=1
    83                           	psect	text66,global,reloc=2,class=CODE,delta=1
    84                           	psect	text67,global,reloc=2,class=CODE,delta=1
    85                           	psect	text68,global,reloc=2,class=CODE,delta=1
    86                           	psect	text69,global,reloc=2,class=CODE,delta=1
    87                           	psect	text70,global,reloc=2,class=CODE,delta=1
    88                           	psect	text71,global,reloc=2,class=CODE,delta=1
    89                           	psect	text72,global,reloc=2,class=CODE,delta=1
    90                           	psect	text73,global,reloc=2,class=CODE,delta=1
    91                           	psect	text74,global,reloc=2,class=CODE,delta=1
    92                           	psect	text75,global,reloc=2,class=CODE,delta=1
    93                           	psect	text76,global,reloc=2,class=CODE,delta=1
    94                           	psect	text77,global,reloc=2,class=CODE,delta=1,group=2
    95                           	psect	intsave_regs,global,class=BIGRAM,space=1,delta=1,noexec
    96                           	psect	rparam,global,class=COMRAM,space=1,delta=1,noexec
    97                           	psect	idloc,global,abs,ovrld,class=IDLOC,space=5,delta=1,noexec
    98                           	psect	config,global,abs,ovrld,class=CONFIG,space=4,delta=1,noexec
    99  0000                     
   100                           ; Version 2.40
   101                           ; Generated 17/11/2021 GMT
   102                           ; 
   103                           ; Copyright © 2021, Microchip Technology Inc. and its subsidiaries ("Microchip")
   104                           ; All rights reserved.
   105                           ; 
   106                           ; This software is developed by Microchip Technology Inc. and its subsidiaries ("Microch
      +                          ip").
   107                           ; 
   108                           ; Redistribution and use in source and binary forms, with or without modification, are
   109                           ; permitted provided that the following conditions are met:
   110                           ; 
   111                           ;     1. Redistributions of source code must retain the above copyright notice, this lis
      +                          t of
   112                           ;        conditions and the following disclaimer.
   113                           ; 
   114                           ;     2. Redistributions in binary form must reproduce the above copyright notice, this 
      +                          list
   115                           ;        of conditions and the following disclaimer in the documentation and/or other
   116                           ;        materials provided with the distribution. Publication is not required when
   117                           ;        this file is used in an embedded application.
   118                           ; 
   119                           ;     3. Microchip's name may not be used to endorse or promote products derived from th
      +                          is
   120                           ;        software without specific prior written permission.
   121                           ; 
   122                           ; THIS SOFTWARE IS PROVIDED BY MICROCHIP "AS IS" AND ANY EXPRESS OR IMPLIED WARRANTIES,
   123                           ; INCLUDING, BUT NOT LIMITED TO, THE IMPLIED WARRANTIES OF MERCHANTABILITY AND FITNESS F
      +                          OR
   124                           ; PURPOSE ARE DISCLAIMED.  IN NO EVENT SHALL MICROCHIP BE LIABLE FOR ANY DIRECT, INDIREC
      +                          T,
   125                           ; INCIDENTAL, SPECIAL, EXEMPLARY, OR CONSEQUENTIAL DAMAGES (INCLUDING BUT NOT LIMITED TO
   126                           ; PROCUREMENT OF SUBSTITUTE GOODS OR SERVICES; LOSS OF USE, DATA OR PROFITS; OR BUSINESS
   127                           ; INTERRUPTION) HOWSOEVER CAUSED AND ON ANY THEORY OF LIABILITY, WHETHER IN CONTRACT, ST
      +                          RICT
   128                           ; LIABILITY, OR TORT (INCLUDING NEGLIGENCE OR OTHERWISE) ARISING IN ANY WAY OUT OF THE U
      +                          SE OF
   129                           ; THIS SOFTWARE, EVEN IF ADVISED OF THE POSSIBILITY OF SUCH DAMAGE.
   130                           ; 
   131                           ; 
   132                           ; Code-generator required, PIC18F4550 Definitions
   133                           ; 
   134                           ; SFR Addresses
   135  0000                     
   136                           	psect	idataBANK0
   137  003BB0                     __pidataBANK0:
   138                           	callstack 0
   139                           
   140                           ;initializer for _backlight_val
   141  003BB0  08                 	db	8
   142                           
   143                           	psect	idataBANK1
   144  003AF2                     __pidataBANK1:
   145                           	callstack 0
   146                           
   147                           ;initializer for _data
   148  003AF2  68                 	db	104
   149  003AF3  65                 	db	101
   150  003AF4  6C                 	db	108
   151  003AF5  6C                 	db	108
   152  003AF6  6F                 	db	111
   153  003AF7  00                 	db	0
   154  003AF8  00                 	db	0
   155  003AF9  00                 	db	0
   156  003AFA  00                 	db	0
   157  003AFB  00                 	db	0
   158  003AFC  00                 	db	0
   159  003AFD  00                 	db	0
   160  003AFE  00                 	db	0
   161  003AFF  00                 	db	0
   162  003B00  00                 	db	0
   163  003B01  00                 	db	0
   164  003B02  00                 	db	0
   165  003B03  00                 	db	0
   166  003B04  00                 	db	0
   167  003B05  00                 	db	0
   168  0000                     _SSPSTAT	set	4039
   169  0000                     _SSPADD	set	4040
   170  0000                     _RCREG	set	4014
   171  0000                     _TXREG	set	4013
   172                           
   173                           	psect	nvBANK0
   174  0000F2                     __pnvBANK0:
   175                           	callstack 0
   176  0000F2                     _i2c_addr:
   177                           	callstack 0
   178  0000F2                     	ds	1
   179  0000                     _RCSTAbits	set	4011
   180  0000                     _ACKEN	set	32300
   181  0000                     _ACKDT	set	32301
   182  0000                     _RCEN	set	32299
   183  0000                     _RSEN	set	32297
   184  0000                     _PEN	set	32298
   185  0000                     _SEN	set	32296
   186  0000                     _CREN	set	32092
   187  0000                     _RCIF	set	31989
   188  0000                     _TRISC7	set	31911
   189  0000                     _PORTDbits	set	3971
   190  0000                     _LATAbits	set	3977
   191  0000                     _LATDbits	set	3980
   192  0000                     _TRISC6	set	31910
   193  0000                     _TRISDbits	set	3989
   194  0000                     _PIE1bits	set	3997
   195  0000                     _RCSTA	set	4011
   196  0000                     _TXSTA	set	4012
   197  0000                     _SPBRG	set	4015
   198  0000                     _SSPCON2	set	4037
   199  0000                     _SSPCON1	set	4038
   200  0000                     _INTCONbits	set	4082
   201  0000                     _TXIF	set	31988
   202  0000                     _SSPBUF	set	4041
   203  0000                     _TRISAbits	set	3986
   204                           
   205                           	psect	smallconst
   206  000800                     __psmallconst:
   207                           	callstack 0
   208  000800  00                 	db	0
   209  000801                     STR_1:
   210  000801  4C                 	db	76	;'L'
   211  000802  6F                 	db	111	;'o'
   212  000803  61                 	db	97	;'a'
   213  000804  64                 	db	100	;'d'
   214  000805  69                 	db	105	;'i'
   215  000806  6E                 	db	110	;'n'
   216  000807  67                 	db	103	;'g'
   217  000808  2E                 	db	46
   218  000809  2E                 	db	46
   219  00080A  00                 	db	0
   220  00080B                     STR_4:
   221  00080B  50                 	db	80	;'P'
   222  00080C  6F                 	db	111	;'o'
   223  00080D  73                 	db	115	;'s'
   224  00080E  31                 	db	49	;'1'
   225  00080F  00                 	db	0
   226  000810                     STR_7:
   227  000810  50                 	db	80	;'P'
   228  000811  6F                 	db	111	;'o'
   229  000812  73                 	db	115	;'s'
   230  000813  32                 	db	50	;'2'
   231  000814  00                 	db	0
   232  000815                     STR_10:
   233  000815  50                 	db	80	;'P'
   234  000816  6F                 	db	111	;'o'
   235  000817  73                 	db	115	;'s'
   236  000818  33                 	db	51	;'3'
   237  000819  00                 	db	0
   238  00081A                     STR_2:
   239  00081A  50                 	db	80	;'P'
   240  00081B  31                 	db	49	;'1'
   241  00081C  00                 	db	0
   242  00081D                     STR_5:
   243  00081D  50                 	db	80	;'P'
   244  00081E  32                 	db	50	;'2'
   245  00081F  00                 	db	0
   246  000820                     STR_8:
   247  000820  50                 	db	80	;'P'
   248  000821  33                 	db	51	;'3'
   249  000822  00                 	db	0
   250  000823                     STR_3:
   251  000823  25                 	db	37
   252  000824  58                 	db	88	;'X'
   253  000825  00                 	db	0
   254  000826  00                 	db	0	; dummy byte at the end
   255  0000                     
   256                           ; #config settings
   257                           
   258                           	psect	cinit
   259  003526                     __pcinit:
   260                           	callstack 0
   261  003526                     start_initialization:
   262                           	callstack 0
   263  003526                     __initialization:
   264                           	callstack 0
   265                           
   266                           ; Initialize objects allocated to BANK1 (20 bytes)
   267                           ; load TBLPTR registers with __pidataBANK1
   268  003526  0EF2               	movlw	low __pidataBANK1
   269  003528  6EF6               	movwf	tblptrl,c
   270  00352A  0E3A               	movlw	high __pidataBANK1
   271  00352C  6EF7               	movwf	tblptrh,c
   272  00352E  0E00               	movlw	low (__pidataBANK1 shr (0+16))
   273  003530  6EF8               	movwf	tblptru,c
   274  003532  EE01  F014         	lfsr	0,__pdataBANK1
   275  003536  EE10 F014          	lfsr	1,20
   276  00353A                     copy_data0:
   277  00353A  0009               	tblrd		*+
   278  00353C  CFF5 FFEE          	movff	tablat,postinc0
   279  003540  50E5               	movf	postdec1,w,c
   280  003542  50E1               	movf	fsr1l,w,c
   281  003544  E1FA               	bnz	copy_data0
   282                           
   283                           ; Initialize objects allocated to BANK0 (1 bytes)
   284                           ; load TBLPTR registers with __pidataBANK0
   285  003546  0EB0               	movlw	low __pidataBANK0
   286  003548  6EF6               	movwf	tblptrl,c
   287  00354A  0E3B               	movlw	high __pidataBANK0
   288  00354C  6EF7               	movwf	tblptrh,c
   289  00354E  0E00               	movlw	low (__pidataBANK0 shr (0+16))
   290  003550  6EF8               	movwf	tblptru,c
   291  003552  0009               	tblrd		*+	;fetch initializer
   292  003554  CFF5 F0F4          	movff	tablat,__pdataBANK0
   293                           
   294                           ; Clear objects allocated to BANK1 (20 bytes)
   295  003558  EE01  F000         	lfsr	0,__pbssBANK1
   296  00355C  0E14               	movlw	20
   297  00355E                     clear_0:
   298  00355E  6AEE               	clrf	postinc0,c
   299  003560  06E8               	decf	wreg,f,c
   300  003562  E1FD               	bnz	clear_0
   301                           
   302                           ; Clear objects allocated to BITBANK0 (1 bytes)
   303  003564  0100               	movlb	0
   304  003566  6BF3               	clrf	(__pbitbssBANK0/(0+8))& (0+255),b
   305                           
   306                           ; Clear objects allocated to BANK0 (128 bytes)
   307  003568  EE00  F060         	lfsr	0,__pbssBANK0
   308  00356C  0E80               	movlw	128
   309  00356E                     clear_1:
   310  00356E  6AEE               	clrf	postinc0,c
   311  003570  06E8               	decf	wreg,f,c
   312  003572  E1FD               	bnz	clear_1
   313  003574                     end_of_initialization:
   314                           	callstack 0
   315  003574                     __end_of__initialization:
   316                           	callstack 0
   317  003574  0E00               	movlw	low (__Lmediumconst shr (0+16))
   318  003576  6EF8               	movwf	tblptru,c
   319  003578  0100               	movlb	0
   320  00357A  EF74  F006         	goto	_main	;jump to C main() function
   321                           
   322                           	psect	bitbssBANK0
   323  000798                     __pbitbssBANK0:
   324                           	callstack 0
   325  000798                     _RS:
   326                           	callstack 0
   327  000798                     	ds	1
   328                           
   329                           	psect	bssBANK0
   330  000060                     __pbssBANK0:
   331                           	callstack 0
   332  000060                     _nout:
   333                           	callstack 0
   334  000060                     	ds	2
   335  000062                     _width:
   336                           	callstack 0
   337  000062                     	ds	2
   338  000064                     _prec:
   339                           	callstack 0
   340  000064                     	ds	2
   341  000066                     _flags:
   342                           	callstack 0
   343  000066                     	ds	2
   344  000068                     _TagType4:
   345                           	callstack 0
   346  000068                     	ds	1
   347  000069                     _status_4:
   348                           	callstack 0
   349  000069                     	ds	1
   350  00006A                     _status_3:
   351                           	callstack 0
   352  00006A                     	ds	1
   353  00006B                     _status_2:
   354                           	callstack 0
   355  00006B                     	ds	1
   356  00006C                     _status_1:
   357                           	callstack 0
   358  00006C                     	ds	1
   359  00006D                     _dbuf:
   360                           	callstack 0
   361  00006D                     	ds	32
   362  00008D                     _UID_3:
   363                           	callstack 0
   364  00008D                     	ds	20
   365  0000A1                     _UID_2:
   366                           	callstack 0
   367  0000A1                     	ds	20
   368  0000B5                     _UID_1:
   369                           	callstack 0
   370  0000B5                     	ds	20
   371  0000C9                     _data_buffer:
   372                           	callstack 0
   373  0000C9                     	ds	20
   374  0000DD                     _TagType3:
   375                           	callstack 0
   376  0000DD                     	ds	1
   377  0000DE                     _TagType2:
   378                           	callstack 0
   379  0000DE                     	ds	1
   380  0000DF                     _TagType1:
   381                           	callstack 0
   382  0000DF                     	ds	1
   383                           
   384                           	psect	dataBANK0
   385  0000F4                     __pdataBANK0:
   386                           	callstack 0
   387  0000F4                     _backlight_val:
   388                           	callstack 0
   389  0000F4                     	ds	1
   390                           
   391                           	psect	bssBANK1
   392  000100                     __pbssBANK1:
   393                           	callstack 0
   394  000100                     _UID_4:
   395                           	callstack 0
   396  000100                     	ds	20
   397                           
   398                           	psect	dataBANK1
   399  000114                     __pdataBANK1:
   400                           	callstack 0
   401  000114                     _data:
   402                           	callstack 0
   403  000114                     	ds	20
   404                           
   405                           	psect	cstackBANK0
   406  0000E0                     __pcstackBANK0:
   407                           	callstack 0
   408  0000E0                     sprintf@ap:
   409                           	callstack 0
   410                           
   411                           ; 2 bytes @ 0x0
   412  0000E0                     	ds	2
   413  0000E2                     sprintf@f:
   414                           	callstack 0
   415                           
   416                           ; 11 bytes @ 0x2
   417  0000E2                     	ds	11
   418  0000ED                     ??_main:
   419                           
   420                           ; 1 bytes @ 0xD
   421  0000ED                     	ds	2
   422  0000EF                     main@i:
   423                           	callstack 0
   424                           
   425                           ; 1 bytes @ 0xF
   426  0000EF                     	ds	1
   427  0000F0                     main@i_317:
   428                           	callstack 0
   429                           
   430                           ; 1 bytes @ 0x10
   431  0000F0                     	ds	1
   432  0000F1                     main@i_321:
   433                           	callstack 0
   434                           
   435                           ; 1 bytes @ 0x11
   436  0000F1                     	ds	1
   437                           
   438                           	psect	cstackCOMRAM
   439  000001                     __pcstackCOMRAM:
   440                           	callstack 0
   441  000001                     ??_I2CLCD_Start:
   442  000001                     ??_I2CLCD_Stop:
   443  000001                     ??_I2CLCD_Write:
   444  000001                     ??_MFRC522_Rd:
   445  000001                     ??_MFRC522_Rd2:
   446  000001                     ??_MFRC522_Rd3:
   447  000001                     ??_MFRC522_Rd4:
   448  000001                     ?_strlen:
   449                           	callstack 0
   450  000001                     ?_isupper:
   451                           	callstack 0
   452  000001                     ?_isalpha:
   453                           	callstack 0
   454  000001                     ?_islower:
   455                           	callstack 0
   456  000001                     ?___lldiv:
   457                           	callstack 0
   458  000001                     ?___fltol:
   459                           	callstack 0
   460  000001                     ?___xxtofl:
   461                           	callstack 0
   462  000001                     MFRC522_Wr@value:
   463                           	callstack 0
   464  000001                     MFRC522_Wr2@value:
   465                           	callstack 0
   466  000001                     MFRC522_Wr3@value:
   467                           	callstack 0
   468  000001                     MFRC522_Wr4@value:
   469                           	callstack 0
   470  000001                     isalpha@c:
   471                           	callstack 0
   472  000001                     isupper@c:
   473                           	callstack 0
   474  000001                     fputc@c:
   475                           	callstack 0
   476  000001                     strlen@s:
   477                           	callstack 0
   478  000001                     islower@c:
   479                           	callstack 0
   480  000001                     ___lldiv@dividend:
   481                           	callstack 0
   482  000001                     ___fltol@f1:
   483                           	callstack 0
   484  000001                     ___xxtofl@val:
   485                           	callstack 0
   486                           
   487                           ; 4 bytes @ 0x0
   488  000001                     	ds	1
   489  000002                     ??_MFRC522_Wr:
   490  000002                     ??_MFRC522_Wr2:
   491  000002                     ??_MFRC522_Wr3:
   492  000002                     ??_MFRC522_Wr4:
   493  000002                     I2CLCD_Write@i2c_data:
   494                           	callstack 0
   495                           
   496                           ; 1 bytes @ 0x1
   497  000002                     	ds	1
   498  000003                     ??_isupper:
   499  000003                     ??_isalpha:
   500  000003                     ??_islower:
   501  000003                     Expander_Write@value:
   502                           	callstack 0
   503  000003                     MFRC522_Rd@address:
   504                           	callstack 0
   505  000003                     MFRC522_Rd2@address:
   506                           	callstack 0
   507  000003                     MFRC522_Rd3@address:
   508                           	callstack 0
   509  000003                     MFRC522_Rd4@address:
   510                           	callstack 0
   511  000003                     MFRC522_Wr@address:
   512                           	callstack 0
   513  000003                     MFRC522_Wr2@address:
   514                           	callstack 0
   515  000003                     MFRC522_Wr3@address:
   516                           	callstack 0
   517  000003                     MFRC522_Wr4@address:
   518                           	callstack 0
   519  000003                     fputc@fp:
   520                           	callstack 0
   521  000003                     strlen@a:
   522                           	callstack 0
   523                           
   524                           ; 2 bytes @ 0x2
   525  000003                     	ds	1
   526  000004                     LCD_Write_Nibble@n:
   527                           	callstack 0
   528  000004                     MFRC522_Wr@ucAddr:
   529                           	callstack 0
   530  000004                     MFRC522_Wr2@ucAddr:
   531                           	callstack 0
   532  000004                     MFRC522_Wr3@ucAddr:
   533                           	callstack 0
   534  000004                     MFRC522_Wr4@ucAddr:
   535                           	callstack 0
   536  000004                     MFRC522_Rd@ucAddr:
   537                           	callstack 0
   538  000004                     MFRC522_Rd2@ucAddr:
   539                           	callstack 0
   540  000004                     MFRC522_Rd3@ucAddr:
   541                           	callstack 0
   542  000004                     MFRC522_Rd4@ucAddr:
   543                           	callstack 0
   544                           
   545                           ; 2 bytes @ 0x3
   546  000004                     	ds	1
   547  000005                     ??_LCD_Cmd:
   548  000005                     ??_fputc:
   549  000005                     ??___fltol:
   550  000005                     ??___xxtofl:
   551  000005                     MFRC522_Wr@i:
   552                           	callstack 0
   553  000005                     MFRC522_Wr2@i:
   554                           	callstack 0
   555  000005                     MFRC522_Wr3@i:
   556                           	callstack 0
   557  000005                     MFRC522_Wr4@i:
   558                           	callstack 0
   559  000005                     USART_TxChar@out:
   560                           	callstack 0
   561  000005                     LCD_Print@LCD_Str:
   562                           	callstack 0
   563  000005                     ___lldiv@divisor:
   564                           	callstack 0
   565                           
   566                           ; 4 bytes @ 0x4
   567  000005                     	ds	1
   568  000006                     LCD_Cmd@Command:
   569                           	callstack 0
   570  000006                     MFRC522_Rd@ucResult:
   571                           	callstack 0
   572  000006                     MFRC522_Rd2@ucResult:
   573                           	callstack 0
   574  000006                     MFRC522_Rd3@ucResult:
   575                           	callstack 0
   576  000006                     MFRC522_Rd4@ucResult:
   577                           	callstack 0
   578                           
   579                           ; 2 bytes @ 0x5
   580  000006                     	ds	1
   581  000007                     ??_LCD_Begin:
   582  000007                     ??_LCD_Print:
   583  000007                     ??_USART_TxChar:
   584  000007                     ?_toupper:
   585                           	callstack 0
   586  000007                     LCD_Goto@row:
   587                           	callstack 0
   588  000007                     toupper@c:
   589                           	callstack 0
   590                           
   591                           ; 2 bytes @ 0x6
   592  000007                     	ds	1
   593  000008                     ??_LCD_Goto:
   594  000008                     MFRC522_Rd@i:
   595                           	callstack 0
   596  000008                     MFRC522_Rd2@i:
   597                           	callstack 0
   598  000008                     MFRC522_Rd3@i:
   599                           	callstack 0
   600  000008                     MFRC522_Rd4@i:
   601                           	callstack 0
   602                           
   603                           ; 2 bytes @ 0x7
   604  000008                     	ds	1
   605  000009                     ??_toupper:
   606  000009                     USART_TxChar@i:
   607                           	callstack 0
   608  000009                     LCD_Begin@_i2c_addr:
   609                           	callstack 0
   610  000009                     ___fltol@sign1:
   611                           	callstack 0
   612  000009                     ___xxtofl@sign:
   613                           	callstack 0
   614  000009                     ___lldiv@quotient:
   615                           	callstack 0
   616                           
   617                           ; 4 bytes @ 0x8
   618  000009                     	ds	1
   619  00000A                     LCD_Goto@col:
   620                           	callstack 0
   621  00000A                     LCD_Print@i:
   622                           	callstack 0
   623  00000A                     MFRC522_Clear_Bit@mask:
   624                           	callstack 0
   625  00000A                     MFRC522_Clear_Bit2@mask:
   626                           	callstack 0
   627  00000A                     MFRC522_Clear_Bit3@mask:
   628                           	callstack 0
   629  00000A                     MFRC522_Clear_Bit4@mask:
   630                           	callstack 0
   631  00000A                     MFRC522_Set_Bit@mask:
   632                           	callstack 0
   633  00000A                     MFRC522_Set_Bit2@mask:
   634                           	callstack 0
   635  00000A                     MFRC522_Set_Bit3@mask:
   636                           	callstack 0
   637  00000A                     MFRC522_Set_Bit4@mask:
   638                           	callstack 0
   639  00000A                     ___fltol@exp1:
   640                           	callstack 0
   641  00000A                     ___xxtofl@exp:
   642                           	callstack 0
   643  00000A                     fputs@s:
   644                           	callstack 0
   645                           
   646                           ; 2 bytes @ 0x9
   647  00000A                     	ds	1
   648  00000B                     MFRC522_Clear_Bit@tmp:
   649                           	callstack 0
   650  00000B                     MFRC522_Clear_Bit2@tmp:
   651                           	callstack 0
   652  00000B                     MFRC522_Clear_Bit3@tmp:
   653                           	callstack 0
   654  00000B                     MFRC522_Clear_Bit4@tmp:
   655                           	callstack 0
   656  00000B                     MFRC522_Set_Bit@tmp:
   657                           	callstack 0
   658  00000B                     MFRC522_Set_Bit2@tmp:
   659                           	callstack 0
   660  00000B                     MFRC522_Set_Bit3@tmp:
   661                           	callstack 0
   662  00000B                     MFRC522_Set_Bit4@tmp:
   663                           	callstack 0
   664  00000B                     ___xxtofl@arg:
   665                           	callstack 0
   666                           
   667                           ; 4 bytes @ 0xA
   668  00000B                     	ds	1
   669  00000C                     MFRC522_Clear_Bit@addr:
   670                           	callstack 0
   671  00000C                     MFRC522_Clear_Bit2@addr:
   672                           	callstack 0
   673  00000C                     MFRC522_Clear_Bit3@addr:
   674                           	callstack 0
   675  00000C                     MFRC522_Clear_Bit4@addr:
   676                           	callstack 0
   677  00000C                     MFRC522_Set_Bit@addr:
   678                           	callstack 0
   679  00000C                     MFRC522_Set_Bit2@addr:
   680                           	callstack 0
   681  00000C                     MFRC522_Set_Bit3@addr:
   682                           	callstack 0
   683  00000C                     MFRC522_Set_Bit4@addr:
   684                           	callstack 0
   685  00000C                     fputs@fp:
   686                           	callstack 0
   687                           
   688                           ; 2 bytes @ 0xB
   689  00000C                     	ds	1
   690  00000D                     ___lldiv@counter:
   691                           	callstack 0
   692  00000D                     MFRC522_ToCard@sendData:
   693                           	callstack 0
   694  00000D                     MFRC522_ToCard2@sendData:
   695                           	callstack 0
   696  00000D                     MFRC522_ToCard3@sendData:
   697                           	callstack 0
   698  00000D                     MFRC522_CRC@dataIn:
   699                           	callstack 0
   700  00000D                     MFRC522_CRC2@dataIn:
   701                           	callstack 0
   702  00000D                     MFRC522_CRC3@dataIn:
   703                           	callstack 0
   704                           
   705                           ; 2 bytes @ 0xC
   706  00000D                     	ds	1
   707  00000E                     fputs@c:
   708                           	callstack 0
   709  00000E                     I2CLCD_Init@i2c_clk_freq:
   710                           	callstack 0
   711                           
   712                           ; 4 bytes @ 0xD
   713  00000E                     	ds	1
   714  00000F                     ?___fldiv:
   715                           	callstack 0
   716  00000F                     MFRC522_ToCard@sendLen:
   717                           	callstack 0
   718  00000F                     MFRC522_ToCard2@sendLen:
   719                           	callstack 0
   720  00000F                     MFRC522_ToCard3@sendLen:
   721                           	callstack 0
   722  00000F                     MFRC522_CRC@length:
   723                           	callstack 0
   724  00000F                     MFRC522_CRC2@length:
   725                           	callstack 0
   726  00000F                     MFRC522_CRC3@length:
   727                           	callstack 0
   728  00000F                     fputs@i:
   729                           	callstack 0
   730  00000F                     ___fldiv@b:
   731                           	callstack 0
   732                           
   733                           ; 4 bytes @ 0xE
   734  00000F                     	ds	1
   735  000010                     MFRC522_ToCard@backData:
   736                           	callstack 0
   737  000010                     MFRC522_ToCard2@backData:
   738                           	callstack 0
   739  000010                     MFRC522_ToCard3@backData:
   740                           	callstack 0
   741  000010                     MFRC522_CRC@dataOut:
   742                           	callstack 0
   743  000010                     MFRC522_CRC2@dataOut:
   744                           	callstack 0
   745  000010                     MFRC522_CRC3@dataOut:
   746                           	callstack 0
   747                           
   748                           ; 2 bytes @ 0xF
   749  000010                     	ds	1
   750  000011                     ?_pad:
   751                           	callstack 0
   752  000011                     pad@fp:
   753                           	callstack 0
   754                           
   755                           ; 2 bytes @ 0x10
   756  000011                     	ds	1
   757  000012                     ??_I2CLCD_Init:
   758  000012                     MFRC522_CRC@n:
   759                           	callstack 0
   760  000012                     MFRC522_CRC2@n:
   761                           	callstack 0
   762  000012                     MFRC522_CRC3@n:
   763                           	callstack 0
   764  000012                     MFRC522_ToCard@backLen:
   765                           	callstack 0
   766  000012                     MFRC522_ToCard2@backLen:
   767                           	callstack 0
   768  000012                     MFRC522_ToCard3@backLen:
   769                           	callstack 0
   770                           
   771                           ; 2 bytes @ 0x11
   772  000012                     	ds	1
   773  000013                     MFRC522_CRC@i:
   774                           	callstack 0
   775  000013                     MFRC522_CRC2@i:
   776                           	callstack 0
   777  000013                     MFRC522_CRC3@i:
   778                           	callstack 0
   779  000013                     pad@buf:
   780                           	callstack 0
   781  000013                     ___fldiv@a:
   782                           	callstack 0
   783                           
   784                           ; 4 bytes @ 0x12
   785  000013                     	ds	1
   786  000014                     ??_MFRC522_ToCard:
   787  000014                     ??_MFRC522_ToCard2:
   788  000014                     ??_MFRC522_ToCard3:
   789                           
   790                           ; 1 bytes @ 0x13
   791  000014                     	ds	1
   792  000015                     pad@p:
   793                           	callstack 0
   794                           
   795                           ; 2 bytes @ 0x14
   796  000015                     	ds	2
   797  000017                     ??___fldiv:
   798  000017                     ??_pad:
   799                           
   800                           ; 1 bytes @ 0x16
   801  000017                     	ds	1
   802  000018                     MFRC522_ToCard@waitIRq:
   803                           	callstack 0
   804  000018                     MFRC522_ToCard2@waitIRq:
   805                           	callstack 0
   806  000018                     MFRC522_ToCard3@waitIRq:
   807                           	callstack 0
   808  000018                     pad@i:
   809                           	callstack 0
   810                           
   811                           ; 2 bytes @ 0x17
   812  000018                     	ds	1
   813  000019                     MFRC522_ToCard@_status:
   814                           	callstack 0
   815  000019                     MFRC522_ToCard2@_status:
   816                           	callstack 0
   817  000019                     MFRC522_ToCard3@_status:
   818                           	callstack 0
   819                           
   820                           ; 1 bytes @ 0x18
   821  000019                     	ds	1
   822  00001A                     MFRC522_ToCard@lastBits:
   823                           	callstack 0
   824  00001A                     MFRC522_ToCard2@lastBits:
   825                           	callstack 0
   826  00001A                     MFRC522_ToCard3@lastBits:
   827                           	callstack 0
   828  00001A                     pad@w:
   829                           	callstack 0
   830                           
   831                           ; 2 bytes @ 0x19
   832  00001A                     	ds	1
   833  00001B                     MFRC522_ToCard@irqEn:
   834                           	callstack 0
   835  00001B                     MFRC522_ToCard2@irqEn:
   836                           	callstack 0
   837  00001B                     MFRC522_ToCard3@irqEn:
   838                           	callstack 0
   839  00001B                     ___fldiv@rem:
   840                           	callstack 0
   841                           
   842                           ; 4 bytes @ 0x1A
   843  00001B                     	ds	1
   844  00001C                     ?_xtoa:
   845                           	callstack 0
   846  00001C                     MFRC522_ToCard@command:
   847                           	callstack 0
   848  00001C                     MFRC522_ToCard2@command:
   849                           	callstack 0
   850  00001C                     MFRC522_ToCard3@command:
   851                           	callstack 0
   852  00001C                     xtoa@fp:
   853                           	callstack 0
   854                           
   855                           ; 2 bytes @ 0x1B
   856  00001C                     	ds	1
   857  00001D                     MFRC522_ToCard@i:
   858                           	callstack 0
   859  00001D                     MFRC522_ToCard2@i:
   860                           	callstack 0
   861  00001D                     MFRC522_ToCard3@i:
   862                           	callstack 0
   863                           
   864                           ; 2 bytes @ 0x1C
   865  00001D                     	ds	1
   866  00001E                     xtoa@d:
   867                           	callstack 0
   868                           
   869                           ; 8 bytes @ 0x1D
   870  00001E                     	ds	1
   871  00001F                     MFRC522_ToCard@n:
   872                           	callstack 0
   873  00001F                     MFRC522_ToCard2@n:
   874                           	callstack 0
   875  00001F                     MFRC522_ToCard3@n:
   876                           	callstack 0
   877  00001F                     ___fldiv@sign:
   878                           	callstack 0
   879                           
   880                           ; 1 bytes @ 0x1E
   881  00001F                     	ds	1
   882  000020                     MFRC522_Request@TagType:
   883                           	callstack 0
   884  000020                     MFRC522_Request2@TagType:
   885                           	callstack 0
   886  000020                     MFRC522_Request3@TagType:
   887                           	callstack 0
   888  000020                     MFRC522_AntiColl@serNum:
   889                           	callstack 0
   890  000020                     MFRC522_AntiColl2@serNum:
   891                           	callstack 0
   892  000020                     MFRC522_AntiColl3@serNum:
   893                           	callstack 0
   894  000020                     ___fldiv@new_exp:
   895                           	callstack 0
   896  000020                     MFRC522_Halt@buff:
   897                           	callstack 0
   898  000020                     MFRC522_Halt2@buff:
   899                           	callstack 0
   900  000020                     MFRC522_Halt3@buff:
   901                           	callstack 0
   902                           
   903                           ; 4 bytes @ 0x1F
   904  000020                     	ds	2
   905  000022                     MFRC522_Request@reqMode:
   906                           	callstack 0
   907  000022                     MFRC522_Request2@reqMode:
   908                           	callstack 0
   909  000022                     MFRC522_Request3@reqMode:
   910                           	callstack 0
   911  000022                     ___fldiv@grs:
   912                           	callstack 0
   913                           
   914                           ; 4 bytes @ 0x21
   915  000022                     	ds	1
   916  000023                     MFRC522_Request@_status:
   917                           	callstack 0
   918  000023                     MFRC522_Request2@_status:
   919                           	callstack 0
   920  000023                     MFRC522_Request3@_status:
   921                           	callstack 0
   922  000023                     MFRC522_AntiColl@serNumCheck:
   923                           	callstack 0
   924  000023                     MFRC522_AntiColl2@serNumCheck:
   925                           	callstack 0
   926  000023                     MFRC522_AntiColl3@serNumCheck:
   927                           	callstack 0
   928                           
   929                           ; 1 bytes @ 0x22
   930  000023                     	ds	1
   931  000024                     MFRC522_Request@backBits:
   932                           	callstack 0
   933  000024                     MFRC522_Request2@backBits:
   934                           	callstack 0
   935  000024                     MFRC522_Request3@backBits:
   936                           	callstack 0
   937  000024                     MFRC522_Halt@unLen:
   938                           	callstack 0
   939  000024                     MFRC522_Halt2@unLen:
   940                           	callstack 0
   941  000024                     MFRC522_Halt3@unLen:
   942                           	callstack 0
   943  000024                     MFRC522_AntiColl@unLen:
   944                           	callstack 0
   945  000024                     MFRC522_AntiColl2@unLen:
   946                           	callstack 0
   947  000024                     MFRC522_AntiColl3@unLen:
   948                           	callstack 0
   949                           
   950                           ; 2 bytes @ 0x23
   951  000024                     	ds	2
   952  000026                     MFRC522_AntiColl@_status:
   953                           	callstack 0
   954  000026                     MFRC522_AntiColl2@_status:
   955                           	callstack 0
   956  000026                     MFRC522_AntiColl3@_status:
   957                           	callstack 0
   958  000026                     ___fldiv@bexp:
   959                           	callstack 0
   960  000026                     xtoa@x:
   961                           	callstack 0
   962  000026                     MFRC522_IsCard@TagType:
   963                           	callstack 0
   964  000026                     MFRC522_IsCard2@TagType:
   965                           	callstack 0
   966  000026                     MFRC522_IsCard3@TagType:
   967                           	callstack 0
   968                           
   969                           ; 2 bytes @ 0x25
   970  000026                     	ds	1
   971  000027                     ??_xtoa:
   972  000027                     MFRC522_AntiColl@i:
   973                           	callstack 0
   974  000027                     MFRC522_AntiColl2@i:
   975                           	callstack 0
   976  000027                     MFRC522_AntiColl3@i:
   977                           	callstack 0
   978  000027                     ___fldiv@aexp:
   979                           	callstack 0
   980                           
   981                           ; 1 bytes @ 0x26
   982  000027                     	ds	1
   983  000028                     ?___fladd:
   984                           	callstack 0
   985  000028                     MFRC522_ReadCardSerial@str:
   986                           	callstack 0
   987  000028                     MFRC522_ReadCardSerial2@str:
   988                           	callstack 0
   989  000028                     MFRC522_ReadCardSerial3@str:
   990                           	callstack 0
   991  000028                     ___fladd@b:
   992                           	callstack 0
   993                           
   994                           ; 4 bytes @ 0x27
   995  000028                     	ds	2
   996  00002A                     
   997                           ; 1 bytes @ 0x29
   998  00002A                     	ds	2
   999  00002C                     ___fladd@a:
  1000                           	callstack 0
  1001                           
  1002                           ; 4 bytes @ 0x2B
  1003  00002C                     	ds	3
  1004  00002F                     xtoa@p:
  1005                           	callstack 0
  1006                           
  1007                           ; 2 bytes @ 0x2E
  1008  00002F                     	ds	1
  1009  000030                     ??___fladd:
  1010                           
  1011                           ; 1 bytes @ 0x2F
  1012  000030                     	ds	1
  1013  000031                     xtoa@w:
  1014                           	callstack 0
  1015                           
  1016                           ; 2 bytes @ 0x30
  1017  000031                     	ds	2
  1018  000033                     xtoa@n:
  1019                           	callstack 0
  1020                           
  1021                           ; 8 bytes @ 0x32
  1022  000033                     	ds	1
  1023  000034                     ___fladd@signs:
  1024                           	callstack 0
  1025                           
  1026                           ; 1 bytes @ 0x33
  1027  000034                     	ds	1
  1028  000035                     ___fladd@aexp:
  1029                           	callstack 0
  1030                           
  1031                           ; 1 bytes @ 0x34
  1032  000035                     	ds	1
  1033  000036                     ___fladd@bexp:
  1034                           	callstack 0
  1035                           
  1036                           ; 1 bytes @ 0x35
  1037  000036                     	ds	1
  1038  000037                     ___fladd@grs:
  1039                           	callstack 0
  1040                           
  1041                           ; 1 bytes @ 0x36
  1042  000037                     	ds	1
  1043  000038                     USART_Init@baud_rate:
  1044                           	callstack 0
  1045                           
  1046                           ; 4 bytes @ 0x37
  1047  000038                     	ds	3
  1048  00003B                     xtoa@i:
  1049                           	callstack 0
  1050                           
  1051                           ; 2 bytes @ 0x3A
  1052  00003B                     	ds	1
  1053  00003C                     USART_Init@temp:
  1054                           	callstack 0
  1055                           
  1056                           ; 4 bytes @ 0x3B
  1057  00003C                     	ds	1
  1058  00003D                     xtoa@c:
  1059                           	callstack 0
  1060                           
  1061                           ; 2 bytes @ 0x3C
  1062  00003D                     	ds	2
  1063  00003F                     ?_vfpfcnvrt:
  1064                           	callstack 0
  1065  00003F                     vfpfcnvrt@fp:
  1066                           	callstack 0
  1067                           
  1068                           ; 2 bytes @ 0x3E
  1069  00003F                     	ds	2
  1070  000041                     vfpfcnvrt@fmt:
  1071                           	callstack 0
  1072                           
  1073                           ; 2 bytes @ 0x40
  1074  000041                     	ds	2
  1075  000043                     vfpfcnvrt@ap:
  1076                           	callstack 0
  1077                           
  1078                           ; 2 bytes @ 0x42
  1079  000043                     	ds	2
  1080  000045                     ??_vfpfcnvrt:
  1081                           
  1082                           ; 1 bytes @ 0x44
  1083  000045                     	ds	4
  1084  000049                     vfpfcnvrt@llu:
  1085                           	callstack 0
  1086                           
  1087                           ; 8 bytes @ 0x48
  1088  000049                     	ds	8
  1089  000051                     vfpfcnvrt@c:
  1090                           	callstack 0
  1091                           
  1092                           ; 1 bytes @ 0x50
  1093  000051                     	ds	1
  1094  000052                     ?_vfprintf:
  1095                           	callstack 0
  1096  000052                     vfprintf@fp:
  1097                           	callstack 0
  1098                           
  1099                           ; 2 bytes @ 0x51
  1100  000052                     	ds	2
  1101  000054                     vfprintf@fmt:
  1102                           	callstack 0
  1103                           
  1104                           ; 2 bytes @ 0x53
  1105  000054                     	ds	2
  1106  000056                     vfprintf@ap:
  1107                           	callstack 0
  1108                           
  1109                           ; 2 bytes @ 0x55
  1110  000056                     	ds	2
  1111  000058                     vfprintf@cfmt:
  1112                           	callstack 0
  1113                           
  1114                           ; 2 bytes @ 0x57
  1115  000058                     	ds	2
  1116  00005A                     ?_sprintf:
  1117                           	callstack 0
  1118  00005A                     sprintf@s:
  1119                           	callstack 0
  1120                           
  1121                           ; 2 bytes @ 0x59
  1122  00005A                     	ds	2
  1123  00005C                     sprintf@fmt:
  1124                           	callstack 0
  1125                           
  1126                           ; 2 bytes @ 0x5B
  1127  00005C                     	ds	4
  1128  000060                     
  1129                           ; 1 bytes @ 0x5F
  1130 ;;
  1131 ;;Main: autosize = 0, tempsize = 2, incstack = 0, save=0
  1132 ;;
  1133 ;; *************** function _main *****************
  1134 ;; Defined at:
  1135 ;;		line 26 in file "main.c"
  1136 ;; Parameters:    Size  Location     Type
  1137 ;;		None
  1138 ;; Auto vars:     Size  Location     Type
  1139 ;;  i               1   17[BANK0 ] unsigned char 
  1140 ;;  i               1   16[BANK0 ] unsigned char 
  1141 ;;  i               1   15[BANK0 ] unsigned char 
  1142 ;; Return value:  Size  Location     Type
  1143 ;;                  1    wreg      void 
  1144 ;; Registers used:
  1145 ;;		wreg, fsr1l, fsr1h, fsr2l, fsr2h, status,2, status,0, tblptrl, tblptrh, tblptru, prodl, prodh, cstack
  1146 ;; Tracked objects:
  1147 ;;		On entry : 0/0
  1148 ;;		On exit  : 0/0
  1149 ;;		Unchanged: 0/0
  1150 ;; Data sizes:     COMRAM   BANK0   BANK1   BANK2   BANK3   BANK4   BANK5   BANK6   BANK7
  1151 ;;      Params:         0       0       0       0       0       0       0       0       0
  1152 ;;      Locals:         0       3       0       0       0       0       0       0       0
  1153 ;;      Temps:          0       2       0       0       0       0       0       0       0
  1154 ;;      Totals:         0       5       0       0       0       0       0       0       0
  1155 ;;Total ram usage:        5 bytes
  1156 ;; Hardware stack levels required when called: 8
  1157 ;; This function calls:
  1158 ;;		_I2CLCD_Init
  1159 ;;		_LCD_Begin
  1160 ;;		_LCD_Cmd
  1161 ;;		_LCD_Goto
  1162 ;;		_LCD_Print
  1163 ;;		_MFRC522_AntiColl
  1164 ;;		_MFRC522_AntiColl2
  1165 ;;		_MFRC522_AntiColl3
  1166 ;;		_MFRC522_Halt
  1167 ;;		_MFRC522_Halt2
  1168 ;;		_MFRC522_Halt3
  1169 ;;		_MFRC522_Init
  1170 ;;		_MFRC522_IsCard
  1171 ;;		_MFRC522_IsCard2
  1172 ;;		_MFRC522_IsCard3
  1173 ;;		_MFRC522_ReadCardSerial
  1174 ;;		_MFRC522_ReadCardSerial2
  1175 ;;		_MFRC522_ReadCardSerial3
  1176 ;;		_USART_Init
  1177 ;;		_USART_TxChar
  1178 ;;		_sprintf
  1179 ;;		_strlen
  1180 ;; This function is called by:
  1181 ;;		Startup code after reset
  1182 ;; This function uses a non-reentrant model
  1183 ;;
  1184                           
  1185                           	psect	text0
  1186  000CE8                     __ptext0:
  1187                           	callstack 0
  1188  000CE8                     _main:
  1189                           	callstack 23
  1190  000CE8                     
  1191                           ;main.c: 27:     I2CLCD_Init(100000);
  1192  000CE8  0EA0               	movlw	160
  1193  000CEA  6E0E               	movwf	I2CLCD_Init@i2c_clk_freq^0,c
  1194  000CEC  0E86               	movlw	134
  1195  000CEE  6E0F               	movwf	(I2CLCD_Init@i2c_clk_freq+1)^0,c
  1196  000CF0  0E01               	movlw	1
  1197  000CF2  6E10               	movwf	(I2CLCD_Init@i2c_clk_freq+2)^0,c
  1198  000CF4  0E00               	movlw	0
  1199  000CF6  6E11               	movwf	(I2CLCD_Init@i2c_clk_freq+3)^0,c
  1200  000CF8  EC43  F01B         	call	_I2CLCD_Init	;wreg free
  1201                           
  1202                           ;main.c: 28:     LCD_Begin(0x4E);
  1203  000CFC  0E4E               	movlw	78
  1204  000CFE  EC2C  F012         	call	_LCD_Begin
  1205                           
  1206                           ;main.c: 29:     MFRC522_Init();
  1207  000D02  EC0F  F011         	call	_MFRC522_Init	;wreg free
  1208                           
  1209                           ;main.c: 30:     USART_Init(9600);
  1210  000D06  0E80               	movlw	128
  1211  000D08  6E38               	movwf	USART_Init@baud_rate^0,c
  1212  000D0A  0E25               	movlw	37
  1213  000D0C  6E39               	movwf	(USART_Init@baud_rate+1)^0,c
  1214  000D0E  0E00               	movlw	0
  1215  000D10  6E3A               	movwf	(USART_Init@baud_rate+2)^0,c
  1216  000D12  0E00               	movlw	0
  1217  000D14  6E3B               	movwf	(USART_Init@baud_rate+3)^0,c
  1218  000D16  ECDB  F017         	call	_USART_Init	;wreg free
  1219                           
  1220                           ;main.c: 32:     LCD_Goto(1, 1);
  1221  000D1A  0E01               	movlw	1
  1222  000D1C  6E07               	movwf	LCD_Goto@row^0,c
  1223  000D1E  0E01               	movlw	1
  1224  000D20  EC91  F019         	call	_LCD_Goto
  1225  000D24                     
  1226                           ;main.c: 33:     LCD_Print("Loading..");
  1227  000D24  0E01               	movlw	low STR_1
  1228  000D26  6E05               	movwf	LCD_Print@LCD_Str^0,c
  1229  000D28  0E08               	movlw	high STR_1
  1230  000D2A  6E06               	movwf	(LCD_Print@LCD_Str+1)^0,c
  1231  000D2C  ECDF  F014         	call	_LCD_Print	;wreg free
  1232  000D30                     
  1233                           ;main.c: 34:     _delay((unsigned long)((1000)*(27000000/4000.0)));
  1234  000D30  0E23               	movlw	35
  1235  000D32  0100               	movlb	0	; () banked
  1236  000D34  6FEE               	movwf	(??_main+1)& (0+255),b
  1237  000D36  0E3F               	movlw	63
  1238  000D38  6FED               	movwf	??_main& (0+255),b
  1239  000D3A  0E22               	movlw	34
  1240  000D3C                     u5817:
  1241  000D3C  2EE8               	decfsz	wreg,f,c
  1242  000D3E  D7FE               	bra	u5817
  1243  000D40  2FED               	decfsz	??_main& (0+255),f,b
  1244  000D42  D7FC               	bra	u5817
  1245  000D44  2FEE               	decfsz	(??_main+1)& (0+255),f,b
  1246  000D46  D7FA               	bra	u5817
  1247  000D48  F000               	nop	
  1248  000D4A                     
  1249                           ;main.c: 35:     LCD_Cmd(0x01);
  1250  000D4A  0E01               	movlw	1
  1251  000D4C  ECBF  F01B         	call	_LCD_Cmd
  1252  000D50                     l5591:
  1253                           
  1254                           ;main.c: 37:         MFRC522_IsCard(&TagType1);
  1255  000D50  0EDF               	movlw	low _TagType1
  1256  000D52  6E26               	movwf	MFRC522_IsCard@TagType^0,c
  1257  000D54  0E00               	movlw	high _TagType1
  1258  000D56  6E27               	movwf	(MFRC522_IsCard@TagType+1)^0,c
  1259  000D58  ECB7  F01D         	call	_MFRC522_IsCard	;wreg free
  1260  000D5C                     
  1261                           ;main.c: 38:         MFRC522_ReadCardSerial(&UID_1);
  1262  000D5C  0EB5               	movlw	low _UID_1
  1263  000D5E  6E28               	movwf	MFRC522_ReadCardSerial@str^0,c
  1264  000D60  0E00               	movlw	high _UID_1
  1265  000D62  6E29               	movwf	(MFRC522_ReadCardSerial@str+1)^0,c
  1266  000D64  ECF7  F01C         	call	_MFRC522_ReadCardSerial	;wreg free
  1267  000D68                     
  1268                           ;main.c: 39:         status_1 = MFRC522_AntiColl(&UID_1);
  1269  000D68  0EB5               	movlw	low _UID_1
  1270  000D6A  6E20               	movwf	MFRC522_AntiColl@serNum^0,c
  1271  000D6C  0E00               	movlw	high _UID_1
  1272  000D6E  6E21               	movwf	(MFRC522_AntiColl@serNum+1)^0,c
  1273  000D70  ECEE  F015         	call	_MFRC522_AntiColl	;wreg free
  1274  000D74  0100               	movlb	0	; () banked
  1275  000D76  6F6C               	movwf	_status_1& (0+255),b
  1276  000D78                     
  1277                           ; BSR set to: 0
  1278                           ;main.c: 41:         MFRC522_IsCard2(&TagType2);
  1279  000D78  0EDE               	movlw	low _TagType2
  1280  000D7A  6E26               	movwf	MFRC522_IsCard2@TagType^0,c
  1281  000D7C  0E00               	movlw	high _TagType2
  1282  000D7E  6E27               	movwf	(MFRC522_IsCard2@TagType+1)^0,c
  1283  000D80  ECAF  F01D         	call	_MFRC522_IsCard2	;wreg free
  1284  000D84                     
  1285                           ;main.c: 42:         MFRC522_ReadCardSerial2(&UID_2);
  1286  000D84  0EA1               	movlw	low _UID_2
  1287  000D86  6E28               	movwf	MFRC522_ReadCardSerial2@str^0,c
  1288  000D88  0E00               	movlw	high _UID_2
  1289  000D8A  6E29               	movwf	(MFRC522_ReadCardSerial2@str+1)^0,c
  1290  000D8C  ECE8  F01C         	call	_MFRC522_ReadCardSerial2	;wreg free
  1291  000D90                     
  1292                           ;main.c: 43:         status_2 = MFRC522_AntiColl2(&UID_2);
  1293  000D90  0EA1               	movlw	low _UID_2
  1294  000D92  6E20               	movwf	MFRC522_AntiColl2@serNum^0,c
  1295  000D94  0E00               	movlw	high _UID_2
  1296  000D96  6E21               	movwf	(MFRC522_AntiColl2@serNum+1)^0,c
  1297  000D98  EC94  F015         	call	_MFRC522_AntiColl2	;wreg free
  1298  000D9C  0100               	movlb	0	; () banked
  1299  000D9E  6F6B               	movwf	_status_2& (0+255),b
  1300  000DA0                     
  1301                           ; BSR set to: 0
  1302                           ;main.c: 45:         MFRC522_IsCard3(&TagType3);
  1303  000DA0  0EDD               	movlw	low _TagType3
  1304  000DA2  6E26               	movwf	MFRC522_IsCard3@TagType^0,c
  1305  000DA4  0E00               	movlw	high _TagType3
  1306  000DA6  6E27               	movwf	(MFRC522_IsCard3@TagType+1)^0,c
  1307  000DA8  ECA7  F01D         	call	_MFRC522_IsCard3	;wreg free
  1308  000DAC                     
  1309                           ;main.c: 46:         MFRC522_ReadCardSerial3(&UID_3);
  1310  000DAC  0E8D               	movlw	low _UID_3
  1311  000DAE  6E28               	movwf	MFRC522_ReadCardSerial3@str^0,c
  1312  000DB0  0E00               	movlw	high _UID_3
  1313  000DB2  6E29               	movwf	(MFRC522_ReadCardSerial3@str+1)^0,c
  1314  000DB4  ECD9  F01C         	call	_MFRC522_ReadCardSerial3	;wreg free
  1315  000DB8                     
  1316                           ;main.c: 47:         status_3 = MFRC522_AntiColl3(&UID_3);
  1317  000DB8  0E8D               	movlw	low _UID_3
  1318  000DBA  6E20               	movwf	MFRC522_AntiColl3@serNum^0,c
  1319  000DBC  0E00               	movlw	high _UID_3
  1320  000DBE  6E21               	movwf	(MFRC522_AntiColl3@serNum+1)^0,c
  1321  000DC0  EC3A  F015         	call	_MFRC522_AntiColl3	;wreg free
  1322  000DC4  0100               	movlb	0	; () banked
  1323  000DC6  6F6A               	movwf	_status_3& (0+255),b
  1324  000DC8                     
  1325                           ; BSR set to: 0
  1326                           ;main.c: 53:         if(strlen(UID_1) == 1 || strlen(UID_2) == 1 || strlen(UID_3) == 1){
  1327  000DC8  0EB5               	movlw	low _UID_1
  1328  000DCA  6E01               	movwf	strlen@s^0,c
  1329  000DCC  0E00               	movlw	high _UID_1
  1330  000DCE  6E02               	movwf	(strlen@s+1)^0,c
  1331  000DD0  EC98  F01B         	call	_strlen	;wreg free
  1332  000DD4  0401               	decf	?_strlen^0,w,c
  1333  000DD6  1002               	iorwf	(?_strlen+1)^0,w,c
  1334  000DD8  B4D8               	btfsc	status,2,c
  1335  000DDA  EFF1  F006         	goto	u5601
  1336  000DDE  EFF3  F006         	goto	u5600
  1337  000DE2                     u5601:
  1338  000DE2  EF11  F007         	goto	l5615
  1339  000DE6                     u5600:
  1340  000DE6  0EA1               	movlw	low _UID_2
  1341  000DE8  6E01               	movwf	strlen@s^0,c
  1342  000DEA  0E00               	movlw	high _UID_2
  1343  000DEC  6E02               	movwf	(strlen@s+1)^0,c
  1344  000DEE  EC98  F01B         	call	_strlen	;wreg free
  1345  000DF2  0401               	decf	?_strlen^0,w,c
  1346  000DF4  1002               	iorwf	(?_strlen+1)^0,w,c
  1347  000DF6  B4D8               	btfsc	status,2,c
  1348  000DF8  EF00  F007         	goto	u5611
  1349  000DFC  EF02  F007         	goto	u5610
  1350  000E00                     u5611:
  1351  000E00  EF11  F007         	goto	l5615
  1352  000E04                     u5610:
  1353  000E04  0E8D               	movlw	low _UID_3
  1354  000E06  6E01               	movwf	strlen@s^0,c
  1355  000E08  0E00               	movlw	high _UID_3
  1356  000E0A  6E02               	movwf	(strlen@s+1)^0,c
  1357  000E0C  EC98  F01B         	call	_strlen	;wreg free
  1358  000E10  0401               	decf	?_strlen^0,w,c
  1359  000E12  1002               	iorwf	(?_strlen+1)^0,w,c
  1360  000E14  A4D8               	btfss	status,2,c
  1361  000E16  EF0F  F007         	goto	u5621
  1362  000E1A  EF11  F007         	goto	u5620
  1363  000E1E                     u5621:
  1364  000E1E  EF14  F007         	goto	l114
  1365  000E22                     u5620:
  1366  000E22                     l5615:
  1367                           
  1368                           ;main.c: 54:             LCD_Cmd(0x01);
  1369  000E22  0E01               	movlw	1
  1370  000E24  ECBF  F01B         	call	_LCD_Cmd
  1371  000E28                     l114:
  1372                           
  1373                           ;main.c: 57:         LCD_Goto(1, 2);
  1374  000E28  0E02               	movlw	2
  1375  000E2A  6E07               	movwf	LCD_Goto@row^0,c
  1376  000E2C  0E01               	movlw	1
  1377  000E2E  EC91  F019         	call	_LCD_Goto
  1378  000E32                     
  1379                           ;main.c: 58:         if(status_1 == 0){
  1380  000E32  0100               	movlb	0	; () banked
  1381  000E34  516C               	movf	_status_1& (0+255),w,b
  1382  000E36  A4D8               	btfss	status,2,c
  1383  000E38  EF20  F007         	goto	u5631
  1384  000E3C  EF22  F007         	goto	u5630
  1385  000E40                     u5631:
  1386  000E40  EF70  F007         	goto	l5643
  1387  000E44                     u5630:
  1388  000E44                     
  1389                           ; BSR set to: 0
  1390                           ;main.c: 59:             USART_TxChar("P1");
  1391  000E44  0E1A               	movlw	low STR_2
  1392  000E46  6E05               	movwf	USART_TxChar@out^0,c
  1393  000E48  0E08               	movlw	high STR_2
  1394  000E4A  6E06               	movwf	(USART_TxChar@out+1)^0,c
  1395  000E4C  EC59  F019         	call	_USART_TxChar	;wreg free
  1396  000E50                     
  1397                           ;main.c: 60:             for(uint8_t i = 0; i < 5; i++)
  1398  000E50  0E00               	movlw	0
  1399  000E52  0100               	movlb	0	; () banked
  1400  000E54  6FEF               	movwf	main@i& (0+255),b
  1401  000E56                     l5627:
  1402                           
  1403                           ; BSR set to: 0
  1404                           ;main.c: 61:             {;main.c: 62:                 sprintf(data_buffer, "%X", UID_1[
      +                          i]);
  1405  000E56  0EC9               	movlw	low _data_buffer
  1406  000E58  6E5A               	movwf	sprintf@s^0,c
  1407  000E5A  0E00               	movlw	high _data_buffer
  1408  000E5C  6E5B               	movwf	(sprintf@s+1)^0,c
  1409  000E5E  0E23               	movlw	low STR_3
  1410  000E60  6E5C               	movwf	sprintf@fmt^0,c
  1411  000E62  0E08               	movlw	high STR_3
  1412  000E64  6E5D               	movwf	(sprintf@fmt+1)^0,c
  1413  000E66  0EB5               	movlw	low _UID_1
  1414  000E68  25EF               	addwf	main@i& (0+255),w,b
  1415  000E6A  6ED9               	movwf	fsr2l,c
  1416  000E6C  6ADA               	clrf	fsr2h,c
  1417  000E6E  0E00               	movlw	high _UID_1
  1418  000E70  22DA               	addwfc	fsr2h,f,c
  1419  000E72  50DF               	movf	indf2,w,c
  1420  000E74  6FED               	movwf	??_main& (0+255),b
  1421  000E76  51ED               	movf	??_main& (0+255),w,b
  1422  000E78  6E5E               	movwf	(?_sprintf+4)^0,c
  1423  000E7A  6A5F               	clrf	(?_sprintf+5)^0,c
  1424  000E7C  EC6F  F01B         	call	_sprintf	;wreg free
  1425  000E80                     
  1426                           ;main.c: 63:                 LCD_Print(data_buffer);
  1427  000E80  0EC9               	movlw	low _data_buffer
  1428  000E82  6E05               	movwf	LCD_Print@LCD_Str^0,c
  1429  000E84  0E00               	movlw	high _data_buffer
  1430  000E86  6E06               	movwf	(LCD_Print@LCD_Str+1)^0,c
  1431  000E88  ECDF  F014         	call	_LCD_Print	;wreg free
  1432  000E8C                     
  1433                           ;main.c: 65:                 USART_TxChar(data_buffer);
  1434  000E8C  0EC9               	movlw	low _data_buffer
  1435  000E8E  6E05               	movwf	USART_TxChar@out^0,c
  1436  000E90  0E00               	movlw	high _data_buffer
  1437  000E92  6E06               	movwf	(USART_TxChar@out+1)^0,c
  1438  000E94  EC59  F019         	call	_USART_TxChar	;wreg free
  1439  000E98                     
  1440                           ;main.c: 66:             }
  1441  000E98  0100               	movlb	0	; () banked
  1442  000E9A  2BEF               	incf	main@i& (0+255),f,b
  1443  000E9C                     
  1444                           ; BSR set to: 0
  1445  000E9C  0E04               	movlw	4
  1446  000E9E  65EF               	cpfsgt	main@i& (0+255),b
  1447  000EA0  EF54  F007         	goto	u5641
  1448  000EA4  EF56  F007         	goto	u5640
  1449  000EA8                     u5641:
  1450  000EA8  EF2B  F007         	goto	l5627
  1451  000EAC                     u5640:
  1452  000EAC                     
  1453                           ; BSR set to: 0
  1454                           ;main.c: 67:             LCD_Goto(1, 1);
  1455  000EAC  0E01               	movlw	1
  1456  000EAE  6E07               	movwf	LCD_Goto@row^0,c
  1457  000EB0  0E01               	movlw	1
  1458  000EB2  EC91  F019         	call	_LCD_Goto
  1459  000EB6                     
  1460                           ;main.c: 68:             LCD_Print("Pos1");
  1461  000EB6  0E0B               	movlw	low STR_4
  1462  000EB8  6E05               	movwf	LCD_Print@LCD_Str^0,c
  1463  000EBA  0E08               	movlw	high STR_4
  1464  000EBC  6E06               	movwf	(LCD_Print@LCD_Str+1)^0,c
  1465  000EBE  ECDF  F014         	call	_LCD_Print	;wreg free
  1466  000EC2                     
  1467                           ;main.c: 69:             _delay((unsigned long)((500)*(27000000/4000.0)));
  1468  000EC2  0E12               	movlw	18
  1469  000EC4  0100               	movlb	0	; () banked
  1470  000EC6  6FEE               	movwf	(??_main+1)& (0+255),b
  1471  000EC8  0E20               	movlw	32
  1472  000ECA  6FED               	movwf	??_main& (0+255),b
  1473  000ECC  0E0F               	movlw	15
  1474  000ECE                     u5827:
  1475  000ECE  2EE8               	decfsz	wreg,f,c
  1476  000ED0  D7FE               	bra	u5827
  1477  000ED2  2FED               	decfsz	??_main& (0+255),f,b
  1478  000ED4  D7FC               	bra	u5827
  1479  000ED6  2FEE               	decfsz	(??_main+1)& (0+255),f,b
  1480  000ED8  D7FA               	bra	u5827
  1481  000EDA  D000               	nop2	
  1482                           
  1483                           ;main.c: 70:         } else {
  1484  000EDC  EF7F  F007         	goto	l5647
  1485  000EE0                     l5643:
  1486                           
  1487                           ; BSR set to: 0
  1488                           ;main.c: 71:             _delay((unsigned long)((50)*(27000000/4000.0)));
  1489  000EE0  0E02               	movlw	2
  1490  000EE2  0100               	movlb	0	; () banked
  1491  000EE4  6FEE               	movwf	(??_main+1)& (0+255),b
  1492  000EE6  0EB7               	movlw	183
  1493  000EE8  6FED               	movwf	??_main& (0+255),b
  1494  000EEA  0E4C               	movlw	76
  1495  000EEC                     u5837:
  1496  000EEC  2EE8               	decfsz	wreg,f,c
  1497  000EEE  D7FE               	bra	u5837
  1498  000EF0  2FED               	decfsz	??_main& (0+255),f,b
  1499  000EF2  D7FC               	bra	u5837
  1500  000EF4  2FEE               	decfsz	(??_main+1)& (0+255),f,b
  1501  000EF6  D7FA               	bra	u5837
  1502  000EF8  F000               	nop	
  1503  000EFA                     
  1504                           ;main.c: 72:             MFRC522_Halt();
  1505  000EFA  EC17  F01B         	call	_MFRC522_Halt	;wreg free
  1506  000EFE                     l5647:
  1507                           
  1508                           ;main.c: 75:         LCD_Goto(1, 2);
  1509  000EFE  0E02               	movlw	2
  1510  000F00  6E07               	movwf	LCD_Goto@row^0,c
  1511  000F02  0E01               	movlw	1
  1512  000F04  EC91  F019         	call	_LCD_Goto
  1513  000F08                     
  1514                           ;main.c: 76:         if(status_2 == 0){
  1515  000F08  0100               	movlb	0	; () banked
  1516  000F0A  516B               	movf	_status_2& (0+255),w,b
  1517  000F0C  A4D8               	btfss	status,2,c
  1518  000F0E  EF8B  F007         	goto	u5651
  1519  000F12  EF8D  F007         	goto	u5650
  1520  000F16                     u5651:
  1521  000F16  EFDB  F007         	goto	l5675
  1522  000F1A                     u5650:
  1523  000F1A                     
  1524                           ; BSR set to: 0
  1525                           ;main.c: 77:             USART_TxChar("P2");
  1526  000F1A  0E1D               	movlw	low STR_5
  1527  000F1C  6E05               	movwf	USART_TxChar@out^0,c
  1528  000F1E  0E08               	movlw	high STR_5
  1529  000F20  6E06               	movwf	(USART_TxChar@out+1)^0,c
  1530  000F22  EC59  F019         	call	_USART_TxChar	;wreg free
  1531  000F26                     
  1532                           ;main.c: 78:             for(uint8_t i = 0; i < 5; i++)
  1533  000F26  0E00               	movlw	0
  1534  000F28  0100               	movlb	0	; () banked
  1535  000F2A  6FF0               	movwf	main@i_317& (0+255),b
  1536  000F2C                     l5659:
  1537                           
  1538                           ; BSR set to: 0
  1539                           ;main.c: 79:             {;main.c: 80:                 sprintf(data_buffer, "%X", UID_2[
      +                          i]);
  1540  000F2C  0EC9               	movlw	low _data_buffer
  1541  000F2E  6E5A               	movwf	sprintf@s^0,c
  1542  000F30  0E00               	movlw	high _data_buffer
  1543  000F32  6E5B               	movwf	(sprintf@s+1)^0,c
  1544  000F34  0E23               	movlw	low STR_3
  1545  000F36  6E5C               	movwf	sprintf@fmt^0,c
  1546  000F38  0E08               	movlw	high STR_3
  1547  000F3A  6E5D               	movwf	(sprintf@fmt+1)^0,c
  1548  000F3C  0EA1               	movlw	low _UID_2
  1549  000F3E  25F0               	addwf	main@i_317& (0+255),w,b
  1550  000F40  6ED9               	movwf	fsr2l,c
  1551  000F42  6ADA               	clrf	fsr2h,c
  1552  000F44  0E00               	movlw	high _UID_2
  1553  000F46  22DA               	addwfc	fsr2h,f,c
  1554  000F48  50DF               	movf	indf2,w,c
  1555  000F4A  6FED               	movwf	??_main& (0+255),b
  1556  000F4C  51ED               	movf	??_main& (0+255),w,b
  1557  000F4E  6E5E               	movwf	(?_sprintf+4)^0,c
  1558  000F50  6A5F               	clrf	(?_sprintf+5)^0,c
  1559  000F52  EC6F  F01B         	call	_sprintf	;wreg free
  1560  000F56                     
  1561                           ;main.c: 81:                 LCD_Print(data_buffer);
  1562  000F56  0EC9               	movlw	low _data_buffer
  1563  000F58  6E05               	movwf	LCD_Print@LCD_Str^0,c
  1564  000F5A  0E00               	movlw	high _data_buffer
  1565  000F5C  6E06               	movwf	(LCD_Print@LCD_Str+1)^0,c
  1566  000F5E  ECDF  F014         	call	_LCD_Print	;wreg free
  1567  000F62                     
  1568                           ;main.c: 83:                 USART_TxChar(data_buffer);
  1569  000F62  0EC9               	movlw	low _data_buffer
  1570  000F64  6E05               	movwf	USART_TxChar@out^0,c
  1571  000F66  0E00               	movlw	high _data_buffer
  1572  000F68  6E06               	movwf	(USART_TxChar@out+1)^0,c
  1573  000F6A  EC59  F019         	call	_USART_TxChar	;wreg free
  1574  000F6E                     
  1575                           ;main.c: 84:             }
  1576  000F6E  0100               	movlb	0	; () banked
  1577  000F70  2BF0               	incf	main@i_317& (0+255),f,b
  1578  000F72                     
  1579                           ; BSR set to: 0
  1580  000F72  0E04               	movlw	4
  1581  000F74  65F0               	cpfsgt	main@i_317& (0+255),b
  1582  000F76  EFBF  F007         	goto	u5661
  1583  000F7A  EFC1  F007         	goto	u5660
  1584  000F7E                     u5661:
  1585  000F7E  EF96  F007         	goto	l5659
  1586  000F82                     u5660:
  1587  000F82                     
  1588                           ; BSR set to: 0
  1589                           ;main.c: 85:             LCD_Goto(1, 1);
  1590  000F82  0E01               	movlw	1
  1591  000F84  6E07               	movwf	LCD_Goto@row^0,c
  1592  000F86  0E01               	movlw	1
  1593  000F88  EC91  F019         	call	_LCD_Goto
  1594  000F8C                     
  1595                           ;main.c: 86:             LCD_Print("Pos2");
  1596  000F8C  0E10               	movlw	low STR_7
  1597  000F8E  6E05               	movwf	LCD_Print@LCD_Str^0,c
  1598  000F90  0E08               	movlw	high STR_7
  1599  000F92  6E06               	movwf	(LCD_Print@LCD_Str+1)^0,c
  1600  000F94  ECDF  F014         	call	_LCD_Print	;wreg free
  1601  000F98                     
  1602                           ;main.c: 87:             _delay((unsigned long)((500)*(27000000/4000.0)));
  1603  000F98  0E12               	movlw	18
  1604  000F9A  0100               	movlb	0	; () banked
  1605  000F9C  6FEE               	movwf	(??_main+1)& (0+255),b
  1606  000F9E  0E20               	movlw	32
  1607  000FA0  6FED               	movwf	??_main& (0+255),b
  1608  000FA2  0E0F               	movlw	15
  1609  000FA4                     u5847:
  1610  000FA4  2EE8               	decfsz	wreg,f,c
  1611  000FA6  D7FE               	bra	u5847
  1612  000FA8  2FED               	decfsz	??_main& (0+255),f,b
  1613  000FAA  D7FC               	bra	u5847
  1614  000FAC  2FEE               	decfsz	(??_main+1)& (0+255),f,b
  1615  000FAE  D7FA               	bra	u5847
  1616  000FB0  D000               	nop2	
  1617                           
  1618                           ;main.c: 88:         } else {
  1619  000FB2  EFEA  F007         	goto	l5679
  1620  000FB6                     l5675:
  1621                           
  1622                           ; BSR set to: 0
  1623                           ;main.c: 89:             _delay((unsigned long)((50)*(27000000/4000.0)));
  1624  000FB6  0E02               	movlw	2
  1625  000FB8  0100               	movlb	0	; () banked
  1626  000FBA  6FEE               	movwf	(??_main+1)& (0+255),b
  1627  000FBC  0EB7               	movlw	183
  1628  000FBE  6FED               	movwf	??_main& (0+255),b
  1629  000FC0  0E4C               	movlw	76
  1630  000FC2                     u5857:
  1631  000FC2  2EE8               	decfsz	wreg,f,c
  1632  000FC4  D7FE               	bra	u5857
  1633  000FC6  2FED               	decfsz	??_main& (0+255),f,b
  1634  000FC8  D7FC               	bra	u5857
  1635  000FCA  2FEE               	decfsz	(??_main+1)& (0+255),f,b
  1636  000FCC  D7FA               	bra	u5857
  1637  000FCE  F000               	nop	
  1638  000FD0                     
  1639                           ;main.c: 90:             MFRC522_Halt2();
  1640  000FD0  ECEB  F01A         	call	_MFRC522_Halt2	;wreg free
  1641  000FD4                     l5679:
  1642                           
  1643                           ;main.c: 93:         LCD_Goto(1, 2);
  1644  000FD4  0E02               	movlw	2
  1645  000FD6  6E07               	movwf	LCD_Goto@row^0,c
  1646  000FD8  0E01               	movlw	1
  1647  000FDA  EC91  F019         	call	_LCD_Goto
  1648  000FDE                     
  1649                           ;main.c: 94:         if(status_3 == 0) {
  1650  000FDE  0100               	movlb	0	; () banked
  1651  000FE0  516A               	movf	_status_3& (0+255),w,b
  1652  000FE2  A4D8               	btfss	status,2,c
  1653  000FE4  EFF6  F007         	goto	u5671
  1654  000FE8  EFF8  F007         	goto	u5670
  1655  000FEC                     u5671:
  1656  000FEC  EF46  F008         	goto	l5707
  1657  000FF0                     u5670:
  1658  000FF0                     
  1659                           ; BSR set to: 0
  1660                           ;main.c: 95:             USART_TxChar("P3");
  1661  000FF0  0E20               	movlw	low STR_8
  1662  000FF2  6E05               	movwf	USART_TxChar@out^0,c
  1663  000FF4  0E08               	movlw	high STR_8
  1664  000FF6  6E06               	movwf	(USART_TxChar@out+1)^0,c
  1665  000FF8  EC59  F019         	call	_USART_TxChar	;wreg free
  1666  000FFC                     
  1667                           ;main.c: 96:             for(uint8_t i = 0; i < 5; i++)
  1668  000FFC  0E00               	movlw	0
  1669  000FFE  0100               	movlb	0	; () banked
  1670  001000  6FF1               	movwf	main@i_321& (0+255),b
  1671  001002                     l5691:
  1672                           
  1673                           ; BSR set to: 0
  1674                           ;main.c: 97:             {;main.c: 98:                 sprintf(data_buffer, "%X", UID_3[
      +                          i]);
  1675  001002  0EC9               	movlw	low _data_buffer
  1676  001004  6E5A               	movwf	sprintf@s^0,c
  1677  001006  0E00               	movlw	high _data_buffer
  1678  001008  6E5B               	movwf	(sprintf@s+1)^0,c
  1679  00100A  0E23               	movlw	low STR_3
  1680  00100C  6E5C               	movwf	sprintf@fmt^0,c
  1681  00100E  0E08               	movlw	high STR_3
  1682  001010  6E5D               	movwf	(sprintf@fmt+1)^0,c
  1683  001012  0E8D               	movlw	low _UID_3
  1684  001014  25F1               	addwf	main@i_321& (0+255),w,b
  1685  001016  6ED9               	movwf	fsr2l,c
  1686  001018  6ADA               	clrf	fsr2h,c
  1687  00101A  0E00               	movlw	high _UID_3
  1688  00101C  22DA               	addwfc	fsr2h,f,c
  1689  00101E  50DF               	movf	indf2,w,c
  1690  001020  6FED               	movwf	??_main& (0+255),b
  1691  001022  51ED               	movf	??_main& (0+255),w,b
  1692  001024  6E5E               	movwf	(?_sprintf+4)^0,c
  1693  001026  6A5F               	clrf	(?_sprintf+5)^0,c
  1694  001028  EC6F  F01B         	call	_sprintf	;wreg free
  1695  00102C                     
  1696                           ;main.c: 99:                 LCD_Print(data_buffer);
  1697  00102C  0EC9               	movlw	low _data_buffer
  1698  00102E  6E05               	movwf	LCD_Print@LCD_Str^0,c
  1699  001030  0E00               	movlw	high _data_buffer
  1700  001032  6E06               	movwf	(LCD_Print@LCD_Str+1)^0,c
  1701  001034  ECDF  F014         	call	_LCD_Print	;wreg free
  1702  001038                     
  1703                           ;main.c: 101:                 USART_TxChar(data_buffer);
  1704  001038  0EC9               	movlw	low _data_buffer
  1705  00103A  6E05               	movwf	USART_TxChar@out^0,c
  1706  00103C  0E00               	movlw	high _data_buffer
  1707  00103E  6E06               	movwf	(USART_TxChar@out+1)^0,c
  1708  001040  EC59  F019         	call	_USART_TxChar	;wreg free
  1709  001044                     
  1710                           ;main.c: 102:             }
  1711  001044  0100               	movlb	0	; () banked
  1712  001046  2BF1               	incf	main@i_321& (0+255),f,b
  1713  001048                     
  1714                           ; BSR set to: 0
  1715  001048  0E04               	movlw	4
  1716  00104A  65F1               	cpfsgt	main@i_321& (0+255),b
  1717  00104C  EF2A  F008         	goto	u5681
  1718  001050  EF2C  F008         	goto	u5680
  1719  001054                     u5681:
  1720  001054  EF01  F008         	goto	l5691
  1721  001058                     u5680:
  1722  001058                     
  1723                           ; BSR set to: 0
  1724                           ;main.c: 103:             LCD_Goto(1, 1);
  1725  001058  0E01               	movlw	1
  1726  00105A  6E07               	movwf	LCD_Goto@row^0,c
  1727  00105C  0E01               	movlw	1
  1728  00105E  EC91  F019         	call	_LCD_Goto
  1729  001062                     
  1730                           ;main.c: 104:             LCD_Print("Pos3");
  1731  001062  0E15               	movlw	low STR_10
  1732  001064  6E05               	movwf	LCD_Print@LCD_Str^0,c
  1733  001066  0E08               	movlw	high STR_10
  1734  001068  6E06               	movwf	(LCD_Print@LCD_Str+1)^0,c
  1735  00106A  ECDF  F014         	call	_LCD_Print	;wreg free
  1736  00106E                     
  1737                           ;main.c: 105:             _delay((unsigned long)((500)*(27000000/4000.0)));
  1738  00106E  0E12               	movlw	18
  1739  001070  0100               	movlb	0	; () banked
  1740  001072  6FEE               	movwf	(??_main+1)& (0+255),b
  1741  001074  0E20               	movlw	32
  1742  001076  6FED               	movwf	??_main& (0+255),b
  1743  001078  0E0F               	movlw	15
  1744  00107A                     u5867:
  1745  00107A  2EE8               	decfsz	wreg,f,c
  1746  00107C  D7FE               	bra	u5867
  1747  00107E  2FED               	decfsz	??_main& (0+255),f,b
  1748  001080  D7FC               	bra	u5867
  1749  001082  2FEE               	decfsz	(??_main+1)& (0+255),f,b
  1750  001084  D7FA               	bra	u5867
  1751  001086  D000               	nop2	
  1752                           
  1753                           ;main.c: 106:         } else {
  1754  001088  EFA8  F006         	goto	l5591
  1755  00108C                     l5707:
  1756                           
  1757                           ; BSR set to: 0
  1758                           ;main.c: 107:             _delay((unsigned long)((50)*(27000000/4000.0)));
  1759  00108C  0E02               	movlw	2
  1760  00108E  0100               	movlb	0	; () banked
  1761  001090  6FEE               	movwf	(??_main+1)& (0+255),b
  1762  001092  0EB7               	movlw	183
  1763  001094  6FED               	movwf	??_main& (0+255),b
  1764  001096  0E4C               	movlw	76
  1765  001098                     u5877:
  1766  001098  2EE8               	decfsz	wreg,f,c
  1767  00109A  D7FE               	bra	u5877
  1768  00109C  2FED               	decfsz	??_main& (0+255),f,b
  1769  00109E  D7FC               	bra	u5877
  1770  0010A0  2FEE               	decfsz	(??_main+1)& (0+255),f,b
  1771  0010A2  D7FA               	bra	u5877
  1772  0010A4  F000               	nop	
  1773  0010A6                     
  1774                           ;main.c: 108:             MFRC522_Halt3();
  1775  0010A6  ECBF  F01A         	call	_MFRC522_Halt3	;wreg free
  1776  0010AA  EFA8  F006         	goto	l5591
  1777  0010AE  EF00  F000         	goto	start
  1778  0010B2                     __end_of_main:
  1779                           	callstack 0
  1780                           
  1781 ;; *************** function _sprintf *****************
  1782 ;; Defined at:
  1783 ;;		line 9 in file "D:\Program Files\Microchip\xc8\v2.36\pic\sources\c99\common\nf_sprintf.c"
  1784 ;; Parameters:    Size  Location     Type
  1785 ;;  s               2   89[COMRAM] PTR unsigned char 
  1786 ;;		 -> data_buffer(20), 
  1787 ;;  fmt             2   91[COMRAM] PTR const unsigned char 
  1788 ;;		 -> STR_9(3), STR_6(3), STR_3(3), 
  1789 ;; Auto vars:     Size  Location     Type
  1790 ;;  f              11    2[BANK0 ] struct _IO_FILE
  1791 ;;  ap              2    0[BANK0 ] PTR void [1]
  1792 ;;		 -> ?_sprintf(2), 
  1793 ;;  ret             2    0        int 
  1794 ;; Return value:  Size  Location     Type
  1795 ;;                  2   89[COMRAM] int 
  1796 ;; Registers used:
  1797 ;;		wreg, fsr1l, fsr1h, fsr2l, fsr2h, status,2, status,0, tblptrl, tblptrh, tblptru, cstack
  1798 ;; Tracked objects:
  1799 ;;		On entry : 0/0
  1800 ;;		On exit  : 0/0
  1801 ;;		Unchanged: 0/0
  1802 ;; Data sizes:     COMRAM   BANK0   BANK1   BANK2   BANK3   BANK4   BANK5   BANK6   BANK7
  1803 ;;      Params:         6       0       0       0       0       0       0       0       0
  1804 ;;      Locals:         0      13       0       0       0       0       0       0       0
  1805 ;;      Temps:          0       0       0       0       0       0       0       0       0
  1806 ;;      Totals:         6      13       0       0       0       0       0       0       0
  1807 ;;Total ram usage:       19 bytes
  1808 ;; Hardware stack levels used: 1
  1809 ;; Hardware stack levels required when called: 7
  1810 ;; This function calls:
  1811 ;;		_vfprintf
  1812 ;; This function is called by:
  1813 ;;		_main
  1814 ;; This function uses a non-reentrant model
  1815 ;;
  1816                           
  1817                           	psect	text1
  1818  0036DE                     __ptext1:
  1819                           	callstack 0
  1820  0036DE                     _sprintf:
  1821                           	callstack 23
  1822  0036DE  0E5E               	movlw	low (?_sprintf+4)
  1823  0036E0  0100               	movlb	0	; () banked
  1824  0036E2  6FE0               	movwf	sprintf@ap& (0+255),b
  1825  0036E4  0E00               	movlw	high (?_sprintf+4)
  1826  0036E6  6FE1               	movwf	(sprintf@ap+1)& (0+255),b
  1827  0036E8  C05A  F0E2         	movff	sprintf@s,sprintf@f
  1828  0036EC  C05B  F0E3         	movff	sprintf@s+1,sprintf@f+1
  1829  0036F0                     
  1830                           ; BSR set to: 0
  1831  0036F0  0E00               	movlw	0
  1832  0036F2  6FE6               	movwf	(sprintf@f+4)& (0+255),b
  1833  0036F4  0E00               	movlw	0
  1834  0036F6  6FE5               	movwf	(sprintf@f+3)& (0+255),b
  1835  0036F8                     
  1836                           ; BSR set to: 0
  1837  0036F8  0E00               	movlw	0
  1838  0036FA  6FEC               	movwf	(sprintf@f+10)& (0+255),b
  1839  0036FC  0E00               	movlw	0
  1840  0036FE  6FEB               	movwf	(sprintf@f+9)& (0+255),b
  1841  003700                     
  1842                           ; BSR set to: 0
  1843  003700  0EE2               	movlw	low sprintf@f
  1844  003702  6E52               	movwf	vfprintf@fp^0,c
  1845  003704  0E00               	movlw	high sprintf@f
  1846  003706  6E53               	movwf	(vfprintf@fp+1)^0,c
  1847  003708  C05C  F054         	movff	sprintf@fmt,vfprintf@fmt
  1848  00370C  C05D  F055         	movff	sprintf@fmt+1,vfprintf@fmt+1
  1849  003710  0EE0               	movlw	low sprintf@ap
  1850  003712  6E56               	movwf	vfprintf@ap^0,c
  1851  003714  0E00               	movlw	high sprintf@ap
  1852  003716  6E57               	movwf	(vfprintf@ap+1)^0,c
  1853  003718  EC62  F01A         	call	_vfprintf	;wreg free
  1854  00371C  0100               	movlb	0	; () banked
  1855  00371E  51E5               	movf	(sprintf@f+3)& (0+255),w,b
  1856  003720  245A               	addwf	sprintf@s^0,w,c
  1857  003722  6ED9               	movwf	fsr2l,c
  1858  003724  51E6               	movf	(sprintf@f+4)& (0+255),w,b
  1859  003726  205B               	addwfc	(sprintf@s+1)^0,w,c
  1860  003728  6EDA               	movwf	fsr2h,c
  1861  00372A  0E00               	movlw	0
  1862  00372C  6EDF               	movwf	indf2,c
  1863  00372E                     
  1864                           ; BSR set to: 0
  1865  00372E  0012               	return		;funcret
  1866  003730                     __end_of_sprintf:
  1867                           	callstack 0
  1868                           
  1869 ;; *************** function _vfprintf *****************
  1870 ;; Defined at:
  1871 ;;		line 1390 in file "D:\Program Files\Microchip\xc8\v2.36\pic\sources\c99\common\doprnt.c"
  1872 ;; Parameters:    Size  Location     Type
  1873 ;;  fp              2   81[COMRAM] PTR struct _IO_FILE
  1874 ;;		 -> sprintf@f(11), 
  1875 ;;  fmt             2   83[COMRAM] PTR const unsigned char 
  1876 ;;		 -> STR_9(3), STR_6(3), STR_3(3), 
  1877 ;;  ap              2   85[COMRAM] PTR PTR void 
  1878 ;;		 -> sprintf@ap(2), 
  1879 ;; Auto vars:     Size  Location     Type
  1880 ;;  cfmt            2   87[COMRAM] PTR unsigned char 
  1881 ;;		 -> STR_9(3), STR_6(3), STR_3(3), 
  1882 ;; Return value:  Size  Location     Type
  1883 ;;                  2   81[COMRAM] int 
  1884 ;; Registers used:
  1885 ;;		wreg, fsr1l, fsr1h, fsr2l, fsr2h, status,2, status,0, tblptrl, tblptrh, tblptru, cstack
  1886 ;; Tracked objects:
  1887 ;;		On entry : 0/0
  1888 ;;		On exit  : 0/0
  1889 ;;		Unchanged: 0/0
  1890 ;; Data sizes:     COMRAM   BANK0   BANK1   BANK2   BANK3   BANK4   BANK5   BANK6   BANK7
  1891 ;;      Params:         6       0       0       0       0       0       0       0       0
  1892 ;;      Locals:         2       0       0       0       0       0       0       0       0
  1893 ;;      Temps:          0       0       0       0       0       0       0       0       0
  1894 ;;      Totals:         8       0       0       0       0       0       0       0       0
  1895 ;;Total ram usage:        8 bytes
  1896 ;; Hardware stack levels used: 1
  1897 ;; Hardware stack levels required when called: 6
  1898 ;; This function calls:
  1899 ;;		_vfpfcnvrt
  1900 ;; This function is called by:
  1901 ;;		_sprintf
  1902 ;; This function uses a non-reentrant model
  1903 ;;
  1904                           
  1905                           	psect	text2
  1906  0034C4                     __ptext2:
  1907                           	callstack 0
  1908  0034C4                     _vfprintf:
  1909                           	callstack 23
  1910  0034C4                     
  1911                           ;D:\Program Files\Microchip\xc8\v2.36\pic\sources\c99\common\doprnt.c: 1390: int vfprint
      +                          f(FILE *fp, const char *fmt, va_list ap);D:\Program Files\Microchip\xc8\v2.36\pic\source
      +                          s\c99\common\doprnt.c: 1391: {;D:\Program Files\Microchip\xc8\v2.36\pic\sources\c99\comm
      +                          on\doprnt.c: 1393:     char *cfmt;;D:\Program Files\Microchip\xc8\v2.36\pic\sources\c99\
      +                          common\doprnt.c: 1395:     cfmt = (char *)fmt;
  1912  0034C4  C054  F058         	movff	vfprintf@fmt,vfprintf@cfmt
  1913  0034C8  C055  F059         	movff	vfprintf@fmt+1,vfprintf@cfmt+1
  1914  0034CC                     
  1915                           ;D:\Program Files\Microchip\xc8\v2.36\pic\sources\c99\common\doprnt.c: 1396:     nout = 
      +                          0;
  1916  0034CC  0E00               	movlw	0
  1917  0034CE  0100               	movlb	0	; () banked
  1918  0034D0  6F61               	movwf	(_nout+1)& (0+255),b
  1919  0034D2  0E00               	movlw	0
  1920  0034D4  6F60               	movwf	_nout& (0+255),b
  1921                           
  1922                           ;D:\Program Files\Microchip\xc8\v2.36\pic\sources\c99\common\doprnt.c: 1397:     while (
      +                          *cfmt) {
  1923  0034D6  EF80  F01A         	goto	l5339
  1924  0034DA                     l5337:
  1925                           
  1926                           ; BSR set to: 0
  1927                           ;D:\Program Files\Microchip\xc8\v2.36\pic\sources\c99\common\doprnt.c: 1398:         nou
      +                          t += vfpfcnvrt(fp, &cfmt, ap);
  1928  0034DA  C052  F03F         	movff	vfprintf@fp,vfpfcnvrt@fp
  1929  0034DE  C053  F040         	movff	vfprintf@fp+1,vfpfcnvrt@fp+1
  1930  0034E2  0E58               	movlw	low vfprintf@cfmt
  1931  0034E4  6E41               	movwf	vfpfcnvrt@fmt^0,c
  1932  0034E6  0E00               	movlw	high vfprintf@cfmt
  1933  0034E8  6E42               	movwf	(vfpfcnvrt@fmt+1)^0,c
  1934  0034EA  C056  F043         	movff	vfprintf@ap,vfpfcnvrt@ap
  1935  0034EE  C057  F044         	movff	vfprintf@ap+1,vfpfcnvrt@ap+1
  1936  0034F2  EC4D  F00F         	call	_vfpfcnvrt	;wreg free
  1937  0034F6  503F               	movf	?_vfpfcnvrt^0,w,c
  1938  0034F8  0100               	movlb	0	; () banked
  1939  0034FA  2760               	addwf	_nout& (0+255),f,b
  1940  0034FC  5040               	movf	(?_vfpfcnvrt+1)^0,w,c
  1941  0034FE  2361               	addwfc	(_nout+1)& (0+255),f,b
  1942  003500                     l5339:
  1943                           
  1944                           ; BSR set to: 0
  1945                           ;D:\Program Files\Microchip\xc8\v2.36\pic\sources\c99\common\doprnt.c: 1397:     while (
      +                          *cfmt) {
  1946  003500  C058  FFF6         	movff	vfprintf@cfmt,tblptrl
  1947  003504  C059  FFF7         	movff	vfprintf@cfmt+1,tblptrh
  1948  003508                     	if	0	;tblptru may be non-zero
  1949  003508                     	endif
  1950  003508                     	if	0	;tblptru may be non-zero
  1951  003508                     	endif
  1952  003508  0008               	tblrd		*
  1953  00350A  50F5               	movf	tablat,w,c
  1954  00350C  0900               	iorlw	0
  1955  00350E  A4D8               	btfss	status,2,c
  1956  003510  EF8C  F01A         	goto	u5431
  1957  003514  EF8E  F01A         	goto	u5430
  1958  003518                     u5431:
  1959  003518  EF6D  F01A         	goto	l5337
  1960  00351C                     u5430:
  1961  00351C                     
  1962                           ; BSR set to: 0
  1963                           ;D:\Program Files\Microchip\xc8\v2.36\pic\sources\c99\common\doprnt.c: 1400:     return 
      +                          nout;
  1964  00351C  C060  F052         	movff	_nout,?_vfprintf
  1965  003520  C061  F053         	movff	_nout+1,?_vfprintf+1
  1966  003524                     
  1967                           ; BSR set to: 0
  1968  003524  0012               	return		;funcret
  1969  003526                     __end_of_vfprintf:
  1970                           	callstack 0
  1971                           
  1972 ;; *************** function _vfpfcnvrt *****************
  1973 ;; Defined at:
  1974 ;;		line 692 in file "D:\Program Files\Microchip\xc8\v2.36\pic\sources\c99\common\doprnt.c"
  1975 ;; Parameters:    Size  Location     Type
  1976 ;;  fp              2   62[COMRAM] PTR struct _IO_FILE
  1977 ;;		 -> sprintf@f(11), 
  1978 ;;  fmt             2   64[COMRAM] PTR PTR unsigned char 
  1979 ;;		 -> vfprintf@cfmt(2), 
  1980 ;;  ap              2   66[COMRAM] PTR PTR void 
  1981 ;;		 -> sprintf@ap(2), 
  1982 ;; Auto vars:     Size  Location     Type
  1983 ;;  llu             8   72[COMRAM] unsigned long long 
  1984 ;;  ll              8    0        long long 
  1985 ;;  f               4    0        long long 
  1986 ;;  vp              3    0        PTR void 
  1987 ;;  ct              3    0        unsigned char [3]
  1988 ;;  cp              3    0        PTR unsigned char 
  1989 ;;  i               2    0        int 
  1990 ;;  done            2    0        int 
  1991 ;;  c               1   80[COMRAM] unsigned char 
  1992 ;; Return value:  Size  Location     Type
  1993 ;;                  2   62[COMRAM] int 
  1994 ;; Registers used:
  1995 ;;		wreg, fsr1l, fsr1h, fsr2l, fsr2h, status,2, status,0, tblptrl, tblptrh, tblptru, cstack
  1996 ;; Tracked objects:
  1997 ;;		On entry : 0/0
  1998 ;;		On exit  : 0/0
  1999 ;;		Unchanged: 0/0
  2000 ;; Data sizes:     COMRAM   BANK0   BANK1   BANK2   BANK3   BANK4   BANK5   BANK6   BANK7
  2001 ;;      Params:         6       0       0       0       0       0       0       0       0
  2002 ;;      Locals:         9       0       0       0       0       0       0       0       0
  2003 ;;      Temps:          4       0       0       0       0       0       0       0       0
  2004 ;;      Totals:        19       0       0       0       0       0       0       0       0
  2005 ;;Total ram usage:       19 bytes
  2006 ;; Hardware stack levels used: 1
  2007 ;; Hardware stack levels required when called: 5
  2008 ;; This function calls:
  2009 ;;		_fputc
  2010 ;;		_xtoa
  2011 ;; This function is called by:
  2012 ;;		_vfprintf
  2013 ;; This function uses a non-reentrant model
  2014 ;;
  2015                           
  2016                           	psect	text3
  2017  001E9A                     __ptext3:
  2018                           	callstack 0
  2019  001E9A                     _vfpfcnvrt:
  2020                           	callstack 23
  2021  001E9A                     
  2022                           ;D:\Program Files\Microchip\xc8\v2.36\pic\sources\c99\common\doprnt.c: 692: static int v
      +                          fpfcnvrt(FILE *fp, char *fmt[], va_list ap);D:\Program Files\Microchip\xc8\v2.36\pic\sou
      +                          rces\c99\common\doprnt.c: 693: {;D:\Program Files\Microchip\xc8\v2.36\pic\sources\c99\co
      +                          mmon\doprnt.c: 694:     char c, *cp, ct[3];;D:\Program Files\Microchip\xc8\v2.36\pic\sou
      +                          rces\c99\common\doprnt.c: 695:     int done, i;;D:\Program Files\Microchip\xc8\v2.36\pic
      +                          \sources\c99\common\doprnt.c: 696:     long long ll;;D:\Program Files\Microchip\xc8\v2.3
      +                          6\pic\sources\c99\common\doprnt.c: 697:     unsigned long long llu;
  2023  001E9A  C041  FFD9         	movff	vfpfcnvrt@fmt,fsr2l
  2024  001E9E  C042  FFDA         	movff	vfpfcnvrt@fmt+1,fsr2h
  2025  001EA2  CFDE FFF6          	movff	postinc2,tblptrl
  2026  001EA6  CFDD FFF7          	movff	postdec2,tblptrh
  2027  001EAA                     	if	0	;tblptru may be non-zero
  2028  001EAA                     	endif
  2029  001EAA                     	if	0	;tblptru may be non-zero
  2030  001EAA                     	endif
  2031  001EAA  0008               	tblrd		*
  2032  001EAC  50F5               	movf	tablat,w,c
  2033  001EAE  0A25               	xorlw	37
  2034  001EB0  A4D8               	btfss	status,2,c
  2035  001EB2  EF5D  F00F         	goto	u4181
  2036  001EB6  EF5F  F00F         	goto	u4180
  2037  001EBA                     u4181:
  2038  001EBA  EF19  F010         	goto	l4507
  2039  001EBE                     u4180:
  2040  001EBE                     
  2041                           ;D:\Program Files\Microchip\xc8\v2.36\pic\sources\c99\common\doprnt.c: 703:         ++*f
      +                          mt;
  2042  001EBE  C041  FFD9         	movff	vfpfcnvrt@fmt,fsr2l
  2043  001EC2  C042  FFDA         	movff	vfpfcnvrt@fmt+1,fsr2h
  2044  001EC6  2ADE               	incf	postinc2,f,c
  2045  001EC8  0E00               	movlw	0
  2046  001ECA  22DD               	addwfc	postdec2,f,c
  2047  001ECC                     
  2048                           ;D:\Program Files\Microchip\xc8\v2.36\pic\sources\c99\common\doprnt.c: 705:         flag
      +                          s = width = 0;
  2049  001ECC  0E00               	movlw	0
  2050  001ECE  0100               	movlb	0	; () banked
  2051  001ED0  6F63               	movwf	(_width+1)& (0+255),b
  2052  001ED2  0E00               	movlw	0
  2053  001ED4  6F62               	movwf	_width& (0+255),b
  2054  001ED6  C062  F066         	movff	_width,_flags
  2055  001EDA  C063  F067         	movff	_width+1,_flags+1
  2056  001EDE                     
  2057                           ; BSR set to: 0
  2058                           ;D:\Program Files\Microchip\xc8\v2.36\pic\sources\c99\common\doprnt.c: 706:         prec
      +                           = -1;
  2059  001EDE  6964               	setf	_prec& (0+255),b
  2060  001EE0  6965               	setf	(_prec+1)& (0+255),b
  2061  001EE2                     
  2062                           ; BSR set to: 0
  2063                           ;D:\Program Files\Microchip\xc8\v2.36\pic\sources\c99\common\doprnt.c: 1296:         if 
      +                          ((*fmt[0] == 'x') || (*fmt[0] == 'X')) {
  2064  001EE2  C041  FFD9         	movff	vfpfcnvrt@fmt,fsr2l
  2065  001EE6  C042  FFDA         	movff	vfpfcnvrt@fmt+1,fsr2h
  2066  001EEA  CFDE FFF6          	movff	postinc2,tblptrl
  2067  001EEE  CFDD FFF7          	movff	postdec2,tblptrh
  2068  001EF2                     	if	0	;tblptru may be non-zero
  2069  001EF2                     	endif
  2070  001EF2                     	if	0	;tblptru may be non-zero
  2071  001EF2                     	endif
  2072  001EF2  0008               	tblrd		*
  2073  001EF4  50F5               	movf	tablat,w,c
  2074  001EF6  0A78               	xorlw	120
  2075  001EF8  B4D8               	btfsc	status,2,c
  2076  001EFA  EF81  F00F         	goto	u4191
  2077  001EFE  EF83  F00F         	goto	u4190
  2078  001F02                     u4191:
  2079  001F02  EF95  F00F         	goto	l4481
  2080  001F06                     u4190:
  2081  001F06                     
  2082                           ; BSR set to: 0
  2083  001F06  C041  FFD9         	movff	vfpfcnvrt@fmt,fsr2l
  2084  001F0A  C042  FFDA         	movff	vfpfcnvrt@fmt+1,fsr2h
  2085  001F0E  CFDE FFF6          	movff	postinc2,tblptrl
  2086  001F12  CFDD FFF7          	movff	postdec2,tblptrh
  2087  001F16                     	if	0	;tblptru may be non-zero
  2088  001F16                     	endif
  2089  001F16                     	if	0	;tblptru may be non-zero
  2090  001F16                     	endif
  2091  001F16  0008               	tblrd		*
  2092  001F18  50F5               	movf	tablat,w,c
  2093  001F1A  0A58               	xorlw	88
  2094  001F1C  A4D8               	btfss	status,2,c
  2095  001F1E  EF93  F00F         	goto	u4201
  2096  001F22  EF95  F00F         	goto	u4200
  2097  001F26                     u4201:
  2098  001F26  EFE3  F00F         	goto	l4491
  2099  001F2A                     u4200:
  2100  001F2A                     l4481:
  2101                           
  2102                           ; BSR set to: 0
  2103                           ;D:\Program Files\Microchip\xc8\v2.36\pic\sources\c99\common\doprnt.c: 1298:            
      +                           c = (*fmt)[0];
  2104  001F2A  C041  FFD9         	movff	vfpfcnvrt@fmt,fsr2l
  2105  001F2E  C042  FFDA         	movff	vfpfcnvrt@fmt+1,fsr2h
  2106  001F32  CFDE FFF6          	movff	postinc2,tblptrl
  2107  001F36  CFDD FFF7          	movff	postdec2,tblptrh
  2108  001F3A                     	if	0	;tblptru may be non-zero
  2109  001F3A                     	endif
  2110  001F3A                     	if	0	;tblptru may be non-zero
  2111  001F3A                     	endif
  2112  001F3A  0008               	tblrd		*
  2113  001F3C  CFF5 F051          	movff	tablat,vfpfcnvrt@c
  2114  001F40                     
  2115                           ; BSR set to: 0
  2116                           ;D:\Program Files\Microchip\xc8\v2.36\pic\sources\c99\common\doprnt.c: 1299:            
      +                           ++*fmt;
  2117  001F40  C041  FFD9         	movff	vfpfcnvrt@fmt,fsr2l
  2118  001F44  C042  FFDA         	movff	vfpfcnvrt@fmt+1,fsr2h
  2119  001F48  2ADE               	incf	postinc2,f,c
  2120  001F4A  0E00               	movlw	0
  2121  001F4C  22DD               	addwfc	postdec2,f,c
  2122  001F4E                     
  2123                           ; BSR set to: 0
  2124                           ;D:\Program Files\Microchip\xc8\v2.36\pic\sources\c99\common\doprnt.c: 1300:            
      +                           llu = (unsigned long long)(*(unsigned int *)__va_arg(*(unsigned int **)ap, (unsigned in
      +                          t)0));
  2125  001F4E  C043  FFD9         	movff	vfpfcnvrt@ap,fsr2l
  2126  001F52  C044  FFDA         	movff	vfpfcnvrt@ap+1,fsr2h
  2127  001F56  CFDF F045          	movff	indf2,??_vfpfcnvrt
  2128  001F5A  0E02               	movlw	2
  2129  001F5C  26DE               	addwf	postinc2,f,c
  2130  001F5E  CFDF F046          	movff	indf2,??_vfpfcnvrt+1
  2131  001F62  0E00               	movlw	0
  2132  001F64  22DD               	addwfc	postdec2,f,c
  2133  001F66  C045  FFD9         	movff	??_vfpfcnvrt,fsr2l
  2134  001F6A  C046  FFDA         	movff	??_vfpfcnvrt+1,fsr2h
  2135  001F6E  CFDE F047          	movff	postinc2,??_vfpfcnvrt+2
  2136  001F72  CFDD F048          	movff	postdec2,??_vfpfcnvrt+3
  2137  001F76  C047  F049         	movff	??_vfpfcnvrt+2,vfpfcnvrt@llu
  2138  001F7A  C048  F04A         	movff	??_vfpfcnvrt+3,vfpfcnvrt@llu+1
  2139  001F7E  6A4B               	clrf	(vfpfcnvrt@llu+2)^0,c
  2140  001F80  6A4C               	clrf	(vfpfcnvrt@llu+3)^0,c
  2141  001F82  6A4D               	clrf	(vfpfcnvrt@llu+4)^0,c
  2142  001F84  6A4E               	clrf	(vfpfcnvrt@llu+5)^0,c
  2143  001F86  6A4F               	clrf	(vfpfcnvrt@llu+6)^0,c
  2144  001F88  6A50               	clrf	(vfpfcnvrt@llu+7)^0,c
  2145  001F8A                     
  2146                           ; BSR set to: 0
  2147                           ;D:\Program Files\Microchip\xc8\v2.36\pic\sources\c99\common\doprnt.c: 1302:            
      +                           return xtoa(fp, llu, c);
  2148  001F8A  C03F  F01C         	movff	vfpfcnvrt@fp,xtoa@fp
  2149  001F8E  C040  F01D         	movff	vfpfcnvrt@fp+1,xtoa@fp+1
  2150  001F92  C049  F01E         	movff	vfpfcnvrt@llu,xtoa@d
  2151  001F96  C04A  F01F         	movff	vfpfcnvrt@llu+1,xtoa@d+1
  2152  001F9A  C04B  F020         	movff	vfpfcnvrt@llu+2,xtoa@d+2
  2153  001F9E  C04C  F021         	movff	vfpfcnvrt@llu+3,xtoa@d+3
  2154  001FA2  C04D  F022         	movff	vfpfcnvrt@llu+4,xtoa@d+4
  2155  001FA6  C04E  F023         	movff	vfpfcnvrt@llu+5,xtoa@d+5
  2156  001FAA  C04F  F024         	movff	vfpfcnvrt@llu+6,xtoa@d+6
  2157  001FAE  C050  F025         	movff	vfpfcnvrt@llu+7,xtoa@d+7
  2158  001FB2  C051  F026         	movff	vfpfcnvrt@c,xtoa@x
  2159  001FB6  EC26  F00A         	call	_xtoa	;wreg free
  2160  001FBA  C01C  F03F         	movff	?_xtoa,?_vfpfcnvrt
  2161  001FBE  C01D  F040         	movff	?_xtoa+1,?_vfpfcnvrt+1
  2162  001FC2  EF34  F010         	goto	l1420
  2163  001FC6                     l4491:
  2164                           
  2165                           ; BSR set to: 0
  2166                           ;D:\Program Files\Microchip\xc8\v2.36\pic\sources\c99\common\doprnt.c: 1372:         if 
      +                          ((*fmt)[0] == '%') {
  2167  001FC6  C041  FFD9         	movff	vfpfcnvrt@fmt,fsr2l
  2168  001FCA  C042  FFDA         	movff	vfpfcnvrt@fmt+1,fsr2h
  2169  001FCE  CFDE FFF6          	movff	postinc2,tblptrl
  2170  001FD2  CFDD FFF7          	movff	postdec2,tblptrh
  2171  001FD6                     	if	0	;tblptru may be non-zero
  2172  001FD6                     	endif
  2173  001FD6                     	if	0	;tblptru may be non-zero
  2174  001FD6                     	endif
  2175  001FD6  0008               	tblrd		*
  2176  001FD8  50F5               	movf	tablat,w,c
  2177  001FDA  0A25               	xorlw	37
  2178  001FDC  A4D8               	btfss	status,2,c
  2179  001FDE  EFF3  F00F         	goto	u4211
  2180  001FE2  EFF5  F00F         	goto	u4210
  2181  001FE6                     u4211:
  2182  001FE6  EF0C  F010         	goto	l4501
  2183  001FEA                     u4210:
  2184  001FEA                     
  2185                           ; BSR set to: 0
  2186                           ;D:\Program Files\Microchip\xc8\v2.36\pic\sources\c99\common\doprnt.c: 1373:            
      +                           ++*fmt;
  2187  001FEA  C041  FFD9         	movff	vfpfcnvrt@fmt,fsr2l
  2188  001FEE  C042  FFDA         	movff	vfpfcnvrt@fmt+1,fsr2h
  2189  001FF2  2ADE               	incf	postinc2,f,c
  2190  001FF4  0E00               	movlw	0
  2191  001FF6  22DD               	addwfc	postdec2,f,c
  2192  001FF8                     
  2193                           ; BSR set to: 0
  2194                           ;D:\Program Files\Microchip\xc8\v2.36\pic\sources\c99\common\doprnt.c: 1374:            
      +                           fputc((int)'%', fp);
  2195  001FF8  0E00               	movlw	0
  2196  001FFA  6E02               	movwf	(fputc@c+1)^0,c
  2197  001FFC  0E25               	movlw	37
  2198  001FFE  6E01               	movwf	fputc@c^0,c
  2199  002000  C03F  F003         	movff	vfpfcnvrt@fp,fputc@fp
  2200  002004  C040  F004         	movff	vfpfcnvrt@fp+1,fputc@fp+1
  2201  002008  ECA3  F012         	call	_fputc	;wreg free
  2202  00200C                     l4497:
  2203                           
  2204                           ;D:\Program Files\Microchip\xc8\v2.36\pic\sources\c99\common\doprnt.c: 1375:            
      +                           return 1;
  2205  00200C  0E00               	movlw	0
  2206  00200E  6E40               	movwf	(?_vfpfcnvrt+1)^0,c
  2207  002010  0E01               	movlw	1
  2208  002012  6E3F               	movwf	?_vfpfcnvrt^0,c
  2209  002014  EF34  F010         	goto	l1420
  2210  002018                     l4501:
  2211                           
  2212                           ; BSR set to: 0
  2213                           ;D:\Program Files\Microchip\xc8\v2.36\pic\sources\c99\common\doprnt.c: 1379:         ++*
      +                          fmt;
  2214  002018  C041  FFD9         	movff	vfpfcnvrt@fmt,fsr2l
  2215  00201C  C042  FFDA         	movff	vfpfcnvrt@fmt+1,fsr2h
  2216  002020  2ADE               	incf	postinc2,f,c
  2217  002022  0E00               	movlw	0
  2218  002024  22DD               	addwfc	postdec2,f,c
  2219  002026                     
  2220                           ; BSR set to: 0
  2221                           ;D:\Program Files\Microchip\xc8\v2.36\pic\sources\c99\common\doprnt.c: 1380:         ret
      +                          urn 0;
  2222  002026  0E00               	movlw	0
  2223  002028  6E40               	movwf	(?_vfpfcnvrt+1)^0,c
  2224  00202A  0E00               	movlw	0
  2225  00202C  6E3F               	movwf	?_vfpfcnvrt^0,c
  2226  00202E  EF34  F010         	goto	l1420
  2227  002032                     l4507:
  2228                           
  2229                           ;D:\Program Files\Microchip\xc8\v2.36\pic\sources\c99\common\doprnt.c: 1384:     fputc((
      +                          int)(*fmt)[0], fp);
  2230  002032  C041  FFD9         	movff	vfpfcnvrt@fmt,fsr2l
  2231  002036  C042  FFDA         	movff	vfpfcnvrt@fmt+1,fsr2h
  2232  00203A  CFDE FFF6          	movff	postinc2,tblptrl
  2233  00203E  CFDD FFF7          	movff	postdec2,tblptrh
  2234  002042                     	if	0	;tblptru may be non-zero
  2235  002042                     	endif
  2236  002042                     	if	0	;tblptru may be non-zero
  2237  002042                     	endif
  2238  002042  0008               	tblrd		*
  2239  002044  50F5               	movf	tablat,w,c
  2240  002046  6E01               	movwf	fputc@c^0,c
  2241  002048  6A02               	clrf	(fputc@c+1)^0,c
  2242  00204A  C03F  F003         	movff	vfpfcnvrt@fp,fputc@fp
  2243  00204E  C040  F004         	movff	vfpfcnvrt@fp+1,fputc@fp+1
  2244  002052  ECA3  F012         	call	_fputc	;wreg free
  2245  002056                     
  2246                           ;D:\Program Files\Microchip\xc8\v2.36\pic\sources\c99\common\doprnt.c: 1385:     ++*fmt;
  2247  002056  C041  FFD9         	movff	vfpfcnvrt@fmt,fsr2l
  2248  00205A  C042  FFDA         	movff	vfpfcnvrt@fmt+1,fsr2h
  2249  00205E  2ADE               	incf	postinc2,f,c
  2250  002060  0E00               	movlw	0
  2251  002062  22DD               	addwfc	postdec2,f,c
  2252  002064  EF06  F010         	goto	l4497
  2253  002068                     l1420:
  2254  002068  0012               	return		;funcret
  2255  00206A                     __end_of_vfpfcnvrt:
  2256                           	callstack 0
  2257                           
  2258 ;; *************** function _xtoa *****************
  2259 ;; Defined at:
  2260 ;;		line 645 in file "D:\Program Files\Microchip\xc8\v2.36\pic\sources\c99\common\doprnt.c"
  2261 ;; Parameters:    Size  Location     Type
  2262 ;;  fp              2   27[COMRAM] PTR struct _IO_FILE
  2263 ;;		 -> sprintf@f(11), 
  2264 ;;  d               8   29[COMRAM] unsigned long long 
  2265 ;;  x               1   37[COMRAM] unsigned char 
  2266 ;; Auto vars:     Size  Location     Type
  2267 ;;  n               8   50[COMRAM] unsigned long long 
  2268 ;;  c               2   60[COMRAM] int 
  2269 ;;  i               2   58[COMRAM] int 
  2270 ;;  w               2   48[COMRAM] int 
  2271 ;;  p               2   46[COMRAM] int 
  2272 ;; Return value:  Size  Location     Type
  2273 ;;                  2   27[COMRAM] int 
  2274 ;; Registers used:
  2275 ;;		wreg, fsr1l, fsr1h, fsr2l, fsr2h, status,2, status,0, tblptrl, tblptrh, tblptru, cstack
  2276 ;; Tracked objects:
  2277 ;;		On entry : 0/0
  2278 ;;		On exit  : 0/0
  2279 ;;		Unchanged: 0/0
  2280 ;; Data sizes:     COMRAM   BANK0   BANK1   BANK2   BANK3   BANK4   BANK5   BANK6   BANK7
  2281 ;;      Params:        11       0       0       0       0       0       0       0       0
  2282 ;;      Locals:        16       0       0       0       0       0       0       0       0
  2283 ;;      Temps:          8       0       0       0       0       0       0       0       0
  2284 ;;      Totals:        35       0       0       0       0       0       0       0       0
  2285 ;;Total ram usage:       35 bytes
  2286 ;; Hardware stack levels used: 1
  2287 ;; Hardware stack levels required when called: 4
  2288 ;; This function calls:
  2289 ;;		_isalpha
  2290 ;;		_isupper
  2291 ;;		_pad
  2292 ;;		_toupper
  2293 ;; This function is called by:
  2294 ;;		_vfpfcnvrt
  2295 ;; This function uses a non-reentrant model
  2296 ;;
  2297                           
  2298                           	psect	text4
  2299  00144C                     __ptext4:
  2300                           	callstack 0
  2301  00144C                     _xtoa:
  2302                           	callstack 23
  2303  00144C                     
  2304                           ;D:\Program Files\Microchip\xc8\v2.36\pic\sources\c99\common\doprnt.c: 645: static int x
      +                          toa(FILE *fp, unsigned long long d, char x);D:\Program Files\Microchip\xc8\v2.36\pic\sou
      +                          rces\c99\common\doprnt.c: 646: {;D:\Program Files\Microchip\xc8\v2.36\pic\sources\c99\co
      +                          mmon\doprnt.c: 647:     int c, i, p, w;;D:\Program Files\Microchip\xc8\v2.36\pic\sources
      +                          \c99\common\doprnt.c: 648:     unsigned long long n;;D:\Program Files\Microchip\xc8\v2.3
      +                          6\pic\sources\c99\common\doprnt.c: 651:     if (!(prec < 0)) {
  2305  00144C  0100               	movlb	0	; () banked
  2306  00144E  BF65               	btfsc	(_prec+1)& (0+255),7,b
  2307  001450  EF2C  F00A         	goto	u3661
  2308  001454  EF2E  F00A         	goto	u3660
  2309  001458                     u3661:
  2310  001458  EF2F  F00A         	goto	l4135
  2311  00145C                     u3660:
  2312  00145C                     
  2313                           ; BSR set to: 0
  2314                           ;D:\Program Files\Microchip\xc8\v2.36\pic\sources\c99\common\doprnt.c: 652:         flag
      +                          s &= ~(1 << 1);
  2315  00145C  9366               	bcf	_flags& (0+255),1,b
  2316  00145E                     l4135:
  2317                           
  2318                           ; BSR set to: 0
  2319                           ;D:\Program Files\Microchip\xc8\v2.36\pic\sources\c99\common\doprnt.c: 654:     p = (0 <
      +                           prec) ? prec : 1;
  2320  00145E  BF65               	btfsc	(_prec+1)& (0+255),7,b
  2321  001460  EF3C  F00A         	goto	u3670
  2322  001464  5165               	movf	(_prec+1)& (0+255),w,b
  2323  001466  E106               	bnz	u3671
  2324  001468  0564               	decf	_prec& (0+255),w,b
  2325  00146A  B0D8               	btfsc	status,0,c
  2326  00146C  EF3A  F00A         	goto	u3671
  2327  001470  EF3C  F00A         	goto	u3670
  2328  001474                     u3671:
  2329  001474  EF42  F00A         	goto	l1392
  2330  001478                     u3670:
  2331  001478                     
  2332                           ; BSR set to: 0
  2333  001478  0E00               	movlw	0
  2334  00147A  6E30               	movwf	(xtoa@p+1)^0,c
  2335  00147C  0E01               	movlw	1
  2336  00147E  6E2F               	movwf	xtoa@p^0,c
  2337  001480  EF46  F00A         	goto	l1394
  2338  001484                     l1392:
  2339                           
  2340                           ; BSR set to: 0
  2341  001484  C064  F02F         	movff	_prec,xtoa@p
  2342  001488  C065  F030         	movff	_prec+1,xtoa@p+1
  2343  00148C                     l1394:
  2344                           
  2345                           ; BSR set to: 0
  2346                           ;D:\Program Files\Microchip\xc8\v2.36\pic\sources\c99\common\doprnt.c: 655:     w = widt
      +                          h;
  2347  00148C  C062  F031         	movff	_width,xtoa@w
  2348  001490  C063  F032         	movff	_width+1,xtoa@w+1
  2349                           
  2350                           ;D:\Program Files\Microchip\xc8\v2.36\pic\sources\c99\common\doprnt.c: 656:     if (flag
      +                          s & (1 << 4)) {
  2351  001494  A966               	btfss	_flags& (0+255),4,b
  2352  001496  EF4F  F00A         	goto	u3681
  2353  00149A  EF51  F00A         	goto	u3680
  2354  00149E                     u3681:
  2355  00149E  EF55  F00A         	goto	l4141
  2356  0014A2                     u3680:
  2357  0014A2                     
  2358                           ; BSR set to: 0
  2359                           ;D:\Program Files\Microchip\xc8\v2.36\pic\sources\c99\common\doprnt.c: 657:         w -=
      +                           2;
  2360  0014A2  0EFE               	movlw	254
  2361  0014A4  2631               	addwf	xtoa@w^0,f,c
  2362  0014A6  0EFF               	movlw	255
  2363  0014A8  2232               	addwfc	(xtoa@w+1)^0,f,c
  2364  0014AA                     l4141:
  2365                           
  2366                           ; BSR set to: 0
  2367                           ;D:\Program Files\Microchip\xc8\v2.36\pic\sources\c99\common\doprnt.c: 661:     n = d;
  2368  0014AA  C01E  F033         	movff	xtoa@d,xtoa@n
  2369  0014AE  C01F  F034         	movff	xtoa@d+1,xtoa@n+1
  2370  0014B2  C020  F035         	movff	xtoa@d+2,xtoa@n+2
  2371  0014B6  C021  F036         	movff	xtoa@d+3,xtoa@n+3
  2372  0014BA  C022  F037         	movff	xtoa@d+4,xtoa@n+4
  2373  0014BE  C023  F038         	movff	xtoa@d+5,xtoa@n+5
  2374  0014C2  C024  F039         	movff	xtoa@d+6,xtoa@n+6
  2375  0014C6  C025  F03A         	movff	xtoa@d+7,xtoa@n+7
  2376  0014CA                     
  2377                           ; BSR set to: 0
  2378                           ;D:\Program Files\Microchip\xc8\v2.36\pic\sources\c99\common\doprnt.c: 662:     i = size
      +                          of(dbuf) - 1;
  2379  0014CA  0E00               	movlw	0
  2380  0014CC  6E3C               	movwf	(xtoa@i+1)^0,c
  2381  0014CE  0E1F               	movlw	31
  2382  0014D0  6E3B               	movwf	xtoa@i^0,c
  2383  0014D2                     
  2384                           ; BSR set to: 0
  2385                           ;D:\Program Files\Microchip\xc8\v2.36\pic\sources\c99\common\doprnt.c: 663:     dbuf[i] 
      +                          = '\0';
  2386  0014D2  0E00               	movlw	0
  2387  0014D4  6F8C               	movwf	(_dbuf+31)& (0+255),b
  2388                           
  2389                           ;D:\Program Files\Microchip\xc8\v2.36\pic\sources\c99\common\doprnt.c: 664:     while (!
      +                          (i < 2) && (n || (0 < p) || ((0 < w) && (flags & (1 << 1))))) {
  2390  0014D6  EF06  F00B         	goto	l4177
  2391  0014DA                     l4147:
  2392                           
  2393                           ;D:\Program Files\Microchip\xc8\v2.36\pic\sources\c99\common\doprnt.c: 665:         --i;
  2394  0014DA  063B               	decf	xtoa@i^0,f,c
  2395  0014DC  A0D8               	btfss	status,0,c
  2396  0014DE  063C               	decf	(xtoa@i+1)^0,f,c
  2397  0014E0                     
  2398                           ;D:\Program Files\Microchip\xc8\v2.36\pic\sources\c99\common\doprnt.c: 666:         c = 
      +                          n & 0x0f;
  2399  0014E0  0E0F               	movlw	15
  2400  0014E2  1433               	andwf	xtoa@n^0,w,c
  2401  0014E4  6E3D               	movwf	xtoa@c^0,c
  2402  0014E6  6A3E               	clrf	(xtoa@c+1)^0,c
  2403  0014E8                     
  2404                           ;D:\Program Files\Microchip\xc8\v2.36\pic\sources\c99\common\doprnt.c: 667:         c = 
      +                          (c < 10) ? (int)'0' + c : (int)'a' + (c - 10);
  2405  0014E8  BE3E               	btfsc	(xtoa@c+1)^0,7,c
  2406  0014EA  EF80  F00A         	goto	u3691
  2407  0014EE  503E               	movf	(xtoa@c+1)^0,w,c
  2408  0014F0  E109               	bnz	u3690
  2409  0014F2  0E0A               	movlw	10
  2410  0014F4  5C3D               	subwf	xtoa@c^0,w,c
  2411  0014F6  A0D8               	btfss	status,0,c
  2412  0014F8  EF80  F00A         	goto	u3691
  2413  0014FC  EF82  F00A         	goto	u3690
  2414  001500                     u3691:
  2415  001500  EF8A  F00A         	goto	l4155
  2416  001504                     u3690:
  2417  001504  0E57               	movlw	87
  2418  001506  243D               	addwf	xtoa@c^0,w,c
  2419  001508  6E3D               	movwf	xtoa@c^0,c
  2420  00150A  0E00               	movlw	0
  2421  00150C  203E               	addwfc	(xtoa@c+1)^0,w,c
  2422  00150E  6E3E               	movwf	(xtoa@c+1)^0,c
  2423  001510  EF90  F00A         	goto	l4159
  2424  001514                     l4155:
  2425  001514  0E30               	movlw	48
  2426  001516  243D               	addwf	xtoa@c^0,w,c
  2427  001518  6E3D               	movwf	xtoa@c^0,c
  2428  00151A  0E00               	movlw	0
  2429  00151C  203E               	addwfc	(xtoa@c+1)^0,w,c
  2430  00151E  6E3E               	movwf	(xtoa@c+1)^0,c
  2431  001520                     l4159:
  2432  001520  0EBF               	movlw	191
  2433  001522  6E27               	movwf	??_xtoa^0,c
  2434  001524  0EFF               	movlw	255
  2435  001526  6E28               	movwf	(??_xtoa+1)^0,c
  2436  001528  5026               	movf	xtoa@x^0,w,c
  2437  00152A  6E29               	movwf	(??_xtoa+2)^0,c
  2438  00152C  6A2A               	clrf	(??_xtoa+3)^0,c
  2439  00152E  5027               	movf	??_xtoa^0,w,c
  2440  001530  2629               	addwf	(??_xtoa+2)^0,f,c
  2441  001532  5028               	movf	(??_xtoa+1)^0,w,c
  2442  001534  222A               	addwfc	(??_xtoa+3)^0,f,c
  2443  001536  502A               	movf	(??_xtoa+3)^0,w,c
  2444  001538  E107               	bnz	u3701
  2445  00153A  0E1A               	movlw	26
  2446  00153C  5C29               	subwf	(??_xtoa+2)^0,w,c
  2447  00153E  B0D8               	btfsc	status,0,c
  2448  001540  EFA4  F00A         	goto	u3701
  2449  001544  EFA6  F00A         	goto	u3700
  2450  001548                     u3701:
  2451  001548  EFC9  F00A         	goto	l4169
  2452  00154C                     u3700:
  2453  00154C  0E9F               	movlw	159
  2454  00154E  6E27               	movwf	??_xtoa^0,c
  2455  001550  0EFF               	movlw	255
  2456  001552  6E28               	movwf	(??_xtoa+1)^0,c
  2457  001554  0E20               	movlw	32
  2458  001556  103D               	iorwf	xtoa@c^0,w,c
  2459  001558  6E29               	movwf	(??_xtoa+2)^0,c
  2460  00155A  0E00               	movlw	0
  2461  00155C  103E               	iorwf	(xtoa@c+1)^0,w,c
  2462  00155E  6E2A               	movwf	(??_xtoa+3)^0,c
  2463  001560  5027               	movf	??_xtoa^0,w,c
  2464  001562  2629               	addwf	(??_xtoa+2)^0,f,c
  2465  001564  5028               	movf	(??_xtoa+1)^0,w,c
  2466  001566  222A               	addwfc	(??_xtoa+3)^0,f,c
  2467  001568  502A               	movf	(??_xtoa+3)^0,w,c
  2468  00156A  E107               	bnz	u3711
  2469  00156C  0E1A               	movlw	26
  2470  00156E  5C29               	subwf	(??_xtoa+2)^0,w,c
  2471  001570  B0D8               	btfsc	status,0,c
  2472  001572  EFBD  F00A         	goto	u3711
  2473  001576  EFBF  F00A         	goto	u3710
  2474  00157A                     u3711:
  2475  00157A  EFC9  F00A         	goto	l4169
  2476  00157E                     u3710:
  2477  00157E                     
  2478                           ;D:\Program Files\Microchip\xc8\v2.36\pic\sources\c99\common\doprnt.c: 669:             
      +                          c = toupper(c);
  2479  00157E  C03D  F007         	movff	xtoa@c,toupper@c
  2480  001582  C03E  F008         	movff	xtoa@c+1,toupper@c+1
  2481  001586  ECE5  F01B         	call	_toupper	;wreg free
  2482  00158A  C007  F03D         	movff	?_toupper,xtoa@c
  2483  00158E  C008  F03E         	movff	?_toupper+1,xtoa@c+1
  2484  001592                     l4169:
  2485                           
  2486                           ;D:\Program Files\Microchip\xc8\v2.36\pic\sources\c99\common\doprnt.c: 671:         dbuf
      +                          [i] = (char)c;
  2487  001592  0E6D               	movlw	low _dbuf
  2488  001594  243B               	addwf	xtoa@i^0,w,c
  2489  001596  6ED9               	movwf	fsr2l,c
  2490  001598  0E00               	movlw	high _dbuf
  2491  00159A  203C               	addwfc	(xtoa@i+1)^0,w,c
  2492  00159C  6EDA               	movwf	fsr2h,c
  2493  00159E  C03D  FFDF         	movff	xtoa@c,indf2
  2494  0015A2                     
  2495                           ;D:\Program Files\Microchip\xc8\v2.36\pic\sources\c99\common\doprnt.c: 672:         --p;
  2496  0015A2  062F               	decf	xtoa@p^0,f,c
  2497  0015A4  A0D8               	btfss	status,0,c
  2498  0015A6  0630               	decf	(xtoa@p+1)^0,f,c
  2499  0015A8                     
  2500                           ;D:\Program Files\Microchip\xc8\v2.36\pic\sources\c99\common\doprnt.c: 673:         --w;
  2501  0015A8  0631               	decf	xtoa@w^0,f,c
  2502  0015AA  A0D8               	btfss	status,0,c
  2503  0015AC  0632               	decf	(xtoa@w+1)^0,f,c
  2504  0015AE                     
  2505                           ;D:\Program Files\Microchip\xc8\v2.36\pic\sources\c99\common\doprnt.c: 674:         n = 
      +                          n >> 4;
  2506  0015AE  C033  F027         	movff	xtoa@n,??_xtoa
  2507  0015B2  C034  F028         	movff	xtoa@n+1,??_xtoa+1
  2508  0015B6  C035  F029         	movff	xtoa@n+2,??_xtoa+2
  2509  0015BA  C036  F02A         	movff	xtoa@n+3,??_xtoa+3
  2510  0015BE  C037  F02B         	movff	xtoa@n+4,??_xtoa+4
  2511  0015C2  C038  F02C         	movff	xtoa@n+5,??_xtoa+5
  2512  0015C6  C039  F02D         	movff	xtoa@n+6,??_xtoa+6
  2513  0015CA  C03A  F02E         	movff	xtoa@n+7,??_xtoa+7
  2514  0015CE  0E05               	movlw	5
  2515  0015D0  EFF3  F00A         	goto	u3720
  2516  0015D4                     u3725:
  2517  0015D4  90D8               	bcf	status,0,c
  2518  0015D6  322E               	rrcf	(??_xtoa+7)^0,f,c
  2519  0015D8  322D               	rrcf	(??_xtoa+6)^0,f,c
  2520  0015DA  322C               	rrcf	(??_xtoa+5)^0,f,c
  2521  0015DC  322B               	rrcf	(??_xtoa+4)^0,f,c
  2522  0015DE  322A               	rrcf	(??_xtoa+3)^0,f,c
  2523  0015E0  3229               	rrcf	(??_xtoa+2)^0,f,c
  2524  0015E2  3228               	rrcf	(??_xtoa+1)^0,f,c
  2525  0015E4  3227               	rrcf	??_xtoa^0,f,c
  2526  0015E6                     u3720:
  2527  0015E6  2EE8               	decfsz	wreg,f,c
  2528  0015E8  EFEA  F00A         	goto	u3725
  2529  0015EC  C027  F033         	movff	??_xtoa,xtoa@n
  2530  0015F0  C028  F034         	movff	??_xtoa+1,xtoa@n+1
  2531  0015F4  C029  F035         	movff	??_xtoa+2,xtoa@n+2
  2532  0015F8  C02A  F036         	movff	??_xtoa+3,xtoa@n+3
  2533  0015FC  C02B  F037         	movff	??_xtoa+4,xtoa@n+4
  2534  001600  C02C  F038         	movff	??_xtoa+5,xtoa@n+5
  2535  001604  C02D  F039         	movff	??_xtoa+6,xtoa@n+6
  2536  001608  C02E  F03A         	movff	??_xtoa+7,xtoa@n+7
  2537  00160C                     l4177:
  2538                           
  2539                           ;D:\Program Files\Microchip\xc8\v2.36\pic\sources\c99\common\doprnt.c: 664:     while (!
      +                          (i < 2) && (n || (0 < p) || ((0 < w) && (flags & (1 << 1))))) {
  2540  00160C  BE3C               	btfsc	(xtoa@i+1)^0,7,c
  2541  00160E  EF12  F00B         	goto	u3731
  2542  001612  503C               	movf	(xtoa@i+1)^0,w,c
  2543  001614  E109               	bnz	u3730
  2544  001616  0E02               	movlw	2
  2545  001618  5C3B               	subwf	xtoa@i^0,w,c
  2546  00161A  A0D8               	btfss	status,0,c
  2547  00161C  EF12  F00B         	goto	u3731
  2548  001620  EF14  F00B         	goto	u3730
  2549  001624                     u3731:
  2550  001624  EF45  F00B         	goto	l1411
  2551  001628                     u3730:
  2552  001628  5033               	movf	xtoa@n^0,w,c
  2553  00162A  1034               	iorwf	(xtoa@n+1)^0,w,c
  2554  00162C  1035               	iorwf	(xtoa@n+2)^0,w,c
  2555  00162E  1036               	iorwf	(xtoa@n+3)^0,w,c
  2556  001630  1037               	iorwf	(xtoa@n+4)^0,w,c
  2557  001632  1038               	iorwf	(xtoa@n+5)^0,w,c
  2558  001634  1039               	iorwf	(xtoa@n+6)^0,w,c
  2559  001636  103A               	iorwf	(xtoa@n+7)^0,w,c
  2560  001638  A4D8               	btfss	status,2,c
  2561  00163A  EF21  F00B         	goto	u3741
  2562  00163E  EF23  F00B         	goto	u3740
  2563  001642                     u3741:
  2564  001642  EF6D  F00A         	goto	l4147
  2565  001646                     u3740:
  2566  001646  BE30               	btfsc	(xtoa@p+1)^0,7,c
  2567  001648  EF30  F00B         	goto	u3750
  2568  00164C  5030               	movf	(xtoa@p+1)^0,w,c
  2569  00164E  E106               	bnz	u3751
  2570  001650  042F               	decf	xtoa@p^0,w,c
  2571  001652  B0D8               	btfsc	status,0,c
  2572  001654  EF2E  F00B         	goto	u3751
  2573  001658  EF30  F00B         	goto	u3750
  2574  00165C                     u3751:
  2575  00165C  EF6D  F00A         	goto	l4147
  2576  001660                     u3750:
  2577  001660  BE32               	btfsc	(xtoa@w+1)^0,7,c
  2578  001662  EF3B  F00B         	goto	u3761
  2579  001666  5032               	movf	(xtoa@w+1)^0,w,c
  2580  001668  E108               	bnz	u3760
  2581  00166A  0431               	decf	xtoa@w^0,w,c
  2582  00166C  A0D8               	btfss	status,0,c
  2583  00166E  EF3B  F00B         	goto	u3761
  2584  001672  EF3D  F00B         	goto	u3760
  2585  001676                     u3761:
  2586  001676  EF45  F00B         	goto	l1411
  2587  00167A                     u3760:
  2588  00167A  0100               	movlb	0	; () banked
  2589  00167C  B366               	btfsc	_flags& (0+255),1,b
  2590  00167E  EF43  F00B         	goto	u3771
  2591  001682  EF45  F00B         	goto	u3770
  2592  001686                     u3771:
  2593  001686  EF6D  F00A         	goto	l4147
  2594  00168A                     u3770:
  2595  00168A                     l1411:
  2596                           
  2597                           ;D:\Program Files\Microchip\xc8\v2.36\pic\sources\c99\common\doprnt.c: 678:     if (flag
      +                          s & (1 << 4)) {
  2598  00168A  0100               	movlb	0	; () banked
  2599  00168C  A966               	btfss	_flags& (0+255),4,b
  2600  00168E  EF4B  F00B         	goto	u3781
  2601  001692  EF4D  F00B         	goto	u3780
  2602  001696                     u3781:
  2603  001696  EF63  F00B         	goto	l4193
  2604  00169A                     u3780:
  2605  00169A                     
  2606                           ; BSR set to: 0
  2607                           ;D:\Program Files\Microchip\xc8\v2.36\pic\sources\c99\common\doprnt.c: 679:         --i;
  2608  00169A  063B               	decf	xtoa@i^0,f,c
  2609  00169C  A0D8               	btfss	status,0,c
  2610  00169E  063C               	decf	(xtoa@i+1)^0,f,c
  2611  0016A0                     
  2612                           ; BSR set to: 0
  2613                           ;D:\Program Files\Microchip\xc8\v2.36\pic\sources\c99\common\doprnt.c: 680:         dbuf
      +                          [i] = x;
  2614  0016A0  0E6D               	movlw	low _dbuf
  2615  0016A2  243B               	addwf	xtoa@i^0,w,c
  2616  0016A4  6ED9               	movwf	fsr2l,c
  2617  0016A6  0E00               	movlw	high _dbuf
  2618  0016A8  203C               	addwfc	(xtoa@i+1)^0,w,c
  2619  0016AA  6EDA               	movwf	fsr2h,c
  2620  0016AC  C026  FFDF         	movff	xtoa@x,indf2
  2621  0016B0                     
  2622                           ; BSR set to: 0
  2623                           ;D:\Program Files\Microchip\xc8\v2.36\pic\sources\c99\common\doprnt.c: 681:         --i;
  2624  0016B0  063B               	decf	xtoa@i^0,f,c
  2625  0016B2  A0D8               	btfss	status,0,c
  2626  0016B4  063C               	decf	(xtoa@i+1)^0,f,c
  2627                           
  2628                           ;D:\Program Files\Microchip\xc8\v2.36\pic\sources\c99\common\doprnt.c: 682:         dbuf
      +                          [i] = '0';
  2629  0016B6  0E6D               	movlw	low _dbuf
  2630  0016B8  243B               	addwf	xtoa@i^0,w,c
  2631  0016BA  6ED9               	movwf	fsr2l,c
  2632  0016BC  0E00               	movlw	high _dbuf
  2633  0016BE  203C               	addwfc	(xtoa@i+1)^0,w,c
  2634  0016C0  6EDA               	movwf	fsr2h,c
  2635  0016C2  0E30               	movlw	48
  2636  0016C4  6EDF               	movwf	indf2,c
  2637  0016C6                     l4193:
  2638                           
  2639                           ; BSR set to: 0
  2640                           ;D:\Program Files\Microchip\xc8\v2.36\pic\sources\c99\common\doprnt.c: 686:     return p
      +                          ad(fp, &dbuf[i], w);
  2641  0016C6  C01C  F011         	movff	xtoa@fp,pad@fp
  2642  0016CA  C01D  F012         	movff	xtoa@fp+1,pad@fp+1
  2643  0016CE  0E6D               	movlw	low _dbuf
  2644  0016D0  243B               	addwf	xtoa@i^0,w,c
  2645  0016D2  6E13               	movwf	pad@buf^0,c
  2646  0016D4  0E00               	movlw	high _dbuf
  2647  0016D6  203C               	addwfc	(xtoa@i+1)^0,w,c
  2648  0016D8  6E14               	movwf	(pad@buf+1)^0,c
  2649  0016DA  C031  F015         	movff	xtoa@w,pad@p
  2650  0016DE  C032  F016         	movff	xtoa@w+1,pad@p+1
  2651  0016E2  EC08  F013         	call	_pad	;wreg free
  2652  0016E6  C011  F01C         	movff	?_pad,?_xtoa
  2653  0016EA  C012  F01D         	movff	?_pad+1,?_xtoa+1
  2654  0016EE  0012               	return		;funcret
  2655  0016F0                     __end_of_xtoa:
  2656                           	callstack 0
  2657                           
  2658 ;; *************** function _toupper *****************
  2659 ;; Defined at:
  2660 ;;		line 4 in file "D:\Program Files\Microchip\xc8\v2.36\pic\sources\c99\common\toupper.c"
  2661 ;; Parameters:    Size  Location     Type
  2662 ;;  c               2    6[COMRAM] int 
  2663 ;; Auto vars:     Size  Location     Type
  2664 ;;		None
  2665 ;; Return value:  Size  Location     Type
  2666 ;;                  2    6[COMRAM] int 
  2667 ;; Registers used:
  2668 ;;		wreg, status,2, status,0
  2669 ;; Tracked objects:
  2670 ;;		On entry : 0/0
  2671 ;;		On exit  : 0/0
  2672 ;;		Unchanged: 0/0
  2673 ;; Data sizes:     COMRAM   BANK0   BANK1   BANK2   BANK3   BANK4   BANK5   BANK6   BANK7
  2674 ;;      Params:         2       0       0       0       0       0       0       0       0
  2675 ;;      Locals:         0       0       0       0       0       0       0       0       0
  2676 ;;      Temps:          4       0       0       0       0       0       0       0       0
  2677 ;;      Totals:         6       0       0       0       0       0       0       0       0
  2678 ;;Total ram usage:        6 bytes
  2679 ;; Hardware stack levels used: 1
  2680 ;; Hardware stack levels required when called: 1
  2681 ;; This function calls:
  2682 ;;		_islower
  2683 ;; This function is called by:
  2684 ;;		_xtoa
  2685 ;; This function uses a non-reentrant model
  2686 ;;
  2687                           
  2688                           	psect	text5
  2689  0037CA                     __ptext5:
  2690                           	callstack 0
  2691  0037CA                     _toupper:
  2692                           	callstack 25
  2693  0037CA  0E9F               	movlw	159
  2694  0037CC  6E09               	movwf	??_toupper^0,c
  2695  0037CE  0EFF               	movlw	255
  2696  0037D0  6E0A               	movwf	(??_toupper+1)^0,c
  2697  0037D2  C007  F00B         	movff	toupper@c,??_toupper+2
  2698  0037D6  C008  F00C         	movff	toupper@c+1,??_toupper+3
  2699  0037DA  5009               	movf	??_toupper^0,w,c
  2700  0037DC  260B               	addwf	(??_toupper+2)^0,f,c
  2701  0037DE  500A               	movf	(??_toupper+1)^0,w,c
  2702  0037E0  220C               	addwfc	(??_toupper+3)^0,f,c
  2703  0037E2  500C               	movf	(??_toupper+3)^0,w,c
  2704  0037E4  E107               	bnz	u3541
  2705  0037E6  0E1A               	movlw	26
  2706  0037E8  5C0B               	subwf	(??_toupper+2)^0,w,c
  2707  0037EA  B0D8               	btfsc	status,0,c
  2708  0037EC  EFFA  F01B         	goto	u3541
  2709  0037F0  EFFC  F01B         	goto	u3540
  2710  0037F4                     u3541:
  2711  0037F4  EF02  F01C         	goto	l1473
  2712  0037F8                     u3540:
  2713  0037F8  0E5F               	movlw	95
  2714  0037FA  1407               	andwf	toupper@c^0,w,c
  2715  0037FC  6E07               	movwf	?_toupper^0,c
  2716  0037FE  6A08               	clrf	(?_toupper+1)^0,c
  2717  003800  EF06  F01C         	goto	l1476
  2718  003804                     l1473:
  2719  003804  C007  F007         	movff	toupper@c,?_toupper
  2720  003808  C008  F008         	movff	toupper@c+1,?_toupper+1
  2721  00380C                     l1476:
  2722  00380C  0012               	return		;funcret
  2723  00380E                     __end_of_toupper:
  2724                           	callstack 0
  2725                           
  2726 ;; *************** function _islower *****************
  2727 ;; Defined at:
  2728 ;;		line 5 in file "D:\Program Files\Microchip\xc8\v2.36\pic\sources\c99\common\islower.c"
  2729 ;; Parameters:    Size  Location     Type
  2730 ;;  c               2    0[COMRAM] int 
  2731 ;; Auto vars:     Size  Location     Type
  2732 ;;		None
  2733 ;; Return value:  Size  Location     Type
  2734 ;;                  2    0[COMRAM] int 
  2735 ;; Registers used:
  2736 ;;		wreg, status,2, status,0
  2737 ;; Tracked objects:
  2738 ;;		On entry : 0/0
  2739 ;;		On exit  : 0/0
  2740 ;;		Unchanged: 0/0
  2741 ;; Data sizes:     COMRAM   BANK0   BANK1   BANK2   BANK3   BANK4   BANK5   BANK6   BANK7
  2742 ;;      Params:         2       0       0       0       0       0       0       0       0
  2743 ;;      Locals:         0       0       0       0       0       0       0       0       0
  2744 ;;      Temps:          4       0       0       0       0       0       0       0       0
  2745 ;;      Totals:         6       0       0       0       0       0       0       0       0
  2746 ;;Total ram usage:        6 bytes
  2747 ;; Hardware stack levels used: 1
  2748 ;; This function calls:
  2749 ;;		Nothing
  2750 ;; This function is called by:
  2751 ;;		_toupper
  2752 ;; This function uses a non-reentrant model
  2753 ;;
  2754                           
  2755                           	psect	text6
  2756  00388E                     __ptext6:
  2757                           	callstack 0
  2758  00388E                     _islower:
  2759                           	callstack 25
  2760  00388E  0E9F               	movlw	159
  2761  003890  6E03               	movwf	??_islower^0,c
  2762  003892  0EFF               	movlw	255
  2763  003894  6E04               	movwf	(??_islower+1)^0,c
  2764  003896  C001  F005         	movff	islower@c,??_islower+2
  2765  00389A  C002  F006         	movff	islower@c+1,??_islower+3
  2766  00389E  5003               	movf	??_islower^0,w,c
  2767  0038A0  2605               	addwf	(??_islower+2)^0,f,c
  2768  0038A2  5004               	movf	(??_islower+1)^0,w,c
  2769  0038A4  2206               	addwfc	(??_islower+3)^0,f,c
  2770  0038A6  5006               	movf	(??_islower+3)^0,w,c
  2771  0038A8  E10A               	bnz	u3050
  2772  0038AA  0E1A               	movlw	26
  2773  0038AC  5C05               	subwf	(??_islower+2)^0,w,c
  2774  0038AE  A0D8               	btfss	status,0,c
  2775  0038B0  EF5C  F01C         	goto	u3051
  2776  0038B4  EF5F  F01C         	goto	u3050
  2777  0038B8                     u3051:
  2778  0038B8  0E01               	movlw	1
  2779  0038BA  EF60  F01C         	goto	u3060
  2780  0038BE                     u3050:
  2781  0038BE  0E00               	movlw	0
  2782  0038C0                     u3060:
  2783  0038C0  6E01               	movwf	?_islower^0,c
  2784  0038C2  6A02               	clrf	(?_islower+1)^0,c
  2785  0038C4  0012               	return		;funcret
  2786  0038C6                     __end_of_islower:
  2787                           	callstack 0
  2788                           
  2789 ;; *************** function _pad *****************
  2790 ;; Defined at:
  2791 ;;		line 72 in file "D:\Program Files\Microchip\xc8\v2.36\pic\sources\c99\common\doprnt.c"
  2792 ;; Parameters:    Size  Location     Type
  2793 ;;  fp              2   16[COMRAM] PTR struct _IO_FILE
  2794 ;;		 -> sprintf@f(11), 
  2795 ;;  buf             2   18[COMRAM] PTR unsigned char 
  2796 ;;		 -> dbuf(32), 
  2797 ;;  p               2   20[COMRAM] int 
  2798 ;; Auto vars:     Size  Location     Type
  2799 ;;  w               2   25[COMRAM] int 
  2800 ;;  i               2   23[COMRAM] int 
  2801 ;; Return value:  Size  Location     Type
  2802 ;;                  2   16[COMRAM] int 
  2803 ;; Registers used:
  2804 ;;		wreg, fsr1l, fsr1h, fsr2l, fsr2h, status,2, status,0, tblptrl, tblptrh, tblptru, cstack
  2805 ;; Tracked objects:
  2806 ;;		On entry : 0/0
  2807 ;;		On exit  : 0/0
  2808 ;;		Unchanged: 0/0
  2809 ;; Data sizes:     COMRAM   BANK0   BANK1   BANK2   BANK3   BANK4   BANK5   BANK6   BANK7
  2810 ;;      Params:         6       0       0       0       0       0       0       0       0
  2811 ;;      Locals:         4       0       0       0       0       0       0       0       0
  2812 ;;      Temps:          1       0       0       0       0       0       0       0       0
  2813 ;;      Totals:        11       0       0       0       0       0       0       0       0
  2814 ;;Total ram usage:       11 bytes
  2815 ;; Hardware stack levels used: 1
  2816 ;; Hardware stack levels required when called: 3
  2817 ;; This function calls:
  2818 ;;		_fputc
  2819 ;;		_fputs
  2820 ;;		_strlen
  2821 ;; This function is called by:
  2822 ;;		_xtoa
  2823 ;; This function uses a non-reentrant model
  2824 ;;
  2825                           
  2826                           	psect	text7
  2827  002610                     __ptext7:
  2828                           	callstack 0
  2829  002610                     _pad:
  2830                           	callstack 23
  2831  002610                     
  2832                           ;D:\Program Files\Microchip\xc8\v2.36\pic\sources\c99\common\doprnt.c: 72: static int pa
      +                          d(FILE *fp, char *buf, int p);D:\Program Files\Microchip\xc8\v2.36\pic\sources\c99\commo
      +                          n\doprnt.c: 73: {;D:\Program Files\Microchip\xc8\v2.36\pic\sources\c99\common\doprnt.c: 
      +                          74:     int i, w;;D:\Program Files\Microchip\xc8\v2.36\pic\sources\c99\common\doprnt.c: 
      +                          77:     if (flags & (1 << 0)) {
  2833  002610  0100               	movlb	0	; () banked
  2834  002612  A166               	btfss	_flags& (0+255),0,b
  2835  002614  EF0E  F013         	goto	u3461
  2836  002618  EF10  F013         	goto	u3460
  2837  00261C                     u3461:
  2838  00261C  EF1A  F013         	goto	l3981
  2839  002620                     u3460:
  2840  002620                     
  2841                           ; BSR set to: 0
  2842                           ;D:\Program Files\Microchip\xc8\v2.36\pic\sources\c99\common\doprnt.c: 78:         fputs
      +                          ((const char *)buf, fp);
  2843  002620  C013  F00A         	movff	pad@buf,fputs@s
  2844  002624  C014  F00B         	movff	pad@buf+1,fputs@s+1
  2845  002628  C011  F00C         	movff	pad@fp,fputs@fp
  2846  00262C  C012  F00D         	movff	pad@fp+1,fputs@fp+1
  2847  002630  EC07  F01C         	call	_fputs	;wreg free
  2848  002634                     l3981:
  2849                           
  2850                           ;D:\Program Files\Microchip\xc8\v2.36\pic\sources\c99\common\doprnt.c: 82:     w = (p < 
      +                          0) ? 0 : p;
  2851  002634  BE16               	btfsc	(pad@p+1)^0,7,c
  2852  002636  EF1F  F013         	goto	u3471
  2853  00263A  EF21  F013         	goto	u3470
  2854  00263E                     u3471:
  2855  00263E  EF27  F013         	goto	l3985
  2856  002642                     u3470:
  2857  002642  C015  F01A         	movff	pad@p,pad@w
  2858  002646  C016  F01B         	movff	pad@p+1,pad@w+1
  2859  00264A  EF2B  F013         	goto	l1382
  2860  00264E                     l3985:
  2861  00264E  0E00               	movlw	0
  2862  002650  6E1B               	movwf	(pad@w+1)^0,c
  2863  002652  0E00               	movlw	0
  2864  002654  6E1A               	movwf	pad@w^0,c
  2865  002656                     l1382:
  2866                           
  2867                           ;D:\Program Files\Microchip\xc8\v2.36\pic\sources\c99\common\doprnt.c: 83:     i = 0;
  2868  002656  0E00               	movlw	0
  2869  002658  6E19               	movwf	(pad@i+1)^0,c
  2870  00265A  0E00               	movlw	0
  2871  00265C  6E18               	movwf	pad@i^0,c
  2872                           
  2873                           ;D:\Program Files\Microchip\xc8\v2.36\pic\sources\c99\common\doprnt.c: 84:     while (i 
      +                          < w) {
  2874  00265E  EF3D  F013         	goto	l3991
  2875  002662                     l3987:
  2876                           
  2877                           ;D:\Program Files\Microchip\xc8\v2.36\pic\sources\c99\common\doprnt.c: 85:         fputc
      +                          (' ', fp);
  2878  002662  0E00               	movlw	0
  2879  002664  6E02               	movwf	(fputc@c+1)^0,c
  2880  002666  0E20               	movlw	32
  2881  002668  6E01               	movwf	fputc@c^0,c
  2882  00266A  C011  F003         	movff	pad@fp,fputc@fp
  2883  00266E  C012  F004         	movff	pad@fp+1,fputc@fp+1
  2884  002672  ECA3  F012         	call	_fputc	;wreg free
  2885  002676                     
  2886                           ;D:\Program Files\Microchip\xc8\v2.36\pic\sources\c99\common\doprnt.c: 86:         ++i;
  2887  002676  4A18               	infsnz	pad@i^0,f,c
  2888  002678  2A19               	incf	(pad@i+1)^0,f,c
  2889  00267A                     l3991:
  2890                           
  2891                           ;D:\Program Files\Microchip\xc8\v2.36\pic\sources\c99\common\doprnt.c: 84:     while (i 
      +                          < w) {
  2892  00267A  501A               	movf	pad@w^0,w,c
  2893  00267C  5C18               	subwf	pad@i^0,w,c
  2894  00267E  5019               	movf	(pad@i+1)^0,w,c
  2895  002680  0A80               	xorlw	128
  2896  002682  6E17               	movwf	??_pad^0,c
  2897  002684  501B               	movf	(pad@w+1)^0,w,c
  2898  002686  0A80               	xorlw	128
  2899  002688  5817               	subwfb	??_pad^0,w,c
  2900  00268A  A0D8               	btfss	status,0,c
  2901  00268C  EF4A  F013         	goto	u3481
  2902  002690  EF4C  F013         	goto	u3480
  2903  002694                     u3481:
  2904  002694  EF31  F013         	goto	l3987
  2905  002698                     u3480:
  2906  002698                     
  2907                           ;D:\Program Files\Microchip\xc8\v2.36\pic\sources\c99\common\doprnt.c: 90:     if (!(fla
      +                          gs & (1 << 0))) {
  2908  002698  0100               	movlb	0	; () banked
  2909  00269A  B166               	btfsc	_flags& (0+255),0,b
  2910  00269C  EF52  F013         	goto	u3491
  2911  0026A0  EF54  F013         	goto	u3490
  2912  0026A4                     u3491:
  2913  0026A4  EF5E  F013         	goto	l3995
  2914  0026A8                     u3490:
  2915  0026A8                     
  2916                           ; BSR set to: 0
  2917                           ;D:\Program Files\Microchip\xc8\v2.36\pic\sources\c99\common\doprnt.c: 91:         fputs
      +                          ((const char *)buf, fp);
  2918  0026A8  C013  F00A         	movff	pad@buf,fputs@s
  2919  0026AC  C014  F00B         	movff	pad@buf+1,fputs@s+1
  2920  0026B0  C011  F00C         	movff	pad@fp,fputs@fp
  2921  0026B4  C012  F00D         	movff	pad@fp+1,fputs@fp+1
  2922  0026B8  EC07  F01C         	call	_fputs	;wreg free
  2923  0026BC                     l3995:
  2924                           
  2925                           ;D:\Program Files\Microchip\xc8\v2.36\pic\sources\c99\common\doprnt.c: 94:     return (i
      +                          nt)(strlen(buf) + (size_t)w);
  2926  0026BC  C013  F001         	movff	pad@buf,strlen@s
  2927  0026C0  C014  F002         	movff	pad@buf+1,strlen@s+1
  2928  0026C4  EC98  F01B         	call	_strlen	;wreg free
  2929  0026C8  501A               	movf	pad@w^0,w,c
  2930  0026CA  2401               	addwf	?_strlen^0,w,c
  2931  0026CC  6E11               	movwf	?_pad^0,c
  2932  0026CE  501B               	movf	(pad@w+1)^0,w,c
  2933  0026D0  2002               	addwfc	(?_strlen+1)^0,w,c
  2934  0026D2  6E12               	movwf	(?_pad+1)^0,c
  2935  0026D4  0012               	return		;funcret
  2936  0026D6                     __end_of_pad:
  2937                           	callstack 0
  2938                           
  2939 ;; *************** function _fputs *****************
  2940 ;; Defined at:
  2941 ;;		line 8 in file "D:\Program Files\Microchip\xc8\v2.36\pic\sources\c99\common\nf_fputs.c"
  2942 ;; Parameters:    Size  Location     Type
  2943 ;;  s               2    9[COMRAM] PTR const unsigned char 
  2944 ;;		 -> dbuf(32), 
  2945 ;;  fp              2   11[COMRAM] PTR struct _IO_FILE
  2946 ;;		 -> sprintf@f(11), 
  2947 ;; Auto vars:     Size  Location     Type
  2948 ;;  i               2   14[COMRAM] int 
  2949 ;;  c               1   13[COMRAM] unsigned char 
  2950 ;; Return value:  Size  Location     Type
  2951 ;;                  2    9[COMRAM] int 
  2952 ;; Registers used:
  2953 ;;		wreg, fsr1l, fsr1h, fsr2l, fsr2h, status,2, status,0, cstack
  2954 ;; Tracked objects:
  2955 ;;		On entry : 0/0
  2956 ;;		On exit  : 0/0
  2957 ;;		Unchanged: 0/0
  2958 ;; Data sizes:     COMRAM   BANK0   BANK1   BANK2   BANK3   BANK4   BANK5   BANK6   BANK7
  2959 ;;      Params:         4       0       0       0       0       0       0       0       0
  2960 ;;      Locals:         3       0       0       0       0       0       0       0       0
  2961 ;;      Temps:          0       0       0       0       0       0       0       0       0
  2962 ;;      Totals:         7       0       0       0       0       0       0       0       0
  2963 ;;Total ram usage:        7 bytes
  2964 ;; Hardware stack levels used: 1
  2965 ;; Hardware stack levels required when called: 2
  2966 ;; This function calls:
  2967 ;;		_fputc
  2968 ;; This function is called by:
  2969 ;;		_pad
  2970 ;; This function uses a non-reentrant model
  2971 ;;
  2972                           
  2973                           	psect	text8
  2974  00380E                     __ptext8:
  2975                           	callstack 0
  2976  00380E                     _fputs:
  2977                           	callstack 23
  2978  00380E  0E00               	movlw	0
  2979  003810  6E10               	movwf	(fputs@i+1)^0,c
  2980  003812  0E00               	movlw	0
  2981  003814  6E0F               	movwf	fputs@i^0,c
  2982  003816  EF18  F01C         	goto	l3731
  2983  00381A                     l3727:
  2984  00381A  C00E  F001         	movff	fputs@c,fputc@c
  2985  00381E  6A02               	clrf	(fputc@c+1)^0,c
  2986  003820  C00C  F003         	movff	fputs@fp,fputc@fp
  2987  003824  C00D  F004         	movff	fputs@fp+1,fputc@fp+1
  2988  003828  ECA3  F012         	call	_fputc	;wreg free
  2989  00382C  4A0F               	infsnz	fputs@i^0,f,c
  2990  00382E  2A10               	incf	(fputs@i+1)^0,f,c
  2991  003830                     l3731:
  2992  003830  500F               	movf	fputs@i^0,w,c
  2993  003832  240A               	addwf	fputs@s^0,w,c
  2994  003834  6ED9               	movwf	fsr2l,c
  2995  003836  5010               	movf	(fputs@i+1)^0,w,c
  2996  003838  200B               	addwfc	(fputs@s+1)^0,w,c
  2997  00383A  6EDA               	movwf	fsr2h,c
  2998  00383C  50DF               	movf	indf2,w,c
  2999  00383E  6E0E               	movwf	fputs@c^0,c
  3000  003840  500E               	movf	fputs@c^0,w,c
  3001  003842  A4D8               	btfss	status,2,c
  3002  003844  EF26  F01C         	goto	u3041
  3003  003848  EF28  F01C         	goto	u3040
  3004  00384C                     u3041:
  3005  00384C  EF0D  F01C         	goto	l3727
  3006  003850                     u3040:
  3007  003850  0012               	return		;funcret
  3008  003852                     __end_of_fputs:
  3009                           	callstack 0
  3010                           
  3011 ;; *************** function _fputc *****************
  3012 ;; Defined at:
  3013 ;;		line 8 in file "D:\Program Files\Microchip\xc8\v2.36\pic\sources\c99\common\nf_fputc.c"
  3014 ;; Parameters:    Size  Location     Type
  3015 ;;  c               2    0[COMRAM] int 
  3016 ;;  fp              2    2[COMRAM] PTR struct _IO_FILE
  3017 ;;		 -> sprintf@f(11), 
  3018 ;; Auto vars:     Size  Location     Type
  3019 ;;		None
  3020 ;; Return value:  Size  Location     Type
  3021 ;;                  2    0[COMRAM] int 
  3022 ;; Registers used:
  3023 ;;		wreg, fsr1l, fsr1h, fsr2l, fsr2h, status,2, status,0, cstack
  3024 ;; Tracked objects:
  3025 ;;		On entry : 0/0
  3026 ;;		On exit  : 0/0
  3027 ;;		Unchanged: 0/0
  3028 ;; Data sizes:     COMRAM   BANK0   BANK1   BANK2   BANK3   BANK4   BANK5   BANK6   BANK7
  3029 ;;      Params:         4       0       0       0       0       0       0       0       0
  3030 ;;      Locals:         0       0       0       0       0       0       0       0       0
  3031 ;;      Temps:          5       0       0       0       0       0       0       0       0
  3032 ;;      Totals:         9       0       0       0       0       0       0       0       0
  3033 ;;Total ram usage:        9 bytes
  3034 ;; Hardware stack levels used: 1
  3035 ;; Hardware stack levels required when called: 1
  3036 ;; This function calls:
  3037 ;;		_putch
  3038 ;; This function is called by:
  3039 ;;		_pad
  3040 ;;		_vfpfcnvrt
  3041 ;;		_fputs
  3042 ;; This function uses a non-reentrant model
  3043 ;;
  3044                           
  3045                           	psect	text9
  3046  002546                     __ptext9:
  3047                           	callstack 0
  3048  002546                     _fputc:
  3049                           	callstack 23
  3050  002546  5003               	movf	fputc@fp^0,w,c
  3051  002548  1004               	iorwf	(fputc@fp+1)^0,w,c
  3052  00254A  B4D8               	btfsc	status,2,c
  3053  00254C  EFAA  F012         	goto	u2981
  3054  002550  EFAC  F012         	goto	u2980
  3055  002554                     u2981:
  3056  002554  EFB5  F012         	goto	l3705
  3057  002558                     u2980:
  3058  002558  5003               	movf	fputc@fp^0,w,c
  3059  00255A  1004               	iorwf	(fputc@fp+1)^0,w,c
  3060  00255C  A4D8               	btfss	status,2,c
  3061  00255E  EFB3  F012         	goto	u2991
  3062  002562  EFB5  F012         	goto	u2990
  3063  002566                     u2991:
  3064  002566  EFBA  F012         	goto	l3707
  3065  00256A                     u2990:
  3066  00256A                     l3705:
  3067  00256A  5001               	movf	fputc@c^0,w,c
  3068  00256C  ECD7  F01D         	call	_putch
  3069  002570  EF07  F013         	goto	l1451
  3070  002574                     l3707:
  3071  002574  EE20 F009          	lfsr	2,9
  3072  002578  5003               	movf	fputc@fp^0,w,c
  3073  00257A  26D9               	addwf	fsr2l,f,c
  3074  00257C  5004               	movf	(fputc@fp+1)^0,w,c
  3075  00257E  22DA               	addwfc	fsr2h,f,c
  3076  002580  50DE               	movf	postinc2,w,c
  3077  002582  10DE               	iorwf	postinc2,w,c
  3078  002584  B4D8               	btfsc	status,2,c
  3079  002586  EFC7  F012         	goto	u3001
  3080  00258A  EFC9  F012         	goto	u3000
  3081  00258E                     u3001:
  3082  00258E  EFE4  F012         	goto	l3711
  3083  002592                     u3000:
  3084  002592  EE20 F009          	lfsr	2,9
  3085  002596  5003               	movf	fputc@fp^0,w,c
  3086  002598  26D9               	addwf	fsr2l,f,c
  3087  00259A  5004               	movf	(fputc@fp+1)^0,w,c
  3088  00259C  22DA               	addwfc	fsr2h,f,c
  3089  00259E  EE10 F003          	lfsr	1,3
  3090  0025A2  5003               	movf	fputc@fp^0,w,c
  3091  0025A4  26E1               	addwf	fsr1l,f,c
  3092  0025A6  5004               	movf	(fputc@fp+1)^0,w,c
  3093  0025A8  22E2               	addwfc	fsr1h,f,c
  3094  0025AA  50DE               	movf	postinc2,w,c
  3095  0025AC  5CE6               	subwf	postinc1,w,c
  3096  0025AE  50E6               	movf	postinc1,w,c
  3097  0025B0  0A80               	xorlw	128
  3098  0025B2  6E09               	movwf	(??_fputc+4)^0,c
  3099  0025B4  50DE               	movf	postinc2,w,c
  3100  0025B6  0A80               	xorlw	128
  3101  0025B8  5809               	subwfb	(??_fputc+4)^0,w,c
  3102  0025BA  B0D8               	btfsc	status,0,c
  3103  0025BC  EFE2  F012         	goto	u3011
  3104  0025C0  EFE4  F012         	goto	u3010
  3105  0025C4                     u3011:
  3106  0025C4  EF07  F013         	goto	l1451
  3107  0025C8                     u3010:
  3108  0025C8                     l3711:
  3109  0025C8  EE20 F003          	lfsr	2,3
  3110  0025CC  5003               	movf	fputc@fp^0,w,c
  3111  0025CE  26D9               	addwf	fsr2l,f,c
  3112  0025D0  5004               	movf	(fputc@fp+1)^0,w,c
  3113  0025D2  22DA               	addwfc	fsr2h,f,c
  3114  0025D4  CFDE F005          	movff	postinc2,??_fputc
  3115  0025D8  CFDD F006          	movff	postdec2,??_fputc+1
  3116  0025DC  C003  FFD9         	movff	fputc@fp,fsr2l
  3117  0025E0  C004  FFDA         	movff	fputc@fp+1,fsr2h
  3118  0025E4  CFDE F007          	movff	postinc2,??_fputc+2
  3119  0025E8  CFDD F008          	movff	postdec2,??_fputc+3
  3120  0025EC  5005               	movf	??_fputc^0,w,c
  3121  0025EE  2407               	addwf	(??_fputc+2)^0,w,c
  3122  0025F0  6ED9               	movwf	fsr2l,c
  3123  0025F2  5006               	movf	(??_fputc+1)^0,w,c
  3124  0025F4  2008               	addwfc	(??_fputc+3)^0,w,c
  3125  0025F6  6EDA               	movwf	fsr2h,c
  3126  0025F8  C001  FFDF         	movff	fputc@c,indf2
  3127  0025FC  EE20 F003          	lfsr	2,3
  3128  002600  5003               	movf	fputc@fp^0,w,c
  3129  002602  26D9               	addwf	fsr2l,f,c
  3130  002604  5004               	movf	(fputc@fp+1)^0,w,c
  3131  002606  22DA               	addwfc	fsr2h,f,c
  3132  002608  2ADE               	incf	postinc2,f,c
  3133  00260A  0E00               	movlw	0
  3134  00260C  22DD               	addwfc	postdec2,f,c
  3135  00260E                     l1451:
  3136  00260E  0012               	return		;funcret
  3137  002610                     __end_of_fputc:
  3138                           	callstack 0
  3139                           
  3140 ;; *************** function _putch *****************
  3141 ;; Defined at:
  3142 ;;		line 7 in file "D:\Program Files\Microchip\xc8\v2.36\pic\sources\c99\common\putch.c"
  3143 ;; Parameters:    Size  Location     Type
  3144 ;;  c               1    wreg     unsigned char 
  3145 ;; Auto vars:     Size  Location     Type
  3146 ;;  c               1    0[COMRAM] unsigned char 
  3147 ;; Return value:  Size  Location     Type
  3148 ;;                  1    wreg      void 
  3149 ;; Registers used:
  3150 ;;		wreg
  3151 ;; Tracked objects:
  3152 ;;		On entry : 0/0
  3153 ;;		On exit  : 0/0
  3154 ;;		Unchanged: 0/0
  3155 ;; Data sizes:     COMRAM   BANK0   BANK1   BANK2   BANK3   BANK4   BANK5   BANK6   BANK7
  3156 ;;      Params:         0       0       0       0       0       0       0       0       0
  3157 ;;      Locals:         0       0       0       0       0       0       0       0       0
  3158 ;;      Temps:          0       0       0       0       0       0       0       0       0
  3159 ;;      Totals:         0       0       0       0       0       0       0       0       0
  3160 ;;Total ram usage:        0 bytes
  3161 ;; Hardware stack levels used: 1
  3162 ;; This function calls:
  3163 ;;		Nothing
  3164 ;; This function is called by:
  3165 ;;		_fputc
  3166 ;; This function uses a non-reentrant model
  3167 ;;
  3168                           
  3169                           	psect	text10
  3170  003BAE                     __ptext10:
  3171                           	callstack 0
  3172  003BAE                     _putch:
  3173                           	callstack 23
  3174  003BAE  0012               	return		;funcret
  3175  003BB0                     __end_of_putch:
  3176                           	callstack 0
  3177                           
  3178 ;; *************** function _isupper *****************
  3179 ;; Defined at:
  3180 ;;		line 5 in file "D:\Program Files\Microchip\xc8\v2.36\pic\sources\c99\common\isupper.c"
  3181 ;; Parameters:    Size  Location     Type
  3182 ;;  c               2    0[COMRAM] int 
  3183 ;; Auto vars:     Size  Location     Type
  3184 ;;		None
  3185 ;; Return value:  Size  Location     Type
  3186 ;;                  2    0[COMRAM] int 
  3187 ;; Registers used:
  3188 ;;		wreg, status,2, status,0
  3189 ;; Tracked objects:
  3190 ;;		On entry : 0/0
  3191 ;;		On exit  : 0/0
  3192 ;;		Unchanged: 0/0
  3193 ;; Data sizes:     COMRAM   BANK0   BANK1   BANK2   BANK3   BANK4   BANK5   BANK6   BANK7
  3194 ;;      Params:         2       0       0       0       0       0       0       0       0
  3195 ;;      Locals:         0       0       0       0       0       0       0       0       0
  3196 ;;      Temps:          4       0       0       0       0       0       0       0       0
  3197 ;;      Totals:         6       0       0       0       0       0       0       0       0
  3198 ;;Total ram usage:        6 bytes
  3199 ;; Hardware stack levels used: 1
  3200 ;; This function calls:
  3201 ;;		Nothing
  3202 ;; This function is called by:
  3203 ;;		_xtoa
  3204 ;; This function uses a non-reentrant model
  3205 ;;
  3206                           
  3207                           	psect	text11
  3208  0038C6                     __ptext11:
  3209                           	callstack 0
  3210  0038C6                     _isupper:
  3211                           	callstack 26
  3212  0038C6  0EBF               	movlw	191
  3213  0038C8  6E03               	movwf	??_isupper^0,c
  3214  0038CA  0EFF               	movlw	255
  3215  0038CC  6E04               	movwf	(??_isupper+1)^0,c
  3216  0038CE  C001  F005         	movff	isupper@c,??_isupper+2
  3217  0038D2  C002  F006         	movff	isupper@c+1,??_isupper+3
  3218  0038D6  5003               	movf	??_isupper^0,w,c
  3219  0038D8  2605               	addwf	(??_isupper+2)^0,f,c
  3220  0038DA  5004               	movf	(??_isupper+1)^0,w,c
  3221  0038DC  2206               	addwfc	(??_isupper+3)^0,f,c
  3222  0038DE  5006               	movf	(??_isupper+3)^0,w,c
  3223  0038E0  E10A               	bnz	u3500
  3224  0038E2  0E1A               	movlw	26
  3225  0038E4  5C05               	subwf	(??_isupper+2)^0,w,c
  3226  0038E6  A0D8               	btfss	status,0,c
  3227  0038E8  EF78  F01C         	goto	u3501
  3228  0038EC  EF7B  F01C         	goto	u3500
  3229  0038F0                     u3501:
  3230  0038F0  0E01               	movlw	1
  3231  0038F2  EF7C  F01C         	goto	u3510
  3232  0038F6                     u3500:
  3233  0038F6  0E00               	movlw	0
  3234  0038F8                     u3510:
  3235  0038F8  6E01               	movwf	?_isupper^0,c
  3236  0038FA  6A02               	clrf	(?_isupper+1)^0,c
  3237  0038FC  0012               	return		;funcret
  3238  0038FE                     __end_of_isupper:
  3239                           	callstack 0
  3240                           
  3241 ;; *************** function _isalpha *****************
  3242 ;; Defined at:
  3243 ;;		line 5 in file "D:\Program Files\Microchip\xc8\v2.36\pic\sources\c99\common\isalpha.c"
  3244 ;; Parameters:    Size  Location     Type
  3245 ;;  c               2    0[COMRAM] int 
  3246 ;; Auto vars:     Size  Location     Type
  3247 ;;		None
  3248 ;; Return value:  Size  Location     Type
  3249 ;;                  2    0[COMRAM] int 
  3250 ;; Registers used:
  3251 ;;		wreg, status,2, status,0
  3252 ;; Tracked objects:
  3253 ;;		On entry : 0/0
  3254 ;;		On exit  : 0/0
  3255 ;;		Unchanged: 0/0
  3256 ;; Data sizes:     COMRAM   BANK0   BANK1   BANK2   BANK3   BANK4   BANK5   BANK6   BANK7
  3257 ;;      Params:         2       0       0       0       0       0       0       0       0
  3258 ;;      Locals:         0       0       0       0       0       0       0       0       0
  3259 ;;      Temps:          4       0       0       0       0       0       0       0       0
  3260 ;;      Totals:         6       0       0       0       0       0       0       0       0
  3261 ;;Total ram usage:        6 bytes
  3262 ;; Hardware stack levels used: 1
  3263 ;; This function calls:
  3264 ;;		Nothing
  3265 ;; This function is called by:
  3266 ;;		_xtoa
  3267 ;; This function uses a non-reentrant model
  3268 ;;
  3269                           
  3270                           	psect	text12
  3271  003852                     __ptext12:
  3272                           	callstack 0
  3273  003852                     _isalpha:
  3274                           	callstack 26
  3275  003852  0E9F               	movlw	159
  3276  003854  6E03               	movwf	??_isalpha^0,c
  3277  003856  0EFF               	movlw	255
  3278  003858  6E04               	movwf	(??_isalpha+1)^0,c
  3279  00385A  0E20               	movlw	32
  3280  00385C  1001               	iorwf	isalpha@c^0,w,c
  3281  00385E  6E05               	movwf	(??_isalpha+2)^0,c
  3282  003860  0E00               	movlw	0
  3283  003862  1002               	iorwf	(isalpha@c+1)^0,w,c
  3284  003864  6E06               	movwf	(??_isalpha+3)^0,c
  3285  003866  5003               	movf	??_isalpha^0,w,c
  3286  003868  2605               	addwf	(??_isalpha+2)^0,f,c
  3287  00386A  5004               	movf	(??_isalpha+1)^0,w,c
  3288  00386C  2206               	addwfc	(??_isalpha+3)^0,f,c
  3289  00386E  5006               	movf	(??_isalpha+3)^0,w,c
  3290  003870  E10A               	bnz	u3520
  3291  003872  0E1A               	movlw	26
  3292  003874  5C05               	subwf	(??_isalpha+2)^0,w,c
  3293  003876  A0D8               	btfss	status,0,c
  3294  003878  EF40  F01C         	goto	u3521
  3295  00387C  EF43  F01C         	goto	u3520
  3296  003880                     u3521:
  3297  003880  0E01               	movlw	1
  3298  003882  EF44  F01C         	goto	u3530
  3299  003886                     u3520:
  3300  003886  0E00               	movlw	0
  3301  003888                     u3530:
  3302  003888  6E01               	movwf	?_isalpha^0,c
  3303  00388A  6A02               	clrf	(?_isalpha+1)^0,c
  3304  00388C  0012               	return		;funcret
  3305  00388E                     __end_of_isalpha:
  3306                           	callstack 0
  3307                           
  3308 ;; *************** function _USART_TxChar *****************
  3309 ;; Defined at:
  3310 ;;		line 145 in file "main.c"
  3311 ;; Parameters:    Size  Location     Type
  3312 ;;  out             2    4[COMRAM] PTR unsigned char 
  3313 ;;		 -> STR_8(3), STR_5(3), data_buffer(20), STR_2(3), 
  3314 ;; Auto vars:     Size  Location     Type
  3315 ;;  i               1    8[COMRAM] unsigned char 
  3316 ;; Return value:  Size  Location     Type
  3317 ;;                  1    wreg      void 
  3318 ;; Registers used:
  3319 ;;		wreg, fsr1l, fsr1h, status,2, status,0, tblptrl, tblptrh, tblptru, cstack
  3320 ;; Tracked objects:
  3321 ;;		On entry : 0/0
  3322 ;;		On exit  : 0/0
  3323 ;;		Unchanged: 0/0
  3324 ;; Data sizes:     COMRAM   BANK0   BANK1   BANK2   BANK3   BANK4   BANK5   BANK6   BANK7
  3325 ;;      Params:         2       0       0       0       0       0       0       0       0
  3326 ;;      Locals:         1       0       0       0       0       0       0       0       0
  3327 ;;      Temps:          2       0       0       0       0       0       0       0       0
  3328 ;;      Totals:         5       0       0       0       0       0       0       0       0
  3329 ;;Total ram usage:        5 bytes
  3330 ;; Hardware stack levels used: 1
  3331 ;; Hardware stack levels required when called: 1
  3332 ;; This function calls:
  3333 ;;		_strlen
  3334 ;; This function is called by:
  3335 ;;		_main
  3336 ;; This function uses a non-reentrant model
  3337 ;;
  3338                           
  3339                           	psect	text13
  3340  0032B2                     __ptext13:
  3341                           	callstack 0
  3342  0032B2                     _USART_TxChar:
  3343                           	callstack 29
  3344  0032B2                     l137:
  3345  0032B2  A89E               	btfss	3998,4,c	;volatile
  3346  0032B4  EF5E  F019         	goto	u5491
  3347  0032B8  EF60  F019         	goto	u5490
  3348  0032BC                     u5491:
  3349  0032BC  EF59  F019         	goto	l137
  3350  0032C0                     u5490:
  3351  0032C0                     
  3352                           ;main.c: 147:         for (uint8_t i = 0; i < strlen(out); i++) {
  3353  0032C0  0E00               	movlw	0
  3354  0032C2  6E09               	movwf	USART_TxChar@i^0,c
  3355  0032C4  EF7C  F019         	goto	l5475
  3356  0032C8                     l5471:
  3357                           
  3358                           ;main.c: 148:             TXREG = out[i];
  3359  0032C8  5009               	movf	USART_TxChar@i^0,w,c
  3360  0032CA  2405               	addwf	USART_TxChar@out^0,w,c
  3361  0032CC  6E07               	movwf	??_USART_TxChar^0,c
  3362  0032CE  0E00               	movlw	0
  3363  0032D0  2006               	addwfc	(USART_TxChar@out+1)^0,w,c
  3364  0032D2  6E08               	movwf	(??_USART_TxChar+1)^0,c
  3365  0032D4  C007  FFF6         	movff	??_USART_TxChar,tblptrl
  3366  0032D8  C008  FFF7         	movff	??_USART_TxChar+1,tblptrh
  3367  0032DC  6AF8               	clrf	tblptru,c
  3368  0032DE  0E07               	movlw	(high __ramtop+-1)
  3369  0032E0  64F7               	cpfsgt	tblptrh,c
  3370  0032E2  D003               	bra	u5507
  3371  0032E4  0008               	tblrd		*
  3372  0032E6  50F5               	movf	tablat,w,c
  3373  0032E8  D005               	bra	u5500
  3374  0032EA                     u5507:
  3375  0032EA  CFF6 FFE1          	movff	tblptrl,fsr1l
  3376  0032EE  CFF7 FFE2          	movff	tblptrh,fsr1h
  3377  0032F2  50E7               	movf	indf1,w,c
  3378  0032F4                     u5500:
  3379  0032F4  6EAD               	movwf	173,c	;volatile
  3380  0032F6                     
  3381                           ;main.c: 149:         }
  3382  0032F6  2A09               	incf	USART_TxChar@i^0,f,c
  3383  0032F8                     l5475:
  3384  0032F8  C005  F001         	movff	USART_TxChar@out,strlen@s
  3385  0032FC  C006  F002         	movff	USART_TxChar@out+1,strlen@s+1
  3386  003300  EC98  F01B         	call	_strlen	;wreg free
  3387  003304  5009               	movf	USART_TxChar@i^0,w,c
  3388  003306  6E07               	movwf	??_USART_TxChar^0,c
  3389  003308  6A08               	clrf	(??_USART_TxChar+1)^0,c
  3390  00330A  5001               	movf	?_strlen^0,w,c
  3391  00330C  5C07               	subwf	??_USART_TxChar^0,w,c
  3392  00330E  5002               	movf	(?_strlen+1)^0,w,c
  3393  003310  5808               	subwfb	(??_USART_TxChar+1)^0,w,c
  3394  003312  A0D8               	btfss	status,0,c
  3395  003314  EF8E  F019         	goto	u5511
  3396  003318  EF90  F019         	goto	u5510
  3397  00331C                     u5511:
  3398  00331C  EF64  F019         	goto	l5471
  3399  003320                     u5510:
  3400  003320  0012               	return		;funcret
  3401  003322                     __end_of_USART_TxChar:
  3402                           	callstack 0
  3403                           
  3404 ;; *************** function _strlen *****************
  3405 ;; Defined at:
  3406 ;;		line 5 in file "D:\Program Files\Microchip\xc8\v2.36\pic\sources\c99\common\strlen.c"
  3407 ;; Parameters:    Size  Location     Type
  3408 ;;  s               2    0[COMRAM] PTR const unsigned char 
  3409 ;;		 -> dbuf(32), STR_8(3), STR_5(3), data_buffer(20), 
  3410 ;;		 -> STR_2(3), UID_3(20), UID_2(20), UID_1(20), 
  3411 ;; Auto vars:     Size  Location     Type
  3412 ;;  a               2    2[COMRAM] PTR const unsigned char 
  3413 ;;		 -> dbuf(32), STR_8(3), STR_5(3), data_buffer(20), 
  3414 ;;		 -> STR_2(3), UID_3(20), UID_2(20), UID_1(20), 
  3415 ;; Return value:  Size  Location     Type
  3416 ;;                  2    0[COMRAM] unsigned int 
  3417 ;; Registers used:
  3418 ;;		wreg, fsr1l, fsr1h, status,2, status,0, tblptrl, tblptrh, tblptru
  3419 ;; Tracked objects:
  3420 ;;		On entry : 0/0
  3421 ;;		On exit  : 0/0
  3422 ;;		Unchanged: 0/0
  3423 ;; Data sizes:     COMRAM   BANK0   BANK1   BANK2   BANK3   BANK4   BANK5   BANK6   BANK7
  3424 ;;      Params:         2       0       0       0       0       0       0       0       0
  3425 ;;      Locals:         2       0       0       0       0       0       0       0       0
  3426 ;;      Temps:          0       0       0       0       0       0       0       0       0
  3427 ;;      Totals:         4       0       0       0       0       0       0       0       0
  3428 ;;Total ram usage:        4 bytes
  3429 ;; Hardware stack levels used: 1
  3430 ;; This function calls:
  3431 ;;		Nothing
  3432 ;; This function is called by:
  3433 ;;		_main
  3434 ;;		_USART_TxChar
  3435 ;;		_pad
  3436 ;; This function uses a non-reentrant model
  3437 ;;
  3438                           
  3439                           	psect	text14
  3440  003730                     __ptext14:
  3441                           	callstack 0
  3442  003730                     _strlen:
  3443                           	callstack 30
  3444  003730  C001  F003         	movff	strlen@s,strlen@a
  3445  003734  C002  F004         	movff	strlen@s+1,strlen@a+1
  3446  003738  EFA0  F01B         	goto	l3719
  3447  00373C                     l3717:
  3448  00373C  4A01               	infsnz	strlen@s^0,f,c
  3449  00373E  2A02               	incf	(strlen@s+1)^0,f,c
  3450  003740                     l3719:
  3451  003740  C001  FFF6         	movff	strlen@s,tblptrl
  3452  003744  C002  FFF7         	movff	strlen@s+1,tblptrh
  3453  003748  6AF8               	clrf	tblptru,c
  3454  00374A  0E07               	movlw	(high __ramtop+-1)
  3455  00374C  64F7               	cpfsgt	tblptrh,c
  3456  00374E  D003               	bra	u3027
  3457  003750  0008               	tblrd		*
  3458  003752  50F5               	movf	tablat,w,c
  3459  003754  D005               	bra	u3020
  3460  003756                     u3027:
  3461  003756  CFF6 FFE1          	movff	tblptrl,fsr1l
  3462  00375A  CFF7 FFE2          	movff	tblptrh,fsr1h
  3463  00375E  50E7               	movf	indf1,w,c
  3464  003760                     u3020:
  3465  003760  0900               	iorlw	0
  3466  003762  A4D8               	btfss	status,2,c
  3467  003764  EFB6  F01B         	goto	u3031
  3468  003768  EFB8  F01B         	goto	u3030
  3469  00376C                     u3031:
  3470  00376C  EF9E  F01B         	goto	l3717
  3471  003770                     u3030:
  3472  003770  5003               	movf	strlen@a^0,w,c
  3473  003772  5C01               	subwf	strlen@s^0,w,c
  3474  003774  6E01               	movwf	?_strlen^0,c
  3475  003776  5004               	movf	(strlen@a+1)^0,w,c
  3476  003778  5802               	subwfb	(strlen@s+1)^0,w,c
  3477  00377A  6E02               	movwf	(?_strlen+1)^0,c
  3478  00377C  0012               	return		;funcret
  3479  00377E                     __end_of_strlen:
  3480                           	callstack 0
  3481                           
  3482 ;; *************** function _USART_Init *****************
  3483 ;; Defined at:
  3484 ;;		line 131 in file "main.c"
  3485 ;; Parameters:    Size  Location     Type
  3486 ;;  baud_rate       4   55[COMRAM] long 
  3487 ;; Auto vars:     Size  Location     Type
  3488 ;;  temp            4   59[COMRAM] float 
  3489 ;; Return value:  Size  Location     Type
  3490 ;;                  1    wreg      void 
  3491 ;; Registers used:
  3492 ;;		wreg, status,2, status,0, cstack
  3493 ;; Tracked objects:
  3494 ;;		On entry : 0/0
  3495 ;;		On exit  : 0/0
  3496 ;;		Unchanged: 0/0
  3497 ;; Data sizes:     COMRAM   BANK0   BANK1   BANK2   BANK3   BANK4   BANK5   BANK6   BANK7
  3498 ;;      Params:         4       0       0       0       0       0       0       0       0
  3499 ;;      Locals:         4       0       0       0       0       0       0       0       0
  3500 ;;      Temps:          0       0       0       0       0       0       0       0       0
  3501 ;;      Totals:         8       0       0       0       0       0       0       0       0
  3502 ;;Total ram usage:        8 bytes
  3503 ;; Hardware stack levels used: 1
  3504 ;; Hardware stack levels required when called: 1
  3505 ;; This function calls:
  3506 ;;		___fladd
  3507 ;;		___fldiv
  3508 ;;		___fltol
  3509 ;;		___xxtofl
  3510 ;; This function is called by:
  3511 ;;		_main
  3512 ;; This function uses a non-reentrant model
  3513 ;;
  3514                           
  3515                           	psect	text15
  3516  002FB6                     __ptext15:
  3517                           	callstack 0
  3518  002FB6                     _USART_Init:
  3519                           	callstack 29
  3520  002FB6                     
  3521                           ;main.c: 132:     float temp;;main.c: 133:     TRISC6 = 0;
  3522  002FB6  9C94               	bcf	3988,6,c	;volatile
  3523                           
  3524                           ;main.c: 134:     TRISC7 = 1;
  3525  002FB8  8E94               	bsf	3988,7,c	;volatile
  3526  002FBA                     
  3527                           ;main.c: 135:     temp = (((float)(27000000/64)/(float)baud_rate)-1);
  3528  002FBA  C038  F001         	movff	USART_Init@baud_rate,___xxtofl@val
  3529  002FBE  C039  F002         	movff	USART_Init@baud_rate+1,___xxtofl@val+1
  3530  002FC2  C03A  F003         	movff	USART_Init@baud_rate+2,___xxtofl@val+2
  3531  002FC6  C03B  F004         	movff	USART_Init@baud_rate+3,___xxtofl@val+3
  3532  002FCA  0E01               	movlw	1
  3533  002FCC  EC35  F010         	call	___xxtofl
  3534  002FD0  C001  F013         	movff	?___xxtofl,___fldiv@a
  3535  002FD4  C002  F014         	movff	?___xxtofl+1,___fldiv@a+1
  3536  002FD8  C003  F015         	movff	?___xxtofl+2,___fldiv@a+2
  3537  002FDC  C004  F016         	movff	?___xxtofl+3,___fldiv@a+3
  3538  002FE0  0E60               	movlw	96
  3539  002FE2  6E0F               	movwf	___fldiv@b^0,c
  3540  002FE4  0EFE               	movlw	254
  3541  002FE6  6E10               	movwf	(___fldiv@b+1)^0,c
  3542  002FE8  0ECD               	movlw	205
  3543  002FEA  6E11               	movwf	(___fldiv@b+2)^0,c
  3544  002FEC  0E48               	movlw	72
  3545  002FEE  6E12               	movwf	(___fldiv@b+3)^0,c
  3546  002FF0  EC59  F008         	call	___fldiv	;wreg free
  3547  002FF4  C00F  F028         	movff	?___fldiv,___fladd@b
  3548  002FF8  C010  F029         	movff	?___fldiv+1,___fladd@b+1
  3549  002FFC  C011  F02A         	movff	?___fldiv+2,___fladd@b+2
  3550  003000  C012  F02B         	movff	?___fldiv+3,___fladd@b+3
  3551  003004  0E00               	movlw	0
  3552  003006  6E2C               	movwf	___fladd@a^0,c
  3553  003008  0E00               	movlw	0
  3554  00300A  6E2D               	movwf	(___fladd@a+1)^0,c
  3555  00300C  0E80               	movlw	128
  3556  00300E  6E2E               	movwf	(___fladd@a+2)^0,c
  3557  003010  0EBF               	movlw	191
  3558  003012  6E2F               	movwf	(___fladd@a+3)^0,c
  3559  003014  EC14  F004         	call	___fladd	;wreg free
  3560  003018  C028  F03C         	movff	?___fladd,USART_Init@temp
  3561  00301C  C029  F03D         	movff	?___fladd+1,USART_Init@temp+1
  3562  003020  C02A  F03E         	movff	?___fladd+2,USART_Init@temp+2
  3563  003024  C02B  F03F         	movff	?___fladd+3,USART_Init@temp+3
  3564                           
  3565                           ;main.c: 136:     SPBRG=(int)temp;
  3566  003028  C03C  F001         	movff	USART_Init@temp,___fltol@f1
  3567  00302C  C03D  F002         	movff	USART_Init@temp+1,___fltol@f1+1
  3568  003030  C03E  F003         	movff	USART_Init@temp+2,___fltol@f1+2
  3569  003034  C03F  F004         	movff	USART_Init@temp+3,___fltol@f1+3
  3570  003038  ECA9  F011         	call	___fltol	;wreg free
  3571  00303C  5001               	movf	?___fltol^0,w,c
  3572  00303E  6EAF               	movwf	175,c	;volatile
  3573  003040                     
  3574                           ;main.c: 137:     TXSTA = 0x20;
  3575  003040  0E20               	movlw	32
  3576  003042  6EAC               	movwf	172,c	;volatile
  3577  003044                     
  3578                           ;main.c: 138:     RCSTA = 0x90;
  3579  003044  0E90               	movlw	144
  3580  003046  6EAB               	movwf	171,c	;volatile
  3581  003048                     
  3582                           ;main.c: 139:     INTCONbits.GIE = 1;
  3583  003048  8EF2               	bsf	242,7,c	;volatile
  3584  00304A                     
  3585                           ;main.c: 140:     INTCONbits.PEIE = 1;
  3586  00304A  8CF2               	bsf	242,6,c	;volatile
  3587  00304C                     
  3588                           ;main.c: 141:     PIE1bits.RCIE = 1;
  3589  00304C  8A9D               	bsf	157,5,c	;volatile
  3590  00304E                     
  3591                           ;main.c: 142:     PIE1bits.TXIE = 1;
  3592  00304E  889D               	bsf	157,4,c	;volatile
  3593  003050  0012               	return		;funcret
  3594  003052                     __end_of_USART_Init:
  3595                           	callstack 0
  3596                           
  3597 ;; *************** function ___xxtofl *****************
  3598 ;; Defined at:
  3599 ;;		line 10 in file "D:\Program Files\Microchip\xc8\v2.36\pic\sources\c99\common\xxtofl.c"
  3600 ;; Parameters:    Size  Location     Type
  3601 ;;  sign            1    wreg     unsigned char 
  3602 ;;  val             4    0[COMRAM] long 
  3603 ;; Auto vars:     Size  Location     Type
  3604 ;;  sign            1    8[COMRAM] unsigned char 
  3605 ;;  arg             4   10[COMRAM] unsigned long 
  3606 ;;  exp             1    9[COMRAM] unsigned char 
  3607 ;; Return value:  Size  Location     Type
  3608 ;;                  4    0[COMRAM] unsigned char 
  3609 ;; Registers used:
  3610 ;;		wreg, status,2, status,0
  3611 ;; Tracked objects:
  3612 ;;		On entry : 0/0
  3613 ;;		On exit  : 0/0
  3614 ;;		Unchanged: 0/0
  3615 ;; Data sizes:     COMRAM   BANK0   BANK1   BANK2   BANK3   BANK4   BANK5   BANK6   BANK7
  3616 ;;      Params:         4       0       0       0       0       0       0       0       0
  3617 ;;      Locals:         6       0       0       0       0       0       0       0       0
  3618 ;;      Temps:          4       0       0       0       0       0       0       0       0
  3619 ;;      Totals:        14       0       0       0       0       0       0       0       0
  3620 ;;Total ram usage:       14 bytes
  3621 ;; Hardware stack levels used: 1
  3622 ;; This function calls:
  3623 ;;		Nothing
  3624 ;; This function is called by:
  3625 ;;		_USART_Init
  3626 ;; This function uses a non-reentrant model
  3627 ;;
  3628                           
  3629                           	psect	text16
  3630  00206A                     __ptext16:
  3631                           	callstack 0
  3632  00206A                     ___xxtofl:
  3633                           	callstack 29
  3634                           
  3635                           ;incstack = 0
  3636                           ;___xxtofl@sign stored from wreg
  3637  00206A  6E09               	movwf	___xxtofl@sign^0,c
  3638  00206C  5009               	movf	___xxtofl@sign^0,w,c
  3639  00206E  B4D8               	btfsc	status,2,c
  3640  002070  EF3C  F010         	goto	u5331
  3641  002074  EF3E  F010         	goto	u5330
  3642  002078                     u5331:
  3643  002078  EF60  F010         	goto	l1328
  3644  00207C                     u5330:
  3645  00207C  BE04               	btfsc	(___xxtofl@val+3)^0,7,c
  3646  00207E  EF45  F010         	goto	u5340
  3647  002082  EF43  F010         	goto	u5341
  3648  002086                     u5341:
  3649  002086  EF60  F010         	goto	l1328
  3650  00208A                     u5340:
  3651  00208A  C001  F005         	movff	___xxtofl@val,??___xxtofl
  3652  00208E  C002  F006         	movff	___xxtofl@val+1,??___xxtofl+1
  3653  002092  C003  F007         	movff	___xxtofl@val+2,??___xxtofl+2
  3654  002096  C004  F008         	movff	___xxtofl@val+3,??___xxtofl+3
  3655  00209A  1E05               	comf	??___xxtofl^0,f,c
  3656  00209C  1E06               	comf	(??___xxtofl+1)^0,f,c
  3657  00209E  1E07               	comf	(??___xxtofl+2)^0,f,c
  3658  0020A0  1E08               	comf	(??___xxtofl+3)^0,f,c
  3659  0020A2  2A05               	incf	??___xxtofl^0,f,c
  3660  0020A4  0E00               	movlw	0
  3661  0020A6  2206               	addwfc	(??___xxtofl+1)^0,f,c
  3662  0020A8  2207               	addwfc	(??___xxtofl+2)^0,f,c
  3663  0020AA  2208               	addwfc	(??___xxtofl+3)^0,f,c
  3664  0020AC  C005  F00B         	movff	??___xxtofl,___xxtofl@arg
  3665  0020B0  C006  F00C         	movff	??___xxtofl+1,___xxtofl@arg+1
  3666  0020B4  C007  F00D         	movff	??___xxtofl+2,___xxtofl@arg+2
  3667  0020B8  C008  F00E         	movff	??___xxtofl+3,___xxtofl@arg+3
  3668  0020BC  EF68  F010         	goto	l5293
  3669  0020C0                     l1328:
  3670  0020C0  C001  F00B         	movff	___xxtofl@val,___xxtofl@arg
  3671  0020C4  C002  F00C         	movff	___xxtofl@val+1,___xxtofl@arg+1
  3672  0020C8  C003  F00D         	movff	___xxtofl@val+2,___xxtofl@arg+2
  3673  0020CC  C004  F00E         	movff	___xxtofl@val+3,___xxtofl@arg+3
  3674  0020D0                     l5293:
  3675  0020D0  5001               	movf	___xxtofl@val^0,w,c
  3676  0020D2  1002               	iorwf	(___xxtofl@val+1)^0,w,c
  3677  0020D4  1003               	iorwf	(___xxtofl@val+2)^0,w,c
  3678  0020D6  1004               	iorwf	(___xxtofl@val+3)^0,w,c
  3679  0020D8  A4D8               	btfss	status,2,c
  3680  0020DA  EF71  F010         	goto	u5351
  3681  0020DE  EF73  F010         	goto	u5350
  3682  0020E2                     u5351:
  3683  0020E2  EF7D  F010         	goto	l5299
  3684  0020E6                     u5350:
  3685  0020E6  0E00               	movlw	0
  3686  0020E8  6E01               	movwf	?___xxtofl^0,c
  3687  0020EA  0E00               	movlw	0
  3688  0020EC  6E02               	movwf	(?___xxtofl+1)^0,c
  3689  0020EE  0E00               	movlw	0
  3690  0020F0  6E03               	movwf	(?___xxtofl+2)^0,c
  3691  0020F2  0E00               	movlw	0
  3692  0020F4  6E04               	movwf	(?___xxtofl+3)^0,c
  3693  0020F6  EF0E  F011         	goto	l1331
  3694  0020FA                     l5299:
  3695  0020FA  0E96               	movlw	150
  3696  0020FC  6E0A               	movwf	___xxtofl@exp^0,c
  3697  0020FE  EF87  F010         	goto	l5303
  3698  002102                     l5301:
  3699  002102  2A0A               	incf	___xxtofl@exp^0,f,c
  3700  002104  90D8               	bcf	status,0,c
  3701  002106  320E               	rrcf	(___xxtofl@arg+3)^0,f,c
  3702  002108  320D               	rrcf	(___xxtofl@arg+2)^0,f,c
  3703  00210A  320C               	rrcf	(___xxtofl@arg+1)^0,f,c
  3704  00210C  320B               	rrcf	___xxtofl@arg^0,f,c
  3705  00210E                     l5303:
  3706  00210E  0E00               	movlw	0
  3707  002110  140B               	andwf	___xxtofl@arg^0,w,c
  3708  002112  6E05               	movwf	??___xxtofl^0,c
  3709  002114  0E00               	movlw	0
  3710  002116  140C               	andwf	(___xxtofl@arg+1)^0,w,c
  3711  002118  6E06               	movwf	(??___xxtofl+1)^0,c
  3712  00211A  0E00               	movlw	0
  3713  00211C  140D               	andwf	(___xxtofl@arg+2)^0,w,c
  3714  00211E  6E07               	movwf	(??___xxtofl+2)^0,c
  3715  002120  0EFE               	movlw	254
  3716  002122  140E               	andwf	(___xxtofl@arg+3)^0,w,c
  3717  002124  6E08               	movwf	(??___xxtofl+3)^0,c
  3718  002126  5005               	movf	??___xxtofl^0,w,c
  3719  002128  1006               	iorwf	(??___xxtofl+1)^0,w,c
  3720  00212A  1007               	iorwf	(??___xxtofl+2)^0,w,c
  3721  00212C  1008               	iorwf	(??___xxtofl+3)^0,w,c
  3722  00212E  A4D8               	btfss	status,2,c
  3723  002130  EF9C  F010         	goto	u5361
  3724  002134  EF9E  F010         	goto	u5360
  3725  002138                     u5361:
  3726  002138  EF81  F010         	goto	l5301
  3727  00213C                     u5360:
  3728  00213C  EFAC  F010         	goto	l1335
  3729  002140                     l5305:
  3730  002140  2A0A               	incf	___xxtofl@exp^0,f,c
  3731  002142  0E01               	movlw	1
  3732  002144  260B               	addwf	___xxtofl@arg^0,f,c
  3733  002146  0E00               	movlw	0
  3734  002148  220C               	addwfc	(___xxtofl@arg+1)^0,f,c
  3735  00214A  220D               	addwfc	(___xxtofl@arg+2)^0,f,c
  3736  00214C  220E               	addwfc	(___xxtofl@arg+3)^0,f,c
  3737  00214E  90D8               	bcf	status,0,c
  3738  002150  320E               	rrcf	(___xxtofl@arg+3)^0,f,c
  3739  002152  320D               	rrcf	(___xxtofl@arg+2)^0,f,c
  3740  002154  320C               	rrcf	(___xxtofl@arg+1)^0,f,c
  3741  002156  320B               	rrcf	___xxtofl@arg^0,f,c
  3742  002158                     l1335:
  3743  002158  0E00               	movlw	0
  3744  00215A  140B               	andwf	___xxtofl@arg^0,w,c
  3745  00215C  6E05               	movwf	??___xxtofl^0,c
  3746  00215E  0E00               	movlw	0
  3747  002160  140C               	andwf	(___xxtofl@arg+1)^0,w,c
  3748  002162  6E06               	movwf	(??___xxtofl+1)^0,c
  3749  002164  0E00               	movlw	0
  3750  002166  140D               	andwf	(___xxtofl@arg+2)^0,w,c
  3751  002168  6E07               	movwf	(??___xxtofl+2)^0,c
  3752  00216A  0EFF               	movlw	255
  3753  00216C  140E               	andwf	(___xxtofl@arg+3)^0,w,c
  3754  00216E  6E08               	movwf	(??___xxtofl+3)^0,c
  3755  002170  5005               	movf	??___xxtofl^0,w,c
  3756  002172  1006               	iorwf	(??___xxtofl+1)^0,w,c
  3757  002174  1007               	iorwf	(??___xxtofl+2)^0,w,c
  3758  002176  1008               	iorwf	(??___xxtofl+3)^0,w,c
  3759  002178  A4D8               	btfss	status,2,c
  3760  00217A  EFC1  F010         	goto	u5371
  3761  00217E  EFC3  F010         	goto	u5370
  3762  002182                     u5371:
  3763  002182  EFA0  F010         	goto	l5305
  3764  002186                     u5370:
  3765  002186  EFCB  F010         	goto	l5313
  3766  00218A                     l5311:
  3767  00218A  060A               	decf	___xxtofl@exp^0,f,c
  3768  00218C  90D8               	bcf	status,0,c
  3769  00218E  360B               	rlcf	___xxtofl@arg^0,f,c
  3770  002190  360C               	rlcf	(___xxtofl@arg+1)^0,f,c
  3771  002192  360D               	rlcf	(___xxtofl@arg+2)^0,f,c
  3772  002194  360E               	rlcf	(___xxtofl@arg+3)^0,f,c
  3773  002196                     l5313:
  3774  002196  BE0D               	btfsc	(___xxtofl@arg+2)^0,7,c
  3775  002198  EFD0  F010         	goto	u5381
  3776  00219C  EFD2  F010         	goto	u5380
  3777  0021A0                     u5381:
  3778  0021A0  EFDA  F010         	goto	l1342
  3779  0021A4                     u5380:
  3780  0021A4  0E02               	movlw	2
  3781  0021A6  600A               	cpfslt	___xxtofl@exp^0,c
  3782  0021A8  EFD8  F010         	goto	u5391
  3783  0021AC  EFDA  F010         	goto	u5390
  3784  0021B0                     u5391:
  3785  0021B0  EFC5  F010         	goto	l5311
  3786  0021B4                     u5390:
  3787  0021B4                     l1342:
  3788  0021B4  B00A               	btfsc	___xxtofl@exp^0,0,c
  3789  0021B6  EFDF  F010         	goto	u5401
  3790  0021BA  EFE1  F010         	goto	u5400
  3791  0021BE                     u5401:
  3792  0021BE  EFE2  F010         	goto	l5319
  3793  0021C2                     u5400:
  3794  0021C2  9E0D               	bcf	(___xxtofl@arg+2)^0,7,c
  3795  0021C4                     l5319:
  3796  0021C4  90D8               	bcf	status,0,c
  3797  0021C6  320A               	rrcf	___xxtofl@exp^0,f,c
  3798  0021C8  C00A  F005         	movff	___xxtofl@exp,??___xxtofl
  3799  0021CC  6A06               	clrf	(??___xxtofl+1)^0,c
  3800  0021CE  6A07               	clrf	(??___xxtofl+2)^0,c
  3801  0021D0  6A08               	clrf	(??___xxtofl+3)^0,c
  3802  0021D2  C005  F008         	movff	??___xxtofl,??___xxtofl+3
  3803  0021D6  6A07               	clrf	(??___xxtofl+2)^0,c
  3804  0021D8  6A06               	clrf	(??___xxtofl+1)^0,c
  3805  0021DA  6A05               	clrf	??___xxtofl^0,c
  3806  0021DC  5005               	movf	??___xxtofl^0,w,c
  3807  0021DE  120B               	iorwf	___xxtofl@arg^0,f,c
  3808  0021E0  5006               	movf	(??___xxtofl+1)^0,w,c
  3809  0021E2  120C               	iorwf	(___xxtofl@arg+1)^0,f,c
  3810  0021E4  5007               	movf	(??___xxtofl+2)^0,w,c
  3811  0021E6  120D               	iorwf	(___xxtofl@arg+2)^0,f,c
  3812  0021E8  5008               	movf	(??___xxtofl+3)^0,w,c
  3813  0021EA  120E               	iorwf	(___xxtofl@arg+3)^0,f,c
  3814  0021EC  5009               	movf	___xxtofl@sign^0,w,c
  3815  0021EE  B4D8               	btfsc	status,2,c
  3816  0021F0  EFFC  F010         	goto	u5411
  3817  0021F4  EFFE  F010         	goto	u5410
  3818  0021F8                     u5411:
  3819  0021F8  EF06  F011         	goto	l5329
  3820  0021FC                     u5410:
  3821  0021FC  BE04               	btfsc	(___xxtofl@val+3)^0,7,c
  3822  0021FE  EF05  F011         	goto	u5420
  3823  002202  EF03  F011         	goto	u5421
  3824  002206                     u5421:
  3825  002206  EF06  F011         	goto	l5329
  3826  00220A                     u5420:
  3827  00220A  8E0E               	bsf	(___xxtofl@arg+3)^0,7,c
  3828  00220C                     l5329:
  3829  00220C  C00B  F001         	movff	___xxtofl@arg,?___xxtofl
  3830  002210  C00C  F002         	movff	___xxtofl@arg+1,?___xxtofl+1
  3831  002214  C00D  F003         	movff	___xxtofl@arg+2,?___xxtofl+2
  3832  002218  C00E  F004         	movff	___xxtofl@arg+3,?___xxtofl+3
  3833  00221C                     l1331:
  3834  00221C  0012               	return		;funcret
  3835  00221E                     __end_of___xxtofl:
  3836                           	callstack 0
  3837                           
  3838 ;; *************** function ___fltol *****************
  3839 ;; Defined at:
  3840 ;;		line 43 in file "D:\Program Files\Microchip\xc8\v2.36\pic\sources\c99\common\fltol.c"
  3841 ;; Parameters:    Size  Location     Type
  3842 ;;  f1              4    0[COMRAM] unsigned char 
  3843 ;; Auto vars:     Size  Location     Type
  3844 ;;  exp1            1    9[COMRAM] unsigned char 
  3845 ;;  sign1           1    8[COMRAM] unsigned char 
  3846 ;; Return value:  Size  Location     Type
  3847 ;;                  4    0[COMRAM] long 
  3848 ;; Registers used:
  3849 ;;		wreg, status,2, status,0
  3850 ;; Tracked objects:
  3851 ;;		On entry : 0/0
  3852 ;;		On exit  : 0/0
  3853 ;;		Unchanged: 0/0
  3854 ;; Data sizes:     COMRAM   BANK0   BANK1   BANK2   BANK3   BANK4   BANK5   BANK6   BANK7
  3855 ;;      Params:         4       0       0       0       0       0       0       0       0
  3856 ;;      Locals:         2       0       0       0       0       0       0       0       0
  3857 ;;      Temps:          4       0       0       0       0       0       0       0       0
  3858 ;;      Totals:        10       0       0       0       0       0       0       0       0
  3859 ;;Total ram usage:       10 bytes
  3860 ;; Hardware stack levels used: 1
  3861 ;; This function calls:
  3862 ;;		Nothing
  3863 ;; This function is called by:
  3864 ;;		_USART_Init
  3865 ;; This function uses a non-reentrant model
  3866 ;;
  3867                           
  3868                           	psect	text17
  3869  002352                     __ptext17:
  3870                           	callstack 0
  3871  002352                     ___fltol:
  3872                           	callstack 29
  3873  002352  3403               	rlcf	(___fltol@f1+2)^0,w,c
  3874  002354  3404               	rlcf	(___fltol@f1+3)^0,w,c
  3875  002356  6E0A               	movwf	___fltol@exp1^0,c
  3876  002358  500A               	movf	___fltol@exp1^0,w,c
  3877  00235A  A4D8               	btfss	status,2,c
  3878  00235C  EFB2  F011         	goto	u5261
  3879  002360  EFB4  F011         	goto	u5260
  3880  002364                     u5261:
  3881  002364  EFBE  F011         	goto	l5249
  3882  002368                     u5260:
  3883  002368                     l5245:
  3884  002368  0E00               	movlw	0
  3885  00236A  6E01               	movwf	?___fltol^0,c
  3886  00236C  0E00               	movlw	0
  3887  00236E  6E02               	movwf	(?___fltol+1)^0,c
  3888  002370  0E00               	movlw	0
  3889  002372  6E03               	movwf	(?___fltol+2)^0,c
  3890  002374  0E00               	movlw	0
  3891  002376  6E04               	movwf	(?___fltol+3)^0,c
  3892  002378  EF2B  F012         	goto	l970
  3893  00237C                     l5249:
  3894  00237C  C001  F005         	movff	___fltol@f1,??___fltol
  3895  002380  C002  F006         	movff	___fltol@f1+1,??___fltol+1
  3896  002384  C003  F007         	movff	___fltol@f1+2,??___fltol+2
  3897  002388  C004  F008         	movff	___fltol@f1+3,??___fltol+3
  3898  00238C  0E20               	movlw	32
  3899  00238E  EFCE  F011         	goto	u5270
  3900  002392                     u5275:
  3901  002392  90D8               	bcf	status,0,c
  3902  002394  3208               	rrcf	(??___fltol+3)^0,f,c
  3903  002396  3207               	rrcf	(??___fltol+2)^0,f,c
  3904  002398  3206               	rrcf	(??___fltol+1)^0,f,c
  3905  00239A  3205               	rrcf	??___fltol^0,f,c
  3906  00239C                     u5270:
  3907  00239C  2EE8               	decfsz	wreg,f,c
  3908  00239E  EFC9  F011         	goto	u5275
  3909  0023A2  5005               	movf	??___fltol^0,w,c
  3910  0023A4  6E09               	movwf	___fltol@sign1^0,c
  3911  0023A6  8E03               	bsf	(___fltol@f1+2)^0,7,c
  3912  0023A8  0EFF               	movlw	255
  3913  0023AA  1601               	andwf	___fltol@f1^0,f,c
  3914  0023AC  0EFF               	movlw	255
  3915  0023AE  1602               	andwf	(___fltol@f1+1)^0,f,c
  3916  0023B0  0EFF               	movlw	255
  3917  0023B2  1603               	andwf	(___fltol@f1+2)^0,f,c
  3918  0023B4  0E00               	movlw	0
  3919  0023B6  1604               	andwf	(___fltol@f1+3)^0,f,c
  3920  0023B8  0E96               	movlw	150
  3921  0023BA  5E0A               	subwf	___fltol@exp1^0,f,c
  3922  0023BC  BE0A               	btfsc	___fltol@exp1^0,7,c
  3923  0023BE  EFE5  F011         	goto	u5280
  3924  0023C2  EFE3  F011         	goto	u5281
  3925  0023C6                     u5281:
  3926  0023C6  EFFB  F011         	goto	l5269
  3927  0023CA                     u5280:
  3928  0023CA  500A               	movf	___fltol@exp1^0,w,c
  3929  0023CC  0A80               	xorlw	128
  3930  0023CE  0F97               	addlw	151
  3931  0023D0  B0D8               	btfsc	status,0,c
  3932  0023D2  EFED  F011         	goto	u5291
  3933  0023D6  EFEF  F011         	goto	u5290
  3934  0023DA                     u5291:
  3935  0023DA  EFF1  F011         	goto	l5265
  3936  0023DE                     u5290:
  3937  0023DE  EFB4  F011         	goto	l5245
  3938  0023E2                     l5265:
  3939  0023E2  90D8               	bcf	status,0,c
  3940  0023E4  3204               	rrcf	(___fltol@f1+3)^0,f,c
  3941  0023E6  3203               	rrcf	(___fltol@f1+2)^0,f,c
  3942  0023E8  3202               	rrcf	(___fltol@f1+1)^0,f,c
  3943  0023EA  3201               	rrcf	___fltol@f1^0,f,c
  3944  0023EC  3E0A               	incfsz	___fltol@exp1^0,f,c
  3945  0023EE  EFF1  F011         	goto	l5265
  3946  0023F2  EF13  F012         	goto	l5279
  3947  0023F6                     l5269:
  3948  0023F6  0E1F               	movlw	31
  3949  0023F8  640A               	cpfsgt	___fltol@exp1^0,c
  3950  0023FA  EF01  F012         	goto	u5301
  3951  0023FE  EF03  F012         	goto	u5300
  3952  002402                     u5301:
  3953  002402  EF0B  F012         	goto	l5277
  3954  002406                     u5300:
  3955  002406  EFB4  F011         	goto	l5245
  3956  00240A                     l5275:
  3957  00240A  90D8               	bcf	status,0,c
  3958  00240C  3601               	rlcf	___fltol@f1^0,f,c
  3959  00240E  3602               	rlcf	(___fltol@f1+1)^0,f,c
  3960  002410  3603               	rlcf	(___fltol@f1+2)^0,f,c
  3961  002412  3604               	rlcf	(___fltol@f1+3)^0,f,c
  3962  002414  060A               	decf	___fltol@exp1^0,f,c
  3963  002416                     l5277:
  3964  002416  500A               	movf	___fltol@exp1^0,w,c
  3965  002418  A4D8               	btfss	status,2,c
  3966  00241A  EF11  F012         	goto	u5311
  3967  00241E  EF13  F012         	goto	u5310
  3968  002422                     u5311:
  3969  002422  EF05  F012         	goto	l5275
  3970  002426                     u5310:
  3971  002426                     l5279:
  3972  002426  5009               	movf	___fltol@sign1^0,w,c
  3973  002428  B4D8               	btfsc	status,2,c
  3974  00242A  EF19  F012         	goto	u5321
  3975  00242E  EF1B  F012         	goto	u5320
  3976  002432                     u5321:
  3977  002432  EF23  F012         	goto	l5283
  3978  002436                     u5320:
  3979  002436  1E04               	comf	(___fltol@f1+3)^0,f,c
  3980  002438  1E03               	comf	(___fltol@f1+2)^0,f,c
  3981  00243A  1E02               	comf	(___fltol@f1+1)^0,f,c
  3982  00243C  6C01               	negf	___fltol@f1^0,c
  3983  00243E  0E00               	movlw	0
  3984  002440  2202               	addwfc	(___fltol@f1+1)^0,f,c
  3985  002442  2203               	addwfc	(___fltol@f1+2)^0,f,c
  3986  002444  2204               	addwfc	(___fltol@f1+3)^0,f,c
  3987  002446                     l5283:
  3988  002446  C001  F001         	movff	___fltol@f1,?___fltol
  3989  00244A  C002  F002         	movff	___fltol@f1+1,?___fltol+1
  3990  00244E  C003  F003         	movff	___fltol@f1+2,?___fltol+2
  3991  002452  C004  F004         	movff	___fltol@f1+3,?___fltol+3
  3992  002456                     l970:
  3993  002456  0012               	return		;funcret
  3994  002458                     __end_of___fltol:
  3995                           	callstack 0
  3996                           
  3997 ;; *************** function ___fldiv *****************
  3998 ;; Defined at:
  3999 ;;		line 11 in file "D:\Program Files\Microchip\xc8\v2.36\pic\sources\c99\common\sprcdiv.c"
  4000 ;; Parameters:    Size  Location     Type
  4001 ;;  b               4   14[COMRAM] long 
  4002 ;;  a               4   18[COMRAM] long 
  4003 ;; Auto vars:     Size  Location     Type
  4004 ;;  grs             4   33[COMRAM] unsigned long 
  4005 ;;  rem             4   26[COMRAM] unsigned long 
  4006 ;;  new_exp         2   31[COMRAM] short 
  4007 ;;  aexp            1   38[COMRAM] unsigned char 
  4008 ;;  bexp            1   37[COMRAM] unsigned char 
  4009 ;;  sign            1   30[COMRAM] unsigned char 
  4010 ;; Return value:  Size  Location     Type
  4011 ;;                  4   14[COMRAM] unsigned char 
  4012 ;; Registers used:
  4013 ;;		wreg, status,2, status,0
  4014 ;; Tracked objects:
  4015 ;;		On entry : 0/0
  4016 ;;		On exit  : 0/0
  4017 ;;		Unchanged: 0/0
  4018 ;; Data sizes:     COMRAM   BANK0   BANK1   BANK2   BANK3   BANK4   BANK5   BANK6   BANK7
  4019 ;;      Params:         8       0       0       0       0       0       0       0       0
  4020 ;;      Locals:        13       0       0       0       0       0       0       0       0
  4021 ;;      Temps:          4       0       0       0       0       0       0       0       0
  4022 ;;      Totals:        25       0       0       0       0       0       0       0       0
  4023 ;;Total ram usage:       25 bytes
  4024 ;; Hardware stack levels used: 1
  4025 ;; This function calls:
  4026 ;;		Nothing
  4027 ;; This function is called by:
  4028 ;;		_USART_Init
  4029 ;; This function uses a non-reentrant model
  4030 ;;
  4031                           
  4032                           	psect	text18
  4033  0010B2                     __ptext18:
  4034                           	callstack 0
  4035  0010B2                     ___fldiv:
  4036                           	callstack 29
  4037  0010B2  5012               	movf	(___fldiv@b+3)^0,w,c
  4038  0010B4  0B80               	andlw	128
  4039  0010B6  6E1F               	movwf	___fldiv@sign^0,c
  4040  0010B8  5012               	movf	(___fldiv@b+3)^0,w,c
  4041  0010BA  2412               	addwf	(___fldiv@b+3)^0,w,c
  4042  0010BC  6E26               	movwf	___fldiv@bexp^0,c
  4043  0010BE  AE11               	btfss	(___fldiv@b+2)^0,7,c
  4044  0010C0  EF64  F008         	goto	u5031
  4045  0010C4  EF66  F008         	goto	u5030
  4046  0010C8                     u5031:
  4047  0010C8  EF67  F008         	goto	l5111
  4048  0010CC                     u5030:
  4049  0010CC  8026               	bsf	___fldiv@bexp^0,0,c
  4050  0010CE                     l5111:
  4051  0010CE  5026               	movf	___fldiv@bexp^0,w,c
  4052  0010D0  B4D8               	btfsc	status,2,c
  4053  0010D2  EF6D  F008         	goto	u5041
  4054  0010D6  EF6F  F008         	goto	u5040
  4055  0010DA                     u5041:
  4056  0010DA  EF84  F008         	goto	l5121
  4057  0010DE                     u5040:
  4058  0010DE  2826               	incf	___fldiv@bexp^0,w,c
  4059  0010E0  A4D8               	btfss	status,2,c
  4060  0010E2  EF75  F008         	goto	u5051
  4061  0010E6  EF77  F008         	goto	u5050
  4062  0010EA                     u5051:
  4063  0010EA  EF7F  F008         	goto	l5117
  4064  0010EE                     u5050:
  4065  0010EE  0E00               	movlw	0
  4066  0010F0  6E0F               	movwf	___fldiv@b^0,c
  4067  0010F2  0E00               	movlw	0
  4068  0010F4  6E10               	movwf	(___fldiv@b+1)^0,c
  4069  0010F6  0E00               	movlw	0
  4070  0010F8  6E11               	movwf	(___fldiv@b+2)^0,c
  4071  0010FA  0E00               	movlw	0
  4072  0010FC  6E12               	movwf	(___fldiv@b+3)^0,c
  4073  0010FE                     l5117:
  4074  0010FE  8E11               	bsf	(___fldiv@b+2)^0,7,c
  4075  001100  0E00               	movlw	0
  4076  001102  6E12               	movwf	(___fldiv@b+3)^0,c
  4077  001104  EF8C  F008         	goto	l5123
  4078  001108                     l5121:
  4079  001108  0E00               	movlw	0
  4080  00110A  6E0F               	movwf	___fldiv@b^0,c
  4081  00110C  0E00               	movlw	0
  4082  00110E  6E10               	movwf	(___fldiv@b+1)^0,c
  4083  001110  0E00               	movlw	0
  4084  001112  6E11               	movwf	(___fldiv@b+2)^0,c
  4085  001114  0E00               	movlw	0
  4086  001116  6E12               	movwf	(___fldiv@b+3)^0,c
  4087  001118                     l5123:
  4088  001118  5016               	movf	(___fldiv@a+3)^0,w,c
  4089  00111A  0B80               	andlw	128
  4090  00111C  1A1F               	xorwf	___fldiv@sign^0,f,c
  4091  00111E  5016               	movf	(___fldiv@a+3)^0,w,c
  4092  001120  2416               	addwf	(___fldiv@a+3)^0,w,c
  4093  001122  6E27               	movwf	___fldiv@aexp^0,c
  4094  001124  AE15               	btfss	(___fldiv@a+2)^0,7,c
  4095  001126  EF97  F008         	goto	u5061
  4096  00112A  EF99  F008         	goto	u5060
  4097  00112E                     u5061:
  4098  00112E  EF9A  F008         	goto	l5131
  4099  001132                     u5060:
  4100  001132  8027               	bsf	___fldiv@aexp^0,0,c
  4101  001134                     l5131:
  4102  001134  5027               	movf	___fldiv@aexp^0,w,c
  4103  001136  B4D8               	btfsc	status,2,c
  4104  001138  EFA0  F008         	goto	u5071
  4105  00113C  EFA2  F008         	goto	u5070
  4106  001140                     u5071:
  4107  001140  EFB7  F008         	goto	l5141
  4108  001144                     u5070:
  4109  001144  2827               	incf	___fldiv@aexp^0,w,c
  4110  001146  A4D8               	btfss	status,2,c
  4111  001148  EFA8  F008         	goto	u5081
  4112  00114C  EFAA  F008         	goto	u5080
  4113  001150                     u5081:
  4114  001150  EFB2  F008         	goto	l5137
  4115  001154                     u5080:
  4116  001154  0E00               	movlw	0
  4117  001156  6E13               	movwf	___fldiv@a^0,c
  4118  001158  0E00               	movlw	0
  4119  00115A  6E14               	movwf	(___fldiv@a+1)^0,c
  4120  00115C  0E00               	movlw	0
  4121  00115E  6E15               	movwf	(___fldiv@a+2)^0,c
  4122  001160  0E00               	movlw	0
  4123  001162  6E16               	movwf	(___fldiv@a+3)^0,c
  4124  001164                     l5137:
  4125  001164  8E15               	bsf	(___fldiv@a+2)^0,7,c
  4126  001166  0E00               	movlw	0
  4127  001168  6E16               	movwf	(___fldiv@a+3)^0,c
  4128  00116A  EFBF  F008         	goto	l5143
  4129  00116E                     l5141:
  4130  00116E  0E00               	movlw	0
  4131  001170  6E13               	movwf	___fldiv@a^0,c
  4132  001172  0E00               	movlw	0
  4133  001174  6E14               	movwf	(___fldiv@a+1)^0,c
  4134  001176  0E00               	movlw	0
  4135  001178  6E15               	movwf	(___fldiv@a+2)^0,c
  4136  00117A  0E00               	movlw	0
  4137  00117C  6E16               	movwf	(___fldiv@a+3)^0,c
  4138  00117E                     l5143:
  4139  00117E  5013               	movf	___fldiv@a^0,w,c
  4140  001180  1014               	iorwf	(___fldiv@a+1)^0,w,c
  4141  001182  1015               	iorwf	(___fldiv@a+2)^0,w,c
  4142  001184  1016               	iorwf	(___fldiv@a+3)^0,w,c
  4143  001186  A4D8               	btfss	status,2,c
  4144  001188  EFC8  F008         	goto	u5091
  4145  00118C  EFCA  F008         	goto	u5090
  4146  001190                     u5091:
  4147  001190  EFE2  F008         	goto	l5155
  4148  001194                     u5090:
  4149  001194  0E00               	movlw	0
  4150  001196  6E0F               	movwf	___fldiv@b^0,c
  4151  001198  0E00               	movlw	0
  4152  00119A  6E10               	movwf	(___fldiv@b+1)^0,c
  4153  00119C  0E00               	movlw	0
  4154  00119E  6E11               	movwf	(___fldiv@b+2)^0,c
  4155  0011A0  0E00               	movlw	0
  4156  0011A2  6E12               	movwf	(___fldiv@b+3)^0,c
  4157  0011A4  0E80               	movlw	128
  4158  0011A6  1211               	iorwf	(___fldiv@b+2)^0,f,c
  4159  0011A8  0E7F               	movlw	127
  4160  0011AA  1212               	iorwf	(___fldiv@b+3)^0,f,c
  4161  0011AC                     l5149:
  4162  0011AC  501F               	movf	___fldiv@sign^0,w,c
  4163  0011AE  1212               	iorwf	(___fldiv@b+3)^0,f,c
  4164  0011B0  C00F  F00F         	movff	___fldiv@b,?___fldiv
  4165  0011B4  C010  F010         	movff	___fldiv@b+1,?___fldiv+1
  4166  0011B8  C011  F011         	movff	___fldiv@b+2,?___fldiv+2
  4167  0011BC  C012  F012         	movff	___fldiv@b+3,?___fldiv+3
  4168  0011C0  EF25  F00A         	goto	l1255
  4169  0011C4                     l5155:
  4170  0011C4  5026               	movf	___fldiv@bexp^0,w,c
  4171  0011C6  A4D8               	btfss	status,2,c
  4172  0011C8  EFE8  F008         	goto	u5101
  4173  0011CC  EFEA  F008         	goto	u5100
  4174  0011D0                     u5101:
  4175  0011D0  EFF4  F008         	goto	l5163
  4176  0011D4                     u5100:
  4177  0011D4  0E00               	movlw	0
  4178  0011D6  6E0F               	movwf	?___fldiv^0,c
  4179  0011D8  0E00               	movlw	0
  4180  0011DA  6E10               	movwf	(?___fldiv+1)^0,c
  4181  0011DC  0E00               	movlw	0
  4182  0011DE  6E11               	movwf	(?___fldiv+2)^0,c
  4183  0011E0  0E00               	movlw	0
  4184  0011E2  6E12               	movwf	(?___fldiv+3)^0,c
  4185  0011E4  EF25  F00A         	goto	l1255
  4186  0011E8                     l5163:
  4187  0011E8  5027               	movf	___fldiv@aexp^0,w,c
  4188  0011EA  C026  F017         	movff	___fldiv@bexp,??___fldiv
  4189  0011EE  6A18               	clrf	(??___fldiv+1)^0,c
  4190  0011F0  5E17               	subwf	??___fldiv^0,f,c
  4191  0011F2  0E00               	movlw	0
  4192  0011F4  5A18               	subwfb	(??___fldiv+1)^0,f,c
  4193  0011F6  0E7F               	movlw	127
  4194  0011F8  2417               	addwf	??___fldiv^0,w,c
  4195  0011FA  6E20               	movwf	___fldiv@new_exp^0,c
  4196  0011FC  0E00               	movlw	0
  4197  0011FE  2018               	addwfc	(??___fldiv+1)^0,w,c
  4198  001200  6E21               	movwf	(___fldiv@new_exp+1)^0,c
  4199  001202  C00F  F01B         	movff	___fldiv@b,___fldiv@rem
  4200  001206  C010  F01C         	movff	___fldiv@b+1,___fldiv@rem+1
  4201  00120A  C011  F01D         	movff	___fldiv@b+2,___fldiv@rem+2
  4202  00120E  C012  F01E         	movff	___fldiv@b+3,___fldiv@rem+3
  4203  001212  0E00               	movlw	0
  4204  001214  6E0F               	movwf	___fldiv@b^0,c
  4205  001216  0E00               	movlw	0
  4206  001218  6E10               	movwf	(___fldiv@b+1)^0,c
  4207  00121A  0E00               	movlw	0
  4208  00121C  6E11               	movwf	(___fldiv@b+2)^0,c
  4209  00121E  0E00               	movlw	0
  4210  001220  6E12               	movwf	(___fldiv@b+3)^0,c
  4211  001222  0E00               	movlw	0
  4212  001224  6E22               	movwf	___fldiv@grs^0,c
  4213  001226  0E00               	movlw	0
  4214  001228  6E23               	movwf	(___fldiv@grs+1)^0,c
  4215  00122A  0E00               	movlw	0
  4216  00122C  6E24               	movwf	(___fldiv@grs+2)^0,c
  4217  00122E  0E00               	movlw	0
  4218  001230  6E25               	movwf	(___fldiv@grs+3)^0,c
  4219  001232  0E00               	movlw	0
  4220  001234  6E27               	movwf	___fldiv@aexp^0,c
  4221  001236  EF55  F009         	goto	l1257
  4222  00123A                     l5173:
  4223  00123A  5027               	movf	___fldiv@aexp^0,w,c
  4224  00123C  B4D8               	btfsc	status,2,c
  4225  00123E  EF23  F009         	goto	u5111
  4226  001242  EF25  F009         	goto	u5110
  4227  001246                     u5111:
  4228  001246  EF3C  F009         	goto	l5181
  4229  00124A                     u5110:
  4230  00124A  90D8               	bcf	status,0,c
  4231  00124C  361B               	rlcf	___fldiv@rem^0,f,c
  4232  00124E  361C               	rlcf	(___fldiv@rem+1)^0,f,c
  4233  001250  361D               	rlcf	(___fldiv@rem+2)^0,f,c
  4234  001252  361E               	rlcf	(___fldiv@rem+3)^0,f,c
  4235  001254  90D8               	bcf	status,0,c
  4236  001256  360F               	rlcf	___fldiv@b^0,f,c
  4237  001258  3610               	rlcf	(___fldiv@b+1)^0,f,c
  4238  00125A  3611               	rlcf	(___fldiv@b+2)^0,f,c
  4239  00125C  3612               	rlcf	(___fldiv@b+3)^0,f,c
  4240  00125E  AE25               	btfss	(___fldiv@grs+3)^0,7,c
  4241  001260  EF34  F009         	goto	u5121
  4242  001264  EF36  F009         	goto	u5120
  4243  001268                     u5121:
  4244  001268  EF37  F009         	goto	l1260
  4245  00126C                     u5120:
  4246  00126C  800F               	bsf	___fldiv@b^0,0,c
  4247  00126E                     l1260:
  4248  00126E  90D8               	bcf	status,0,c
  4249  001270  3622               	rlcf	___fldiv@grs^0,f,c
  4250  001272  3623               	rlcf	(___fldiv@grs+1)^0,f,c
  4251  001274  3624               	rlcf	(___fldiv@grs+2)^0,f,c
  4252  001276  3625               	rlcf	(___fldiv@grs+3)^0,f,c
  4253  001278                     l5181:
  4254  001278  5013               	movf	___fldiv@a^0,w,c
  4255  00127A  5C1B               	subwf	___fldiv@rem^0,w,c
  4256  00127C  5014               	movf	(___fldiv@a+1)^0,w,c
  4257  00127E  581C               	subwfb	(___fldiv@rem+1)^0,w,c
  4258  001280  5015               	movf	(___fldiv@a+2)^0,w,c
  4259  001282  581D               	subwfb	(___fldiv@rem+2)^0,w,c
  4260  001284  5016               	movf	(___fldiv@a+3)^0,w,c
  4261  001286  581E               	subwfb	(___fldiv@rem+3)^0,w,c
  4262  001288  A0D8               	btfss	status,0,c
  4263  00128A  EF49  F009         	goto	u5131
  4264  00128E  EF4B  F009         	goto	u5130
  4265  001292                     u5131:
  4266  001292  EF54  F009         	goto	l5187
  4267  001296                     u5130:
  4268  001296  8C25               	bsf	(___fldiv@grs+3)^0,6,c
  4269  001298  5013               	movf	___fldiv@a^0,w,c
  4270  00129A  5E1B               	subwf	___fldiv@rem^0,f,c
  4271  00129C  5014               	movf	(___fldiv@a+1)^0,w,c
  4272  00129E  5A1C               	subwfb	(___fldiv@rem+1)^0,f,c
  4273  0012A0  5015               	movf	(___fldiv@a+2)^0,w,c
  4274  0012A2  5A1D               	subwfb	(___fldiv@rem+2)^0,f,c
  4275  0012A4  5016               	movf	(___fldiv@a+3)^0,w,c
  4276  0012A6  5A1E               	subwfb	(___fldiv@rem+3)^0,f,c
  4277  0012A8                     l5187:
  4278  0012A8  2A27               	incf	___fldiv@aexp^0,f,c
  4279  0012AA                     l1257:
  4280  0012AA  0E19               	movlw	25
  4281  0012AC  6427               	cpfsgt	___fldiv@aexp^0,c
  4282  0012AE  EF5B  F009         	goto	u5141
  4283  0012B2  EF5D  F009         	goto	u5140
  4284  0012B6                     u5141:
  4285  0012B6  EF1D  F009         	goto	l5173
  4286  0012BA                     u5140:
  4287  0012BA  501B               	movf	___fldiv@rem^0,w,c
  4288  0012BC  101C               	iorwf	(___fldiv@rem+1)^0,w,c
  4289  0012BE  101D               	iorwf	(___fldiv@rem+2)^0,w,c
  4290  0012C0  101E               	iorwf	(___fldiv@rem+3)^0,w,c
  4291  0012C2  B4D8               	btfsc	status,2,c
  4292  0012C4  EF66  F009         	goto	u5151
  4293  0012C8  EF68  F009         	goto	u5150
  4294  0012CC                     u5151:
  4295  0012CC  EF80  F009         	goto	l5199
  4296  0012D0                     u5150:
  4297  0012D0  8022               	bsf	___fldiv@grs^0,0,c
  4298  0012D2  EF80  F009         	goto	l5199
  4299  0012D6                     l5193:
  4300  0012D6  90D8               	bcf	status,0,c
  4301  0012D8  360F               	rlcf	___fldiv@b^0,f,c
  4302  0012DA  3610               	rlcf	(___fldiv@b+1)^0,f,c
  4303  0012DC  3611               	rlcf	(___fldiv@b+2)^0,f,c
  4304  0012DE  3612               	rlcf	(___fldiv@b+3)^0,f,c
  4305  0012E0  AE25               	btfss	(___fldiv@grs+3)^0,7,c
  4306  0012E2  EF75  F009         	goto	u5161
  4307  0012E6  EF77  F009         	goto	u5160
  4308  0012EA                     u5161:
  4309  0012EA  EF78  F009         	goto	l1266
  4310  0012EE                     u5160:
  4311  0012EE  800F               	bsf	___fldiv@b^0,0,c
  4312  0012F0                     l1266:
  4313  0012F0  90D8               	bcf	status,0,c
  4314  0012F2  3622               	rlcf	___fldiv@grs^0,f,c
  4315  0012F4  3623               	rlcf	(___fldiv@grs+1)^0,f,c
  4316  0012F6  3624               	rlcf	(___fldiv@grs+2)^0,f,c
  4317  0012F8  3625               	rlcf	(___fldiv@grs+3)^0,f,c
  4318  0012FA  0620               	decf	___fldiv@new_exp^0,f,c
  4319  0012FC  A0D8               	btfss	status,0,c
  4320  0012FE  0621               	decf	(___fldiv@new_exp+1)^0,f,c
  4321  001300                     l5199:
  4322  001300  AE11               	btfss	(___fldiv@b+2)^0,7,c
  4323  001302  EF85  F009         	goto	u5171
  4324  001306  EF87  F009         	goto	u5170
  4325  00130A                     u5171:
  4326  00130A  EF6B  F009         	goto	l5193
  4327  00130E                     u5170:
  4328  00130E  0E00               	movlw	0
  4329  001310  6E27               	movwf	___fldiv@aexp^0,c
  4330  001312  AE25               	btfss	(___fldiv@grs+3)^0,7,c
  4331  001314  EF8E  F009         	goto	u5181
  4332  001318  EF90  F009         	goto	u5180
  4333  00131C                     u5181:
  4334  00131C  EFB4  F009         	goto	l1268
  4335  001320                     u5180:
  4336  001320  0EFF               	movlw	255
  4337  001322  1422               	andwf	___fldiv@grs^0,w,c
  4338  001324  6E17               	movwf	??___fldiv^0,c
  4339  001326  0EFF               	movlw	255
  4340  001328  1423               	andwf	(___fldiv@grs+1)^0,w,c
  4341  00132A  6E18               	movwf	(??___fldiv+1)^0,c
  4342  00132C  0EFF               	movlw	255
  4343  00132E  1424               	andwf	(___fldiv@grs+2)^0,w,c
  4344  001330  6E19               	movwf	(??___fldiv+2)^0,c
  4345  001332  0E7F               	movlw	127
  4346  001334  1425               	andwf	(___fldiv@grs+3)^0,w,c
  4347  001336  6E1A               	movwf	(??___fldiv+3)^0,c
  4348  001338  5017               	movf	??___fldiv^0,w,c
  4349  00133A  1018               	iorwf	(??___fldiv+1)^0,w,c
  4350  00133C  1019               	iorwf	(??___fldiv+2)^0,w,c
  4351  00133E  101A               	iorwf	(??___fldiv+3)^0,w,c
  4352  001340  B4D8               	btfsc	status,2,c
  4353  001342  EFA5  F009         	goto	u5191
  4354  001346  EFA7  F009         	goto	u5190
  4355  00134A                     u5191:
  4356  00134A  EFAB  F009         	goto	l1269
  4357  00134E                     u5190:
  4358  00134E                     l5207:
  4359  00134E  0E01               	movlw	1
  4360  001350  6E27               	movwf	___fldiv@aexp^0,c
  4361  001352  EFB4  F009         	goto	l1268
  4362  001356                     l1269:
  4363  001356  A00F               	btfss	___fldiv@b^0,0,c
  4364  001358  EFB0  F009         	goto	u5201
  4365  00135C  EFB2  F009         	goto	u5200
  4366  001360                     u5201:
  4367  001360  EFB4  F009         	goto	l1268
  4368  001364                     u5200:
  4369  001364  EFA7  F009         	goto	l5207
  4370  001368                     l1268:
  4371  001368  5027               	movf	___fldiv@aexp^0,w,c
  4372  00136A  B4D8               	btfsc	status,2,c
  4373  00136C  EFBA  F009         	goto	u5211
  4374  001370  EFBC  F009         	goto	u5210
  4375  001374                     u5211:
  4376  001374  EFE0  F009         	goto	l5219
  4377  001378                     u5210:
  4378  001378  0E01               	movlw	1
  4379  00137A  260F               	addwf	___fldiv@b^0,f,c
  4380  00137C  0E00               	movlw	0
  4381  00137E  2210               	addwfc	(___fldiv@b+1)^0,f,c
  4382  001380  2211               	addwfc	(___fldiv@b+2)^0,f,c
  4383  001382  2212               	addwfc	(___fldiv@b+3)^0,f,c
  4384  001384  A012               	btfss	(___fldiv@b+3)^0,0,c
  4385  001386  EFC7  F009         	goto	u5221
  4386  00138A  EFC9  F009         	goto	u5220
  4387  00138E                     u5221:
  4388  00138E  EFE0  F009         	goto	l5219
  4389  001392                     u5220:
  4390  001392  C00F  F017         	movff	___fldiv@b,??___fldiv
  4391  001396  C010  F018         	movff	___fldiv@b+1,??___fldiv+1
  4392  00139A  C011  F019         	movff	___fldiv@b+2,??___fldiv+2
  4393  00139E  C012  F01A         	movff	___fldiv@b+3,??___fldiv+3
  4394  0013A2  341A               	rlcf	(??___fldiv+3)^0,w,c
  4395  0013A4  321A               	rrcf	(??___fldiv+3)^0,f,c
  4396  0013A6  3219               	rrcf	(??___fldiv+2)^0,f,c
  4397  0013A8  3218               	rrcf	(??___fldiv+1)^0,f,c
  4398  0013AA  3217               	rrcf	??___fldiv^0,f,c
  4399  0013AC  C017  F00F         	movff	??___fldiv,___fldiv@b
  4400  0013B0  C018  F010         	movff	??___fldiv+1,___fldiv@b+1
  4401  0013B4  C019  F011         	movff	??___fldiv+2,___fldiv@b+2
  4402  0013B8  C01A  F012         	movff	??___fldiv+3,___fldiv@b+3
  4403  0013BC  4A20               	infsnz	___fldiv@new_exp^0,f,c
  4404  0013BE  2A21               	incf	(___fldiv@new_exp+1)^0,f,c
  4405  0013C0                     l5219:
  4406  0013C0  BE21               	btfsc	(___fldiv@new_exp+1)^0,7,c
  4407  0013C2  EFEB  F009         	goto	u5231
  4408  0013C6  5021               	movf	(___fldiv@new_exp+1)^0,w,c
  4409  0013C8  E108               	bnz	u5230
  4410  0013CA  2820               	incf	___fldiv@new_exp^0,w,c
  4411  0013CC  A0D8               	btfss	status,0,c
  4412  0013CE  EFEB  F009         	goto	u5231
  4413  0013D2  EFED  F009         	goto	u5230
  4414  0013D6                     u5231:
  4415  0013D6  EFF8  F009         	goto	l5223
  4416  0013DA                     u5230:
  4417  0013DA  0E00               	movlw	0
  4418  0013DC  6E21               	movwf	(___fldiv@new_exp+1)^0,c
  4419  0013DE  6820               	setf	___fldiv@new_exp^0,c
  4420  0013E0  0E00               	movlw	0
  4421  0013E2  6E0F               	movwf	___fldiv@b^0,c
  4422  0013E4  0E00               	movlw	0
  4423  0013E6  6E10               	movwf	(___fldiv@b+1)^0,c
  4424  0013E8  0E00               	movlw	0
  4425  0013EA  6E11               	movwf	(___fldiv@b+2)^0,c
  4426  0013EC  0E00               	movlw	0
  4427  0013EE  6E12               	movwf	(___fldiv@b+3)^0,c
  4428  0013F0                     l5223:
  4429  0013F0  BE21               	btfsc	(___fldiv@new_exp+1)^0,7,c
  4430  0013F2  EF05  F00A         	goto	u5240
  4431  0013F6  5021               	movf	(___fldiv@new_exp+1)^0,w,c
  4432  0013F8  E106               	bnz	u5241
  4433  0013FA  0420               	decf	___fldiv@new_exp^0,w,c
  4434  0013FC  B0D8               	btfsc	status,0,c
  4435  0013FE  EF03  F00A         	goto	u5241
  4436  001402  EF05  F00A         	goto	u5240
  4437  001406                     u5241:
  4438  001406  EF13  F00A         	goto	l5227
  4439  00140A                     u5240:
  4440  00140A  0E00               	movlw	0
  4441  00140C  6E21               	movwf	(___fldiv@new_exp+1)^0,c
  4442  00140E  0E00               	movlw	0
  4443  001410  6E20               	movwf	___fldiv@new_exp^0,c
  4444  001412  0E00               	movlw	0
  4445  001414  6E0F               	movwf	___fldiv@b^0,c
  4446  001416  0E00               	movlw	0
  4447  001418  6E10               	movwf	(___fldiv@b+1)^0,c
  4448  00141A  0E00               	movlw	0
  4449  00141C  6E11               	movwf	(___fldiv@b+2)^0,c
  4450  00141E  0E00               	movlw	0
  4451  001420  6E12               	movwf	(___fldiv@b+3)^0,c
  4452  001422  0E00               	movlw	0
  4453  001424  6E1F               	movwf	___fldiv@sign^0,c
  4454  001426                     l5227:
  4455  001426  C020  F026         	movff	___fldiv@new_exp,___fldiv@bexp
  4456  00142A  A026               	btfss	___fldiv@bexp^0,0,c
  4457  00142C  EF1A  F00A         	goto	u5251
  4458  001430  EF1C  F00A         	goto	u5250
  4459  001434                     u5251:
  4460  001434  EF1F  F00A         	goto	l5233
  4461  001438                     u5250:
  4462  001438  8E11               	bsf	(___fldiv@b+2)^0,7,c
  4463  00143A  EF20  F00A         	goto	l5235
  4464  00143E                     l5233:
  4465  00143E  9E11               	bcf	(___fldiv@b+2)^0,7,c
  4466  001440                     l5235:
  4467  001440  90D8               	bcf	status,0,c
  4468  001442  3026               	rrcf	___fldiv@bexp^0,w,c
  4469  001444  6E12               	movwf	(___fldiv@b+3)^0,c
  4470  001446  EFD6  F008         	goto	l5149
  4471  00144A                     l1255:
  4472  00144A  0012               	return		;funcret
  4473  00144C                     __end_of___fldiv:
  4474                           	callstack 0
  4475                           
  4476 ;; *************** function ___fladd *****************
  4477 ;; Defined at:
  4478 ;;		line 10 in file "D:\Program Files\Microchip\xc8\v2.36\pic\sources\c99\common\sprcadd.c"
  4479 ;; Parameters:    Size  Location     Type
  4480 ;;  b               4   39[COMRAM] unsigned char 
  4481 ;;  a               4   43[COMRAM] unsigned char 
  4482 ;; Auto vars:     Size  Location     Type
  4483 ;;  grs             1   54[COMRAM] unsigned char 
  4484 ;;  bexp            1   53[COMRAM] unsigned char 
  4485 ;;  aexp            1   52[COMRAM] unsigned char 
  4486 ;;  signs           1   51[COMRAM] unsigned char 
  4487 ;; Return value:  Size  Location     Type
  4488 ;;                  4   39[COMRAM] unsigned char 
  4489 ;; Registers used:
  4490 ;;		wreg, status,2, status,0
  4491 ;; Tracked objects:
  4492 ;;		On entry : 0/0
  4493 ;;		On exit  : 0/0
  4494 ;;		Unchanged: 0/0
  4495 ;; Data sizes:     COMRAM   BANK0   BANK1   BANK2   BANK3   BANK4   BANK5   BANK6   BANK7
  4496 ;;      Params:         8       0       0       0       0       0       0       0       0
  4497 ;;      Locals:         4       0       0       0       0       0       0       0       0
  4498 ;;      Temps:          4       0       0       0       0       0       0       0       0
  4499 ;;      Totals:        16       0       0       0       0       0       0       0       0
  4500 ;;Total ram usage:       16 bytes
  4501 ;; Hardware stack levels used: 1
  4502 ;; This function calls:
  4503 ;;		Nothing
  4504 ;; This function is called by:
  4505 ;;		_USART_Init
  4506 ;; This function uses a non-reentrant model
  4507 ;;
  4508                           
  4509                           	psect	text19
  4510  000828                     __ptext19:
  4511                           	callstack 0
  4512  000828                     ___fladd:
  4513                           	callstack 29
  4514  000828  502B               	movf	(___fladd@b+3)^0,w,c
  4515  00082A  0B80               	andlw	128
  4516  00082C  6E34               	movwf	___fladd@signs^0,c
  4517  00082E  502B               	movf	(___fladd@b+3)^0,w,c
  4518  000830  242B               	addwf	(___fladd@b+3)^0,w,c
  4519  000832  6E36               	movwf	___fladd@bexp^0,c
  4520  000834  AE2A               	btfss	(___fladd@b+2)^0,7,c
  4521  000836  EF1F  F004         	goto	u4641
  4522  00083A  EF21  F004         	goto	u4640
  4523  00083E                     u4641:
  4524  00083E  EF22  F004         	goto	l4909
  4525  000842                     u4640:
  4526  000842  8036               	bsf	___fladd@bexp^0,0,c
  4527  000844                     l4909:
  4528  000844  5036               	movf	___fladd@bexp^0,w,c
  4529  000846  B4D8               	btfsc	status,2,c
  4530  000848  EF28  F004         	goto	u4651
  4531  00084C  EF2A  F004         	goto	u4650
  4532  000850                     u4651:
  4533  000850  EF3F  F004         	goto	l4919
  4534  000854                     u4650:
  4535  000854  2836               	incf	___fladd@bexp^0,w,c
  4536  000856  A4D8               	btfss	status,2,c
  4537  000858  EF30  F004         	goto	u4661
  4538  00085C  EF32  F004         	goto	u4660
  4539  000860                     u4661:
  4540  000860  EF3A  F004         	goto	l4915
  4541  000864                     u4660:
  4542  000864  0E00               	movlw	0
  4543  000866  6E28               	movwf	___fladd@b^0,c
  4544  000868  0E00               	movlw	0
  4545  00086A  6E29               	movwf	(___fladd@b+1)^0,c
  4546  00086C  0E00               	movlw	0
  4547  00086E  6E2A               	movwf	(___fladd@b+2)^0,c
  4548  000870  0E00               	movlw	0
  4549  000872  6E2B               	movwf	(___fladd@b+3)^0,c
  4550  000874                     l4915:
  4551  000874  8E2A               	bsf	(___fladd@b+2)^0,7,c
  4552  000876  0E00               	movlw	0
  4553  000878  6E2B               	movwf	(___fladd@b+3)^0,c
  4554  00087A  EF47  F004         	goto	l4921
  4555  00087E                     l4919:
  4556  00087E  0E00               	movlw	0
  4557  000880  6E28               	movwf	___fladd@b^0,c
  4558  000882  0E00               	movlw	0
  4559  000884  6E29               	movwf	(___fladd@b+1)^0,c
  4560  000886  0E00               	movlw	0
  4561  000888  6E2A               	movwf	(___fladd@b+2)^0,c
  4562  00088A  0E00               	movlw	0
  4563  00088C  6E2B               	movwf	(___fladd@b+3)^0,c
  4564  00088E                     l4921:
  4565  00088E  502F               	movf	(___fladd@a+3)^0,w,c
  4566  000890  0B80               	andlw	128
  4567  000892  6E35               	movwf	___fladd@aexp^0,c
  4568  000894  5034               	movf	___fladd@signs^0,w,c
  4569  000896  1835               	xorwf	___fladd@aexp^0,w,c
  4570  000898  B4D8               	btfsc	status,2,c
  4571  00089A  EF51  F004         	goto	u4671
  4572  00089E  EF53  F004         	goto	u4670
  4573  0008A2                     u4671:
  4574  0008A2  EF54  F004         	goto	l4927
  4575  0008A6                     u4670:
  4576  0008A6  8C34               	bsf	___fladd@signs^0,6,c
  4577  0008A8                     l4927:
  4578  0008A8  502F               	movf	(___fladd@a+3)^0,w,c
  4579  0008AA  242F               	addwf	(___fladd@a+3)^0,w,c
  4580  0008AC  6E35               	movwf	___fladd@aexp^0,c
  4581  0008AE  AE2E               	btfss	(___fladd@a+2)^0,7,c
  4582  0008B0  EF5C  F004         	goto	u4681
  4583  0008B4  EF5E  F004         	goto	u4680
  4584  0008B8                     u4681:
  4585  0008B8  EF5F  F004         	goto	l4933
  4586  0008BC                     u4680:
  4587  0008BC  8035               	bsf	___fladd@aexp^0,0,c
  4588  0008BE                     l4933:
  4589  0008BE  5035               	movf	___fladd@aexp^0,w,c
  4590  0008C0  B4D8               	btfsc	status,2,c
  4591  0008C2  EF65  F004         	goto	u4691
  4592  0008C6  EF67  F004         	goto	u4690
  4593  0008CA                     u4691:
  4594  0008CA  EF7C  F004         	goto	l4943
  4595  0008CE                     u4690:
  4596  0008CE  2835               	incf	___fladd@aexp^0,w,c
  4597  0008D0  A4D8               	btfss	status,2,c
  4598  0008D2  EF6D  F004         	goto	u4701
  4599  0008D6  EF6F  F004         	goto	u4700
  4600  0008DA                     u4701:
  4601  0008DA  EF77  F004         	goto	l4939
  4602  0008DE                     u4700:
  4603  0008DE  0E00               	movlw	0
  4604  0008E0  6E2C               	movwf	___fladd@a^0,c
  4605  0008E2  0E00               	movlw	0
  4606  0008E4  6E2D               	movwf	(___fladd@a+1)^0,c
  4607  0008E6  0E00               	movlw	0
  4608  0008E8  6E2E               	movwf	(___fladd@a+2)^0,c
  4609  0008EA  0E00               	movlw	0
  4610  0008EC  6E2F               	movwf	(___fladd@a+3)^0,c
  4611  0008EE                     l4939:
  4612  0008EE  8E2E               	bsf	(___fladd@a+2)^0,7,c
  4613  0008F0  0E00               	movlw	0
  4614  0008F2  6E2F               	movwf	(___fladd@a+3)^0,c
  4615  0008F4  EF84  F004         	goto	l4945
  4616  0008F8                     l4943:
  4617  0008F8  0E00               	movlw	0
  4618  0008FA  6E2C               	movwf	___fladd@a^0,c
  4619  0008FC  0E00               	movlw	0
  4620  0008FE  6E2D               	movwf	(___fladd@a+1)^0,c
  4621  000900  0E00               	movlw	0
  4622  000902  6E2E               	movwf	(___fladd@a+2)^0,c
  4623  000904  0E00               	movlw	0
  4624  000906  6E2F               	movwf	(___fladd@a+3)^0,c
  4625  000908                     l4945:
  4626  000908  5036               	movf	___fladd@bexp^0,w,c
  4627  00090A  5C35               	subwf	___fladd@aexp^0,w,c
  4628  00090C  B0D8               	btfsc	status,0,c
  4629  00090E  EF8B  F004         	goto	u4711
  4630  000912  EF8D  F004         	goto	u4710
  4631  000916                     u4711:
  4632  000916  EFB4  F004         	goto	l4981
  4633  00091A                     u4710:
  4634  00091A  AC34               	btfss	___fladd@signs^0,6,c
  4635  00091C  EF92  F004         	goto	u4721
  4636  000920  EF94  F004         	goto	u4720
  4637  000924                     u4721:
  4638  000924  EF96  F004         	goto	l4951
  4639  000928                     u4720:
  4640  000928  0E80               	movlw	128
  4641  00092A  1A34               	xorwf	___fladd@signs^0,f,c
  4642  00092C                     l4951:
  4643  00092C  C036  F037         	movff	___fladd@bexp,___fladd@grs
  4644  000930  C035  F036         	movff	___fladd@aexp,___fladd@bexp
  4645  000934  C037  F035         	movff	___fladd@grs,___fladd@aexp
  4646  000938  C028  F037         	movff	___fladd@b,___fladd@grs
  4647  00093C  C02C  F028         	movff	___fladd@a,___fladd@b
  4648  000940  C037  F02C         	movff	___fladd@grs,___fladd@a
  4649  000944  C029  F037         	movff	___fladd@b+1,___fladd@grs
  4650  000948  C02D  F029         	movff	___fladd@a+1,___fladd@b+1
  4651  00094C  C037  F02D         	movff	___fladd@grs,___fladd@a+1
  4652  000950  C02A  F037         	movff	___fladd@b+2,___fladd@grs
  4653  000954  C02E  F02A         	movff	___fladd@a+2,___fladd@b+2
  4654  000958  C037  F02E         	movff	___fladd@grs,___fladd@a+2
  4655  00095C  C02B  F037         	movff	___fladd@b+3,___fladd@grs
  4656  000960  C02F  F02B         	movff	___fladd@a+3,___fladd@b+3
  4657  000964  C037  F02F         	movff	___fladd@grs,___fladd@a+3
  4658  000968                     l4981:
  4659  000968  0E00               	movlw	0
  4660  00096A  6E37               	movwf	___fladd@grs^0,c
  4661  00096C  5036               	movf	___fladd@bexp^0,w,c
  4662  00096E  C035  F030         	movff	___fladd@aexp,??___fladd
  4663  000972  6A31               	clrf	(??___fladd+1)^0,c
  4664  000974  5E30               	subwf	??___fladd^0,f,c
  4665  000976  0E00               	movlw	0
  4666  000978  5A31               	subwfb	(??___fladd+1)^0,f,c
  4667  00097A  BE31               	btfsc	(??___fladd+1)^0,7,c
  4668  00097C  EFC9  F004         	goto	u4731
  4669  000980  5031               	movf	(??___fladd+1)^0,w,c
  4670  000982  E109               	bnz	u4730
  4671  000984  0E1A               	movlw	26
  4672  000986  5C30               	subwf	??___fladd^0,w,c
  4673  000988  A0D8               	btfss	status,0,c
  4674  00098A  EFC9  F004         	goto	u4731
  4675  00098E  EFCB  F004         	goto	u4730
  4676  000992                     u4731:
  4677  000992  EF02  F005         	goto	l1202
  4678  000996                     u4730:
  4679  000996  5028               	movf	___fladd@b^0,w,c
  4680  000998  1029               	iorwf	(___fladd@b+1)^0,w,c
  4681  00099A  102A               	iorwf	(___fladd@b+2)^0,w,c
  4682  00099C  102B               	iorwf	(___fladd@b+3)^0,w,c
  4683  00099E  A4D8               	btfss	status,2,c
  4684  0009A0  EFD4  F004         	goto	u4741
  4685  0009A4  EFD7  F004         	goto	u4740
  4686  0009A8                     u4741:
  4687  0009A8  0E01               	movlw	1
  4688  0009AA  EFD8  F004         	goto	u4750
  4689  0009AE                     u4740:
  4690  0009AE  0E00               	movlw	0
  4691  0009B0                     u4750:
  4692  0009B0  6E37               	movwf	___fladd@grs^0,c
  4693  0009B2  0E00               	movlw	0
  4694  0009B4  6E28               	movwf	___fladd@b^0,c
  4695  0009B6  0E00               	movlw	0
  4696  0009B8  6E29               	movwf	(___fladd@b+1)^0,c
  4697  0009BA  0E00               	movlw	0
  4698  0009BC  6E2A               	movwf	(___fladd@b+2)^0,c
  4699  0009BE  0E00               	movlw	0
  4700  0009C0  6E2B               	movwf	(___fladd@b+3)^0,c
  4701  0009C2  C035  F036         	movff	___fladd@aexp,___fladd@bexp
  4702  0009C6  EF0B  F005         	goto	l1201
  4703  0009CA                     l1203:
  4704  0009CA  A037               	btfss	___fladd@grs^0,0,c
  4705  0009CC  EFEA  F004         	goto	u4761
  4706  0009D0  EFEC  F004         	goto	u4760
  4707  0009D4                     u4761:
  4708  0009D4  EFF2  F004         	goto	l4993
  4709  0009D8                     u4760:
  4710  0009D8  90D8               	bcf	status,0,c
  4711  0009DA  3037               	rrcf	___fladd@grs^0,w,c
  4712  0009DC  0901               	iorlw	1
  4713  0009DE  6E37               	movwf	___fladd@grs^0,c
  4714  0009E0  EFF4  F004         	goto	l4995
  4715  0009E4                     l4993:
  4716  0009E4  90D8               	bcf	status,0,c
  4717  0009E6  3237               	rrcf	___fladd@grs^0,f,c
  4718  0009E8                     l4995:
  4719  0009E8  A028               	btfss	___fladd@b^0,0,c
  4720  0009EA  EFF9  F004         	goto	u4771
  4721  0009EE  EFFB  F004         	goto	u4770
  4722  0009F2                     u4771:
  4723  0009F2  EFFC  F004         	goto	l4999
  4724  0009F6                     u4770:
  4725  0009F6  8E37               	bsf	___fladd@grs^0,7,c
  4726  0009F8                     l4999:
  4727  0009F8  342B               	rlcf	(___fladd@b+3)^0,w,c
  4728  0009FA  322B               	rrcf	(___fladd@b+3)^0,f,c
  4729  0009FC  322A               	rrcf	(___fladd@b+2)^0,f,c
  4730  0009FE  3229               	rrcf	(___fladd@b+1)^0,f,c
  4731  000A00  3228               	rrcf	___fladd@b^0,f,c
  4732  000A02  2A36               	incf	___fladd@bexp^0,f,c
  4733  000A04                     l1202:
  4734  000A04  5035               	movf	___fladd@aexp^0,w,c
  4735  000A06  5C36               	subwf	___fladd@bexp^0,w,c
  4736  000A08  A0D8               	btfss	status,0,c
  4737  000A0A  EF09  F005         	goto	u4781
  4738  000A0E  EF0B  F005         	goto	u4780
  4739  000A12                     u4781:
  4740  000A12  EFE5  F004         	goto	l1203
  4741  000A16                     u4780:
  4742  000A16                     l1201:
  4743  000A16  BC34               	btfsc	___fladd@signs^0,6,c
  4744  000A18  EF10  F005         	goto	u4791
  4745  000A1C  EF12  F005         	goto	u4790
  4746  000A20                     u4791:
  4747  000A20  EF52  F005         	goto	l5027
  4748  000A24                     u4790:
  4749  000A24  5036               	movf	___fladd@bexp^0,w,c
  4750  000A26  A4D8               	btfss	status,2,c
  4751  000A28  EF18  F005         	goto	u4801
  4752  000A2C  EF1A  F005         	goto	u4800
  4753  000A30                     u4801:
  4754  000A30  EF24  F005         	goto	l5009
  4755  000A34                     u4800:
  4756  000A34  0E00               	movlw	0
  4757  000A36  6E28               	movwf	?___fladd^0,c
  4758  000A38  0E00               	movlw	0
  4759  000A3A  6E29               	movwf	(?___fladd+1)^0,c
  4760  000A3C  0E00               	movlw	0
  4761  000A3E  6E2A               	movwf	(?___fladd+2)^0,c
  4762  000A40  0E00               	movlw	0
  4763  000A42  6E2B               	movwf	(?___fladd+3)^0,c
  4764  000A44  EF73  F006         	goto	l1210
  4765  000A48                     l5009:
  4766  000A48  502C               	movf	___fladd@a^0,w,c
  4767  000A4A  2628               	addwf	___fladd@b^0,f,c
  4768  000A4C  502D               	movf	(___fladd@a+1)^0,w,c
  4769  000A4E  2229               	addwfc	(___fladd@b+1)^0,f,c
  4770  000A50  502E               	movf	(___fladd@a+2)^0,w,c
  4771  000A52  222A               	addwfc	(___fladd@b+2)^0,f,c
  4772  000A54  502F               	movf	(___fladd@a+3)^0,w,c
  4773  000A56  222B               	addwfc	(___fladd@b+3)^0,f,c
  4774  000A58  A02B               	btfss	(___fladd@b+3)^0,0,c
  4775  000A5A  EF31  F005         	goto	u4811
  4776  000A5E  EF33  F005         	goto	u4810
  4777  000A62                     u4811:
  4778  000A62  EFDF  F005         	goto	l5063
  4779  000A66                     u4810:
  4780  000A66  A037               	btfss	___fladd@grs^0,0,c
  4781  000A68  EF38  F005         	goto	u4821
  4782  000A6C  EF3A  F005         	goto	u4820
  4783  000A70                     u4821:
  4784  000A70  EF40  F005         	goto	l5017
  4785  000A74                     u4820:
  4786  000A74  90D8               	bcf	status,0,c
  4787  000A76  3037               	rrcf	___fladd@grs^0,w,c
  4788  000A78  0901               	iorlw	1
  4789  000A7A  6E37               	movwf	___fladd@grs^0,c
  4790  000A7C  EF42  F005         	goto	l5019
  4791  000A80                     l5017:
  4792  000A80  90D8               	bcf	status,0,c
  4793  000A82  3237               	rrcf	___fladd@grs^0,f,c
  4794  000A84                     l5019:
  4795  000A84  A028               	btfss	___fladd@b^0,0,c
  4796  000A86  EF47  F005         	goto	u4831
  4797  000A8A  EF49  F005         	goto	u4830
  4798  000A8E                     u4831:
  4799  000A8E  EF4A  F005         	goto	l5023
  4800  000A92                     u4830:
  4801  000A92  8E37               	bsf	___fladd@grs^0,7,c
  4802  000A94                     l5023:
  4803  000A94  342B               	rlcf	(___fladd@b+3)^0,w,c
  4804  000A96  322B               	rrcf	(___fladd@b+3)^0,f,c
  4805  000A98  322A               	rrcf	(___fladd@b+2)^0,f,c
  4806  000A9A  3229               	rrcf	(___fladd@b+1)^0,f,c
  4807  000A9C  3228               	rrcf	___fladd@b^0,f,c
  4808  000A9E  2A36               	incf	___fladd@bexp^0,f,c
  4809  000AA0  EFDF  F005         	goto	l5063
  4810  000AA4                     l5027:
  4811  000AA4  502C               	movf	___fladd@a^0,w,c
  4812  000AA6  5C28               	subwf	___fladd@b^0,w,c
  4813  000AA8  502D               	movf	(___fladd@a+1)^0,w,c
  4814  000AAA  5829               	subwfb	(___fladd@b+1)^0,w,c
  4815  000AAC  502E               	movf	(___fladd@a+2)^0,w,c
  4816  000AAE  582A               	subwfb	(___fladd@b+2)^0,w,c
  4817  000AB0  502B               	movf	(___fladd@b+3)^0,w,c
  4818  000AB2  0A80               	xorlw	128
  4819  000AB4  6E30               	movwf	??___fladd^0,c
  4820  000AB6  502F               	movf	(___fladd@a+3)^0,w,c
  4821  000AB8  0A80               	xorlw	128
  4822  000ABA  5830               	subwfb	??___fladd^0,w,c
  4823  000ABC  B0D8               	btfsc	status,0,c
  4824  000ABE  EF63  F005         	goto	u4841
  4825  000AC2  EF65  F005         	goto	u4840
  4826  000AC6                     u4841:
  4827  000AC6  EF90  F005         	goto	l5037
  4828  000ACA                     u4840:
  4829  000ACA  5028               	movf	___fladd@b^0,w,c
  4830  000ACC  5C2C               	subwf	___fladd@a^0,w,c
  4831  000ACE  6E30               	movwf	??___fladd^0,c
  4832  000AD0  5029               	movf	(___fladd@b+1)^0,w,c
  4833  000AD2  582D               	subwfb	(___fladd@a+1)^0,w,c
  4834  000AD4  6E31               	movwf	(??___fladd+1)^0,c
  4835  000AD6  502A               	movf	(___fladd@b+2)^0,w,c
  4836  000AD8  582E               	subwfb	(___fladd@a+2)^0,w,c
  4837  000ADA  6E32               	movwf	(??___fladd+2)^0,c
  4838  000ADC  502B               	movf	(___fladd@b+3)^0,w,c
  4839  000ADE  582F               	subwfb	(___fladd@a+3)^0,w,c
  4840  000AE0  6E33               	movwf	(??___fladd+3)^0,c
  4841  000AE2  0EFF               	movlw	255
  4842  000AE4  2430               	addwf	??___fladd^0,w,c
  4843  000AE6  6E28               	movwf	___fladd@b^0,c
  4844  000AE8  0EFF               	movlw	255
  4845  000AEA  2031               	addwfc	(??___fladd+1)^0,w,c
  4846  000AEC  6E29               	movwf	(___fladd@b+1)^0,c
  4847  000AEE  0EFF               	movlw	255
  4848  000AF0  2032               	addwfc	(??___fladd+2)^0,w,c
  4849  000AF2  6E2A               	movwf	(___fladd@b+2)^0,c
  4850  000AF4  0EFF               	movlw	255
  4851  000AF6  2033               	addwfc	(??___fladd+3)^0,w,c
  4852  000AF8  6E2B               	movwf	(___fladd@b+3)^0,c
  4853  000AFA  0E80               	movlw	128
  4854  000AFC  1A34               	xorwf	___fladd@signs^0,f,c
  4855  000AFE  6C37               	negf	___fladd@grs^0,c
  4856  000B00  5037               	movf	___fladd@grs^0,w,c
  4857  000B02  A4D8               	btfss	status,2,c
  4858  000B04  EF86  F005         	goto	u4851
  4859  000B08  EF88  F005         	goto	u4850
  4860  000B0C                     u4851:
  4861  000B0C  EF98  F005         	goto	l1218
  4862  000B10                     u4850:
  4863  000B10  0E01               	movlw	1
  4864  000B12  2628               	addwf	___fladd@b^0,f,c
  4865  000B14  0E00               	movlw	0
  4866  000B16  2229               	addwfc	(___fladd@b+1)^0,f,c
  4867  000B18  222A               	addwfc	(___fladd@b+2)^0,f,c
  4868  000B1A  222B               	addwfc	(___fladd@b+3)^0,f,c
  4869  000B1C  EF98  F005         	goto	l1218
  4870  000B20                     l5037:
  4871  000B20  502C               	movf	___fladd@a^0,w,c
  4872  000B22  5E28               	subwf	___fladd@b^0,f,c
  4873  000B24  502D               	movf	(___fladd@a+1)^0,w,c
  4874  000B26  5A29               	subwfb	(___fladd@b+1)^0,f,c
  4875  000B28  502E               	movf	(___fladd@a+2)^0,w,c
  4876  000B2A  5A2A               	subwfb	(___fladd@b+2)^0,f,c
  4877  000B2C  502F               	movf	(___fladd@a+3)^0,w,c
  4878  000B2E  5A2B               	subwfb	(___fladd@b+3)^0,f,c
  4879  000B30                     l1218:
  4880  000B30  5028               	movf	___fladd@b^0,w,c
  4881  000B32  1029               	iorwf	(___fladd@b+1)^0,w,c
  4882  000B34  102A               	iorwf	(___fladd@b+2)^0,w,c
  4883  000B36  102B               	iorwf	(___fladd@b+3)^0,w,c
  4884  000B38  A4D8               	btfss	status,2,c
  4885  000B3A  EFA1  F005         	goto	u4861
  4886  000B3E  EFA3  F005         	goto	u4860
  4887  000B42                     u4861:
  4888  000B42  EFD8  F005         	goto	l5061
  4889  000B46                     u4860:
  4890  000B46  5037               	movf	___fladd@grs^0,w,c
  4891  000B48  A4D8               	btfss	status,2,c
  4892  000B4A  EFA9  F005         	goto	u4871
  4893  000B4E  EFAB  F005         	goto	u4870
  4894  000B52                     u4871:
  4895  000B52  EFD8  F005         	goto	l5061
  4896  000B56                     u4870:
  4897  000B56  0E00               	movlw	0
  4898  000B58  6E28               	movwf	?___fladd^0,c
  4899  000B5A  0E00               	movlw	0
  4900  000B5C  6E29               	movwf	(?___fladd+1)^0,c
  4901  000B5E  0E00               	movlw	0
  4902  000B60  6E2A               	movwf	(?___fladd+2)^0,c
  4903  000B62  0E00               	movlw	0
  4904  000B64  6E2B               	movwf	(?___fladd+3)^0,c
  4905  000B66  EF73  F006         	goto	l1210
  4906  000B6A                     l5045:
  4907  000B6A  90D8               	bcf	status,0,c
  4908  000B6C  3628               	rlcf	___fladd@b^0,f,c
  4909  000B6E  3629               	rlcf	(___fladd@b+1)^0,f,c
  4910  000B70  362A               	rlcf	(___fladd@b+2)^0,f,c
  4911  000B72  362B               	rlcf	(___fladd@b+3)^0,f,c
  4912  000B74  AE37               	btfss	___fladd@grs^0,7,c
  4913  000B76  EFBF  F005         	goto	u4881
  4914  000B7A  EFC1  F005         	goto	u4880
  4915  000B7E                     u4881:
  4916  000B7E  EFC2  F005         	goto	l5051
  4917  000B82                     u4880:
  4918  000B82  8028               	bsf	___fladd@b^0,0,c
  4919  000B84                     l5051:
  4920  000B84  A037               	btfss	___fladd@grs^0,0,c
  4921  000B86  EFC7  F005         	goto	u4891
  4922  000B8A  EFC9  F005         	goto	u4890
  4923  000B8E                     u4891:
  4924  000B8E  EFCD  F005         	goto	l5055
  4925  000B92                     u4890:
  4926  000B92  80D8               	bsf	status,0,c
  4927  000B94  3637               	rlcf	___fladd@grs^0,f,c
  4928  000B96  EFCF  F005         	goto	l5057
  4929  000B9A                     l5055:
  4930  000B9A  90D8               	bcf	status,0,c
  4931  000B9C  3637               	rlcf	___fladd@grs^0,f,c
  4932  000B9E                     l5057:
  4933  000B9E  5036               	movf	___fladd@bexp^0,w,c
  4934  000BA0  B4D8               	btfsc	status,2,c
  4935  000BA2  EFD5  F005         	goto	u4901
  4936  000BA6  EFD7  F005         	goto	u4900
  4937  000BAA                     u4901:
  4938  000BAA  EFD8  F005         	goto	l5061
  4939  000BAE                     u4900:
  4940  000BAE  0636               	decf	___fladd@bexp^0,f,c
  4941  000BB0                     l5061:
  4942  000BB0  AE2A               	btfss	(___fladd@b+2)^0,7,c
  4943  000BB2  EFDD  F005         	goto	u4911
  4944  000BB6  EFDF  F005         	goto	u4910
  4945  000BBA                     u4911:
  4946  000BBA  EFB5  F005         	goto	l5045
  4947  000BBE                     u4910:
  4948  000BBE                     l5063:
  4949  000BBE  0E00               	movlw	0
  4950  000BC0  6E35               	movwf	___fladd@aexp^0,c
  4951  000BC2  AE37               	btfss	___fladd@grs^0,7,c
  4952  000BC4  EFE6  F005         	goto	u4921
  4953  000BC8  EFE8  F005         	goto	u4920
  4954  000BCC                     u4921:
  4955  000BCC  EF00  F006         	goto	l1227
  4956  000BD0                     u4920:
  4957  000BD0  C037  F030         	movff	___fladd@grs,??___fladd
  4958  000BD4  0E7F               	movlw	127
  4959  000BD6  1630               	andwf	??___fladd^0,f,c
  4960  000BD8  B4D8               	btfsc	status,2,c
  4961  000BDA  EFF1  F005         	goto	u4931
  4962  000BDE  EFF3  F005         	goto	u4930
  4963  000BE2                     u4931:
  4964  000BE2  EFF7  F005         	goto	l1228
  4965  000BE6                     u4930:
  4966  000BE6                     l5069:
  4967  000BE6  0E01               	movlw	1
  4968  000BE8  6E35               	movwf	___fladd@aexp^0,c
  4969  000BEA  EF00  F006         	goto	l1227
  4970  000BEE                     l1228:
  4971  000BEE  A028               	btfss	___fladd@b^0,0,c
  4972  000BF0  EFFC  F005         	goto	u4941
  4973  000BF4  EFFE  F005         	goto	u4940
  4974  000BF8                     u4941:
  4975  000BF8  EF00  F006         	goto	l1227
  4976  000BFC                     u4940:
  4977  000BFC  EFF3  F005         	goto	l5069
  4978  000C00                     l1227:
  4979  000C00  5035               	movf	___fladd@aexp^0,w,c
  4980  000C02  B4D8               	btfsc	status,2,c
  4981  000C04  EF06  F006         	goto	u4951
  4982  000C08  EF08  F006         	goto	u4950
  4983  000C0C                     u4951:
  4984  000C0C  EF33  F006         	goto	l5081
  4985  000C10                     u4950:
  4986  000C10  0E01               	movlw	1
  4987  000C12  2628               	addwf	___fladd@b^0,f,c
  4988  000C14  0E00               	movlw	0
  4989  000C16  2229               	addwfc	(___fladd@b+1)^0,f,c
  4990  000C18  222A               	addwfc	(___fladd@b+2)^0,f,c
  4991  000C1A  222B               	addwfc	(___fladd@b+3)^0,f,c
  4992  000C1C  A02B               	btfss	(___fladd@b+3)^0,0,c
  4993  000C1E  EF13  F006         	goto	u4961
  4994  000C22  EF15  F006         	goto	u4960
  4995  000C26                     u4961:
  4996  000C26  EF33  F006         	goto	l5081
  4997  000C2A                     u4960:
  4998  000C2A  C028  F030         	movff	___fladd@b,??___fladd
  4999  000C2E  C029  F031         	movff	___fladd@b+1,??___fladd+1
  5000  000C32  C02A  F032         	movff	___fladd@b+2,??___fladd+2
  5001  000C36  C02B  F033         	movff	___fladd@b+3,??___fladd+3
  5002  000C3A  3433               	rlcf	(??___fladd+3)^0,w,c
  5003  000C3C  3233               	rrcf	(??___fladd+3)^0,f,c
  5004  000C3E  3232               	rrcf	(??___fladd+2)^0,f,c
  5005  000C40  3231               	rrcf	(??___fladd+1)^0,f,c
  5006  000C42  3230               	rrcf	??___fladd^0,f,c
  5007  000C44  C030  F028         	movff	??___fladd,___fladd@b
  5008  000C48  C031  F029         	movff	??___fladd+1,___fladd@b+1
  5009  000C4C  C032  F02A         	movff	??___fladd+2,___fladd@b+2
  5010  000C50  C033  F02B         	movff	??___fladd+3,___fladd@b+3
  5011  000C54  2836               	incf	___fladd@bexp^0,w,c
  5012  000C56  B4D8               	btfsc	status,2,c
  5013  000C58  EF30  F006         	goto	u4971
  5014  000C5C  EF32  F006         	goto	u4970
  5015  000C60                     u4971:
  5016  000C60  EF33  F006         	goto	l5081
  5017  000C64                     u4970:
  5018  000C64  2A36               	incf	___fladd@bexp^0,f,c
  5019  000C66                     l5081:
  5020  000C66  2836               	incf	___fladd@bexp^0,w,c
  5021  000C68  B4D8               	btfsc	status,2,c
  5022  000C6A  EF39  F006         	goto	u4981
  5023  000C6E  EF3B  F006         	goto	u4980
  5024  000C72                     u4981:
  5025  000C72  EF43  F006         	goto	l5085
  5026  000C76                     u4980:
  5027  000C76  5036               	movf	___fladd@bexp^0,w,c
  5028  000C78  A4D8               	btfss	status,2,c
  5029  000C7A  EF41  F006         	goto	u4991
  5030  000C7E  EF43  F006         	goto	u4990
  5031  000C82                     u4991:
  5032  000C82  EF55  F006         	goto	l5089
  5033  000C86                     u4990:
  5034  000C86                     l5085:
  5035  000C86  0E00               	movlw	0
  5036  000C88  6E28               	movwf	___fladd@b^0,c
  5037  000C8A  0E00               	movlw	0
  5038  000C8C  6E29               	movwf	(___fladd@b+1)^0,c
  5039  000C8E  0E00               	movlw	0
  5040  000C90  6E2A               	movwf	(___fladd@b+2)^0,c
  5041  000C92  0E00               	movlw	0
  5042  000C94  6E2B               	movwf	(___fladd@b+3)^0,c
  5043  000C96  5036               	movf	___fladd@bexp^0,w,c
  5044  000C98  A4D8               	btfss	status,2,c
  5045  000C9A  EF51  F006         	goto	u5001
  5046  000C9E  EF53  F006         	goto	u5000
  5047  000CA2                     u5001:
  5048  000CA2  EF55  F006         	goto	l5089
  5049  000CA6                     u5000:
  5050  000CA6  0E00               	movlw	0
  5051  000CA8  6E34               	movwf	___fladd@signs^0,c
  5052  000CAA                     l5089:
  5053  000CAA  A036               	btfss	___fladd@bexp^0,0,c
  5054  000CAC  EF5A  F006         	goto	u5011
  5055  000CB0  EF5C  F006         	goto	u5010
  5056  000CB4                     u5011:
  5057  000CB4  EF5F  F006         	goto	l5093
  5058  000CB8                     u5010:
  5059  000CB8  8E2A               	bsf	(___fladd@b+2)^0,7,c
  5060  000CBA  EF60  F006         	goto	l5095
  5061  000CBE                     l5093:
  5062  000CBE  9E2A               	bcf	(___fladd@b+2)^0,7,c
  5063  000CC0                     l5095:
  5064  000CC0  90D8               	bcf	status,0,c
  5065  000CC2  3036               	rrcf	___fladd@bexp^0,w,c
  5066  000CC4  6E2B               	movwf	(___fladd@b+3)^0,c
  5067  000CC6  AE34               	btfss	___fladd@signs^0,7,c
  5068  000CC8  EF68  F006         	goto	u5021
  5069  000CCC  EF6A  F006         	goto	u5020
  5070  000CD0                     u5021:
  5071  000CD0  EF6B  F006         	goto	l5101
  5072  000CD4                     u5020:
  5073  000CD4  8E2B               	bsf	(___fladd@b+3)^0,7,c
  5074  000CD6                     l5101:
  5075  000CD6  C028  F028         	movff	___fladd@b,?___fladd
  5076  000CDA  C029  F029         	movff	___fladd@b+1,?___fladd+1
  5077  000CDE  C02A  F02A         	movff	___fladd@b+2,?___fladd+2
  5078  000CE2  C02B  F02B         	movff	___fladd@b+3,?___fladd+3
  5079  000CE6                     l1210:
  5080  000CE6  0012               	return		;funcret
  5081  000CE8                     __end_of___fladd:
  5082                           	callstack 0
  5083                           
  5084 ;; *************** function _MFRC522_ReadCardSerial3 *****************
  5085 ;; Defined at:
  5086 ;;		line 1221 in file "rc522.c"
  5087 ;; Parameters:    Size  Location     Type
  5088 ;;  str             2   39[COMRAM] PTR unsigned char 
  5089 ;;		 -> UID_3(20), 
  5090 ;; Auto vars:     Size  Location     Type
  5091 ;;  _status         1    0        unsigned char 
  5092 ;; Return value:  Size  Location     Type
  5093 ;;                  1    wreg      unsigned char 
  5094 ;; Registers used:
  5095 ;;		wreg, fsr2l, fsr2h, status,2, status,0, prodl, prodh, cstack
  5096 ;; Tracked objects:
  5097 ;;		On entry : 0/0
  5098 ;;		On exit  : 0/0
  5099 ;;		Unchanged: 0/0
  5100 ;; Data sizes:     COMRAM   BANK0   BANK1   BANK2   BANK3   BANK4   BANK5   BANK6   BANK7
  5101 ;;      Params:         2       0       0       0       0       0       0       0       0
  5102 ;;      Locals:         0       0       0       0       0       0       0       0       0
  5103 ;;      Temps:          0       0       0       0       0       0       0       0       0
  5104 ;;      Totals:         2       0       0       0       0       0       0       0       0
  5105 ;;Total ram usage:        2 bytes
  5106 ;; Hardware stack levels used: 1
  5107 ;; Hardware stack levels required when called: 4
  5108 ;; This function calls:
  5109 ;;		_MFRC522_AntiColl3
  5110 ;; This function is called by:
  5111 ;;		_main
  5112 ;; This function uses a non-reentrant model
  5113 ;;
  5114                           
  5115                           	psect	text20
  5116  0039B2                     __ptext20:
  5117                           	callstack 0
  5118  0039B2                     _MFRC522_ReadCardSerial3:
  5119                           	callstack 26
  5120  0039B2  C028  F020         	movff	MFRC522_ReadCardSerial3@str,MFRC522_AntiColl3@serNum
  5121  0039B6  C029  F021         	movff	MFRC522_ReadCardSerial3@str+1,MFRC522_AntiColl3@serNum+1
  5122  0039BA  EC3A  F015         	call	_MFRC522_AntiColl3	;wreg free
  5123  0039BE                     
  5124                           ;rc522.c: 1225:     str[5] = 0;
  5125  0039BE  EE20 F005          	lfsr	2,5
  5126  0039C2  5028               	movf	MFRC522_ReadCardSerial3@str^0,w,c
  5127  0039C4  26D9               	addwf	fsr2l,f,c
  5128  0039C6  5029               	movf	(MFRC522_ReadCardSerial3@str+1)^0,w,c
  5129  0039C8  22DA               	addwfc	fsr2h,f,c
  5130  0039CA  0E00               	movlw	0
  5131  0039CC  6EDF               	movwf	indf2,c
  5132  0039CE  0012               	return		;funcret
  5133  0039D0                     __end_of_MFRC522_ReadCardSerial3:
  5134                           	callstack 0
  5135                           
  5136 ;; *************** function _MFRC522_AntiColl3 *****************
  5137 ;; Defined at:
  5138 ;;		line 1117 in file "rc522.c"
  5139 ;; Parameters:    Size  Location     Type
  5140 ;;  serNum          2   31[COMRAM] PTR unsigned char 
  5141 ;;		 -> UID_3(20), 
  5142 ;; Auto vars:     Size  Location     Type
  5143 ;;  unLen           2   35[COMRAM] unsigned int 
  5144 ;;  i               1   38[COMRAM] unsigned char 
  5145 ;;  _status         1   37[COMRAM] unsigned char 
  5146 ;;  serNumCheck     1   34[COMRAM] unsigned char 
  5147 ;; Return value:  Size  Location     Type
  5148 ;;                  1    wreg      unsigned char 
  5149 ;; Registers used:
  5150 ;;		wreg, fsr2l, fsr2h, status,2, status,0, prodl, prodh, cstack
  5151 ;; Tracked objects:
  5152 ;;		On entry : 0/0
  5153 ;;		On exit  : 0/0
  5154 ;;		Unchanged: 0/0
  5155 ;; Data sizes:     COMRAM   BANK0   BANK1   BANK2   BANK3   BANK4   BANK5   BANK6   BANK7
  5156 ;;      Params:         2       0       0       0       0       0       0       0       0
  5157 ;;      Locals:         5       0       0       0       0       0       0       0       0
  5158 ;;      Temps:          1       0       0       0       0       0       0       0       0
  5159 ;;      Totals:         8       0       0       0       0       0       0       0       0
  5160 ;;Total ram usage:        8 bytes
  5161 ;; Hardware stack levels used: 1
  5162 ;; Hardware stack levels required when called: 3
  5163 ;; This function calls:
  5164 ;;		_MFRC522_Clear_Bit3
  5165 ;;		_MFRC522_ToCard3
  5166 ;;		_MFRC522_Wr3
  5167 ;; This function is called by:
  5168 ;;		_main
  5169 ;;		_MFRC522_ReadCardSerial3
  5170 ;; This function uses a non-reentrant model
  5171 ;;
  5172                           
  5173                           	psect	text21
  5174  002A74                     __ptext21:
  5175                           	callstack 0
  5176  002A74                     _MFRC522_AntiColl3:
  5177                           	callstack 26
  5178  002A74                     
  5179                           ;rc522.c: 1117: char MFRC522_AntiColl3(char *serNum);rc522.c: 1118: {;rc522.c: 1119:    
      +                           char _status;;rc522.c: 1120:     char i;;rc522.c: 1121:     char serNumCheck = 0;
  5180  002A74  0E00               	movlw	0
  5181  002A76  6E23               	movwf	MFRC522_AntiColl3@serNumCheck^0,c
  5182  002A78                     
  5183                           ;rc522.c: 1122:     unsigned unLen;;rc522.c: 1123:     MFRC522_Wr3(0x0D, 0x00);
  5184  002A78  0E00               	movlw	0
  5185  002A7A  6E01               	movwf	MFRC522_Wr3@value^0,c
  5186  002A7C  0E0D               	movlw	13
  5187  002A7E  EC75  F018         	call	_MFRC522_Wr3
  5188  002A82                     
  5189                           ;rc522.c: 1124:     serNum[0] = 0x93;
  5190  002A82  C020  FFD9         	movff	MFRC522_AntiColl3@serNum,fsr2l
  5191  002A86  C021  FFDA         	movff	MFRC522_AntiColl3@serNum+1,fsr2h
  5192  002A8A  0E93               	movlw	147
  5193  002A8C  6EDF               	movwf	indf2,c
  5194  002A8E                     
  5195                           ;rc522.c: 1125:     serNum[1] = 0x20;
  5196  002A8E  EE20 F001          	lfsr	2,1
  5197  002A92  5020               	movf	MFRC522_AntiColl3@serNum^0,w,c
  5198  002A94  26D9               	addwf	fsr2l,f,c
  5199  002A96  5021               	movf	(MFRC522_AntiColl3@serNum+1)^0,w,c
  5200  002A98  22DA               	addwfc	fsr2h,f,c
  5201  002A9A  0E20               	movlw	32
  5202  002A9C  6EDF               	movwf	indf2,c
  5203  002A9E                     
  5204                           ;rc522.c: 1126:     MFRC522_Clear_Bit3(0x08, 0x08);
  5205  002A9E  0E08               	movlw	8
  5206  002AA0  6E0A               	movwf	MFRC522_Clear_Bit3@mask^0,c
  5207  002AA2  0E08               	movlw	8
  5208  002AA4  EC22  F01D         	call	_MFRC522_Clear_Bit3
  5209  002AA8                     
  5210                           ;rc522.c: 1127:     _status = MFRC522_ToCard3(0x0C, serNum, 2, serNum, &unLen);
  5211  002AA8  C020  F00D         	movff	MFRC522_AntiColl3@serNum,MFRC522_ToCard3@sendData
  5212  002AAC  C021  F00E         	movff	MFRC522_AntiColl3@serNum+1,MFRC522_ToCard3@sendData+1
  5213  002AB0  0E02               	movlw	2
  5214  002AB2  6E0F               	movwf	MFRC522_ToCard3@sendLen^0,c
  5215  002AB4  C020  F010         	movff	MFRC522_AntiColl3@serNum,MFRC522_ToCard3@backData
  5216  002AB8  C021  F011         	movff	MFRC522_AntiColl3@serNum+1,MFRC522_ToCard3@backData+1
  5217  002ABC  0E24               	movlw	low MFRC522_AntiColl3@unLen
  5218  002ABE  6E12               	movwf	MFRC522_ToCard3@backLen^0,c
  5219  002AC0  0E00               	movlw	high MFRC522_AntiColl3@unLen
  5220  002AC2  6E13               	movwf	(MFRC522_ToCard3@backLen+1)^0,c
  5221  002AC4  0E0C               	movlw	12
  5222  002AC6  EC78  F00B         	call	_MFRC522_ToCard3
  5223  002ACA  6E26               	movwf	MFRC522_AntiColl3@_status^0,c
  5224  002ACC                     
  5225                           ;rc522.c: 1128:     if(_status == 0)
  5226  002ACC  5026               	movf	MFRC522_AntiColl3@_status^0,w,c
  5227  002ACE  A4D8               	btfss	status,2,c
  5228  002AD0  EF6C  F015         	goto	u4301
  5229  002AD4  EF6E  F015         	goto	u4300
  5230  002AD8                     u4301:
  5231  002AD8  EF92  F015         	goto	l613
  5232  002ADC                     u4300:
  5233  002ADC                     
  5234                           ;rc522.c: 1129:     {;rc522.c: 1130:         for(i=0; i<5; i++)
  5235  002ADC  0E00               	movlw	0
  5236  002ADE  6E27               	movwf	MFRC522_AntiColl3@i^0,c
  5237  002AE0                     l4609:
  5238                           
  5239                           ;rc522.c: 1131:         {;rc522.c: 1132:             serNumCheck ^= serNum[i];
  5240  002AE0  5027               	movf	MFRC522_AntiColl3@i^0,w,c
  5241  002AE2  2420               	addwf	MFRC522_AntiColl3@serNum^0,w,c
  5242  002AE4  6ED9               	movwf	fsr2l,c
  5243  002AE6  0E00               	movlw	0
  5244  002AE8  2021               	addwfc	(MFRC522_AntiColl3@serNum+1)^0,w,c
  5245  002AEA  6EDA               	movwf	fsr2h,c
  5246  002AEC  50DF               	movf	indf2,w,c
  5247  002AEE  1A23               	xorwf	MFRC522_AntiColl3@serNumCheck^0,f,c
  5248  002AF0                     
  5249                           ;rc522.c: 1133:         }
  5250  002AF0  2A27               	incf	MFRC522_AntiColl3@i^0,f,c
  5251  002AF2  0E04               	movlw	4
  5252  002AF4  6427               	cpfsgt	MFRC522_AntiColl3@i^0,c
  5253  002AF6  EF7F  F015         	goto	u4311
  5254  002AFA  EF81  F015         	goto	u4310
  5255  002AFE                     u4311:
  5256  002AFE  EF70  F015         	goto	l4609
  5257  002B02                     u4310:
  5258  002B02                     
  5259                           ;rc522.c: 1134:         if(serNumCheck != serNum[5])
  5260  002B02  EE20 F005          	lfsr	2,5
  5261  002B06  5020               	movf	MFRC522_AntiColl3@serNum^0,w,c
  5262  002B08  26D9               	addwf	fsr2l,f,c
  5263  002B0A  5021               	movf	(MFRC522_AntiColl3@serNum+1)^0,w,c
  5264  002B0C  22DA               	addwfc	fsr2h,f,c
  5265  002B0E  5023               	movf	MFRC522_AntiColl3@serNumCheck^0,w,c
  5266  002B10  18DE               	xorwf	postinc2,w,c
  5267  002B12  B4D8               	btfsc	status,2,c
  5268  002B14  EF8E  F015         	goto	u4321
  5269  002B18  EF90  F015         	goto	u4320
  5270  002B1C                     u4321:
  5271  002B1C  EF92  F015         	goto	l613
  5272  002B20                     u4320:
  5273  002B20                     
  5274                           ;rc522.c: 1135:         {;rc522.c: 1136:             _status = 2;
  5275  002B20  0E02               	movlw	2
  5276  002B22  6E26               	movwf	MFRC522_AntiColl3@_status^0,c
  5277  002B24                     l613:
  5278                           
  5279                           ;rc522.c: 1139:     return _status;
  5280  002B24  5026               	movf	MFRC522_AntiColl3@_status^0,w,c
  5281  002B26  0012               	return		;funcret
  5282  002B28                     __end_of_MFRC522_AntiColl3:
  5283                           	callstack 0
  5284                           
  5285 ;; *************** function _MFRC522_ReadCardSerial2 *****************
  5286 ;; Defined at:
  5287 ;;		line 1210 in file "rc522.c"
  5288 ;; Parameters:    Size  Location     Type
  5289 ;;  str             2   39[COMRAM] PTR unsigned char 
  5290 ;;		 -> UID_2(20), 
  5291 ;; Auto vars:     Size  Location     Type
  5292 ;;  _status         1    0        unsigned char 
  5293 ;; Return value:  Size  Location     Type
  5294 ;;                  1    wreg      unsigned char 
  5295 ;; Registers used:
  5296 ;;		wreg, fsr2l, fsr2h, status,2, status,0, prodl, prodh, cstack
  5297 ;; Tracked objects:
  5298 ;;		On entry : 0/0
  5299 ;;		On exit  : 0/0
  5300 ;;		Unchanged: 0/0
  5301 ;; Data sizes:     COMRAM   BANK0   BANK1   BANK2   BANK3   BANK4   BANK5   BANK6   BANK7
  5302 ;;      Params:         2       0       0       0       0       0       0       0       0
  5303 ;;      Locals:         0       0       0       0       0       0       0       0       0
  5304 ;;      Temps:          0       0       0       0       0       0       0       0       0
  5305 ;;      Totals:         2       0       0       0       0       0       0       0       0
  5306 ;;Total ram usage:        2 bytes
  5307 ;; Hardware stack levels used: 1
  5308 ;; Hardware stack levels required when called: 4
  5309 ;; This function calls:
  5310 ;;		_MFRC522_AntiColl2
  5311 ;; This function is called by:
  5312 ;;		_main
  5313 ;; This function uses a non-reentrant model
  5314 ;;
  5315                           
  5316                           	psect	text22
  5317  0039D0                     __ptext22:
  5318                           	callstack 0
  5319  0039D0                     _MFRC522_ReadCardSerial2:
  5320                           	callstack 26
  5321  0039D0  C028  F020         	movff	MFRC522_ReadCardSerial2@str,MFRC522_AntiColl2@serNum
  5322  0039D4  C029  F021         	movff	MFRC522_ReadCardSerial2@str+1,MFRC522_AntiColl2@serNum+1
  5323  0039D8  EC94  F015         	call	_MFRC522_AntiColl2	;wreg free
  5324  0039DC                     
  5325                           ;rc522.c: 1214:     str[5] = 0;
  5326  0039DC  EE20 F005          	lfsr	2,5
  5327  0039E0  5028               	movf	MFRC522_ReadCardSerial2@str^0,w,c
  5328  0039E2  26D9               	addwf	fsr2l,f,c
  5329  0039E4  5029               	movf	(MFRC522_ReadCardSerial2@str+1)^0,w,c
  5330  0039E6  22DA               	addwfc	fsr2h,f,c
  5331  0039E8  0E00               	movlw	0
  5332  0039EA  6EDF               	movwf	indf2,c
  5333  0039EC  0012               	return		;funcret
  5334  0039EE                     __end_of_MFRC522_ReadCardSerial2:
  5335                           	callstack 0
  5336                           
  5337 ;; *************** function _MFRC522_AntiColl2 *****************
  5338 ;; Defined at:
  5339 ;;		line 1092 in file "rc522.c"
  5340 ;; Parameters:    Size  Location     Type
  5341 ;;  serNum          2   31[COMRAM] PTR unsigned char 
  5342 ;;		 -> UID_2(20), 
  5343 ;; Auto vars:     Size  Location     Type
  5344 ;;  unLen           2   35[COMRAM] unsigned int 
  5345 ;;  i               1   38[COMRAM] unsigned char 
  5346 ;;  _status         1   37[COMRAM] unsigned char 
  5347 ;;  serNumCheck     1   34[COMRAM] unsigned char 
  5348 ;; Return value:  Size  Location     Type
  5349 ;;                  1    wreg      unsigned char 
  5350 ;; Registers used:
  5351 ;;		wreg, fsr2l, fsr2h, status,2, status,0, prodl, prodh, cstack
  5352 ;; Tracked objects:
  5353 ;;		On entry : 0/0
  5354 ;;		On exit  : 0/0
  5355 ;;		Unchanged: 0/0
  5356 ;; Data sizes:     COMRAM   BANK0   BANK1   BANK2   BANK3   BANK4   BANK5   BANK6   BANK7
  5357 ;;      Params:         2       0       0       0       0       0       0       0       0
  5358 ;;      Locals:         5       0       0       0       0       0       0       0       0
  5359 ;;      Temps:          1       0       0       0       0       0       0       0       0
  5360 ;;      Totals:         8       0       0       0       0       0       0       0       0
  5361 ;;Total ram usage:        8 bytes
  5362 ;; Hardware stack levels used: 1
  5363 ;; Hardware stack levels required when called: 3
  5364 ;; This function calls:
  5365 ;;		_MFRC522_Clear_Bit2
  5366 ;;		_MFRC522_ToCard2
  5367 ;;		_MFRC522_Wr2
  5368 ;; This function is called by:
  5369 ;;		_main
  5370 ;;		_MFRC522_ReadCardSerial2
  5371 ;; This function uses a non-reentrant model
  5372 ;;
  5373                           
  5374                           	psect	text23
  5375  002B28                     __ptext23:
  5376                           	callstack 0
  5377  002B28                     _MFRC522_AntiColl2:
  5378                           	callstack 26
  5379  002B28                     
  5380                           ;rc522.c: 1092: char MFRC522_AntiColl2(char *serNum);rc522.c: 1093: {;rc522.c: 1094:    
      +                           char _status;;rc522.c: 1095:     char i;;rc522.c: 1096:     char serNumCheck = 0;
  5381  002B28  0E00               	movlw	0
  5382  002B2A  6E23               	movwf	MFRC522_AntiColl2@serNumCheck^0,c
  5383  002B2C                     
  5384                           ;rc522.c: 1097:     unsigned unLen;;rc522.c: 1098:     MFRC522_Wr2(0x0D, 0x00);
  5385  002B2C  0E00               	movlw	0
  5386  002B2E  6E01               	movwf	MFRC522_Wr2@value^0,c
  5387  002B30  0E0D               	movlw	13
  5388  002B32  ECC1  F018         	call	_MFRC522_Wr2
  5389  002B36                     
  5390                           ;rc522.c: 1099:     serNum[0] = 0x93;
  5391  002B36  C020  FFD9         	movff	MFRC522_AntiColl2@serNum,fsr2l
  5392  002B3A  C021  FFDA         	movff	MFRC522_AntiColl2@serNum+1,fsr2h
  5393  002B3E  0E93               	movlw	147
  5394  002B40  6EDF               	movwf	indf2,c
  5395  002B42                     
  5396                           ;rc522.c: 1100:     serNum[1] = 0x20;
  5397  002B42  EE20 F001          	lfsr	2,1
  5398  002B46  5020               	movf	MFRC522_AntiColl2@serNum^0,w,c
  5399  002B48  26D9               	addwf	fsr2l,f,c
  5400  002B4A  5021               	movf	(MFRC522_AntiColl2@serNum+1)^0,w,c
  5401  002B4C  22DA               	addwfc	fsr2h,f,c
  5402  002B4E  0E20               	movlw	32
  5403  002B50  6EDF               	movwf	indf2,c
  5404  002B52                     
  5405                           ;rc522.c: 1101:     MFRC522_Clear_Bit2(0x08, 0x08);
  5406  002B52  0E08               	movlw	8
  5407  002B54  6E0A               	movwf	MFRC522_Clear_Bit2@mask^0,c
  5408  002B56  0E08               	movlw	8
  5409  002B58  EC2F  F01D         	call	_MFRC522_Clear_Bit2
  5410  002B5C                     
  5411                           ;rc522.c: 1102:     _status = MFRC522_ToCard2(0x0C, serNum, 2, serNum, &unLen);
  5412  002B5C  C020  F00D         	movff	MFRC522_AntiColl2@serNum,MFRC522_ToCard2@sendData
  5413  002B60  C021  F00E         	movff	MFRC522_AntiColl2@serNum+1,MFRC522_ToCard2@sendData+1
  5414  002B64  0E02               	movlw	2
  5415  002B66  6E0F               	movwf	MFRC522_ToCard2@sendLen^0,c
  5416  002B68  C020  F010         	movff	MFRC522_AntiColl2@serNum,MFRC522_ToCard2@backData
  5417  002B6C  C021  F011         	movff	MFRC522_AntiColl2@serNum+1,MFRC522_ToCard2@backData+1
  5418  002B70  0E24               	movlw	low MFRC522_AntiColl2@unLen
  5419  002B72  6E12               	movwf	MFRC522_ToCard2@backLen^0,c
  5420  002B74  0E00               	movlw	high MFRC522_AntiColl2@unLen
  5421  002B76  6E13               	movwf	(MFRC522_ToCard2@backLen+1)^0,c
  5422  002B78  0E0C               	movlw	12
  5423  002B7A  ECBF  F00C         	call	_MFRC522_ToCard2
  5424  002B7E  6E26               	movwf	MFRC522_AntiColl2@_status^0,c
  5425  002B80                     
  5426                           ;rc522.c: 1103:     if(_status == 0)
  5427  002B80  5026               	movf	MFRC522_AntiColl2@_status^0,w,c
  5428  002B82  A4D8               	btfss	status,2,c
  5429  002B84  EFC6  F015         	goto	u4271
  5430  002B88  EFC8  F015         	goto	u4270
  5431  002B8C                     u4271:
  5432  002B8C  EFEC  F015         	goto	l606
  5433  002B90                     u4270:
  5434  002B90                     
  5435                           ;rc522.c: 1104:     {;rc522.c: 1105:         for(i=0; i<5; i++)
  5436  002B90  0E00               	movlw	0
  5437  002B92  6E27               	movwf	MFRC522_AntiColl2@i^0,c
  5438  002B94                     l4577:
  5439                           
  5440                           ;rc522.c: 1106:         {;rc522.c: 1107:             serNumCheck ^= serNum[i];
  5441  002B94  5027               	movf	MFRC522_AntiColl2@i^0,w,c
  5442  002B96  2420               	addwf	MFRC522_AntiColl2@serNum^0,w,c
  5443  002B98  6ED9               	movwf	fsr2l,c
  5444  002B9A  0E00               	movlw	0
  5445  002B9C  2021               	addwfc	(MFRC522_AntiColl2@serNum+1)^0,w,c
  5446  002B9E  6EDA               	movwf	fsr2h,c
  5447  002BA0  50DF               	movf	indf2,w,c
  5448  002BA2  1A23               	xorwf	MFRC522_AntiColl2@serNumCheck^0,f,c
  5449  002BA4                     
  5450                           ;rc522.c: 1108:         }
  5451  002BA4  2A27               	incf	MFRC522_AntiColl2@i^0,f,c
  5452  002BA6  0E04               	movlw	4
  5453  002BA8  6427               	cpfsgt	MFRC522_AntiColl2@i^0,c
  5454  002BAA  EFD9  F015         	goto	u4281
  5455  002BAE  EFDB  F015         	goto	u4280
  5456  002BB2                     u4281:
  5457  002BB2  EFCA  F015         	goto	l4577
  5458  002BB6                     u4280:
  5459  002BB6                     
  5460                           ;rc522.c: 1109:         if(serNumCheck != serNum[5])
  5461  002BB6  EE20 F005          	lfsr	2,5
  5462  002BBA  5020               	movf	MFRC522_AntiColl2@serNum^0,w,c
  5463  002BBC  26D9               	addwf	fsr2l,f,c
  5464  002BBE  5021               	movf	(MFRC522_AntiColl2@serNum+1)^0,w,c
  5465  002BC0  22DA               	addwfc	fsr2h,f,c
  5466  002BC2  5023               	movf	MFRC522_AntiColl2@serNumCheck^0,w,c
  5467  002BC4  18DE               	xorwf	postinc2,w,c
  5468  002BC6  B4D8               	btfsc	status,2,c
  5469  002BC8  EFE8  F015         	goto	u4291
  5470  002BCC  EFEA  F015         	goto	u4290
  5471  002BD0                     u4291:
  5472  002BD0  EFEC  F015         	goto	l606
  5473  002BD4                     u4290:
  5474  002BD4                     
  5475                           ;rc522.c: 1110:         {;rc522.c: 1111:             _status = 2;
  5476  002BD4  0E02               	movlw	2
  5477  002BD6  6E26               	movwf	MFRC522_AntiColl2@_status^0,c
  5478  002BD8                     l606:
  5479                           
  5480                           ;rc522.c: 1114:     return _status;
  5481  002BD8  5026               	movf	MFRC522_AntiColl2@_status^0,w,c
  5482  002BDA  0012               	return		;funcret
  5483  002BDC                     __end_of_MFRC522_AntiColl2:
  5484                           	callstack 0
  5485                           
  5486 ;; *************** function _MFRC522_ReadCardSerial *****************
  5487 ;; Defined at:
  5488 ;;		line 1199 in file "rc522.c"
  5489 ;; Parameters:    Size  Location     Type
  5490 ;;  str             2   39[COMRAM] PTR unsigned char 
  5491 ;;		 -> UID_1(20), 
  5492 ;; Auto vars:     Size  Location     Type
  5493 ;;  _status         1    0        unsigned char 
  5494 ;; Return value:  Size  Location     Type
  5495 ;;                  1    wreg      unsigned char 
  5496 ;; Registers used:
  5497 ;;		wreg, fsr2l, fsr2h, status,2, status,0, prodl, prodh, cstack
  5498 ;; Tracked objects:
  5499 ;;		On entry : 0/0
  5500 ;;		On exit  : 0/0
  5501 ;;		Unchanged: 0/0
  5502 ;; Data sizes:     COMRAM   BANK0   BANK1   BANK2   BANK3   BANK4   BANK5   BANK6   BANK7
  5503 ;;      Params:         2       0       0       0       0       0       0       0       0
  5504 ;;      Locals:         0       0       0       0       0       0       0       0       0
  5505 ;;      Temps:          0       0       0       0       0       0       0       0       0
  5506 ;;      Totals:         2       0       0       0       0       0       0       0       0
  5507 ;;Total ram usage:        2 bytes
  5508 ;; Hardware stack levels used: 1
  5509 ;; Hardware stack levels required when called: 4
  5510 ;; This function calls:
  5511 ;;		_MFRC522_AntiColl
  5512 ;; This function is called by:
  5513 ;;		_main
  5514 ;; This function uses a non-reentrant model
  5515 ;;
  5516                           
  5517                           	psect	text24
  5518  0039EE                     __ptext24:
  5519                           	callstack 0
  5520  0039EE                     _MFRC522_ReadCardSerial:
  5521                           	callstack 26
  5522  0039EE  C028  F020         	movff	MFRC522_ReadCardSerial@str,MFRC522_AntiColl@serNum
  5523  0039F2  C029  F021         	movff	MFRC522_ReadCardSerial@str+1,MFRC522_AntiColl@serNum+1
  5524  0039F6  ECEE  F015         	call	_MFRC522_AntiColl	;wreg free
  5525  0039FA                     
  5526                           ;rc522.c: 1203:     str[5] = 0;
  5527  0039FA  EE20 F005          	lfsr	2,5
  5528  0039FE  5028               	movf	MFRC522_ReadCardSerial@str^0,w,c
  5529  003A00  26D9               	addwf	fsr2l,f,c
  5530  003A02  5029               	movf	(MFRC522_ReadCardSerial@str+1)^0,w,c
  5531  003A04  22DA               	addwfc	fsr2h,f,c
  5532  003A06  0E00               	movlw	0
  5533  003A08  6EDF               	movwf	indf2,c
  5534  003A0A  0012               	return		;funcret
  5535  003A0C                     __end_of_MFRC522_ReadCardSerial:
  5536                           	callstack 0
  5537                           
  5538 ;; *************** function _MFRC522_AntiColl *****************
  5539 ;; Defined at:
  5540 ;;		line 1067 in file "rc522.c"
  5541 ;; Parameters:    Size  Location     Type
  5542 ;;  serNum          2   31[COMRAM] PTR unsigned char 
  5543 ;;		 -> UID_1(20), 
  5544 ;; Auto vars:     Size  Location     Type
  5545 ;;  unLen           2   35[COMRAM] unsigned int 
  5546 ;;  i               1   38[COMRAM] unsigned char 
  5547 ;;  _status         1   37[COMRAM] unsigned char 
  5548 ;;  serNumCheck     1   34[COMRAM] unsigned char 
  5549 ;; Return value:  Size  Location     Type
  5550 ;;                  1    wreg      unsigned char 
  5551 ;; Registers used:
  5552 ;;		wreg, fsr2l, fsr2h, status,2, status,0, prodl, prodh, cstack
  5553 ;; Tracked objects:
  5554 ;;		On entry : 0/0
  5555 ;;		On exit  : 0/0
  5556 ;;		Unchanged: 0/0
  5557 ;; Data sizes:     COMRAM   BANK0   BANK1   BANK2   BANK3   BANK4   BANK5   BANK6   BANK7
  5558 ;;      Params:         2       0       0       0       0       0       0       0       0
  5559 ;;      Locals:         5       0       0       0       0       0       0       0       0
  5560 ;;      Temps:          1       0       0       0       0       0       0       0       0
  5561 ;;      Totals:         8       0       0       0       0       0       0       0       0
  5562 ;;Total ram usage:        8 bytes
  5563 ;; Hardware stack levels used: 1
  5564 ;; Hardware stack levels required when called: 3
  5565 ;; This function calls:
  5566 ;;		_MFRC522_Clear_Bit
  5567 ;;		_MFRC522_ToCard
  5568 ;;		_MFRC522_Wr
  5569 ;; This function is called by:
  5570 ;;		_main
  5571 ;;		_MFRC522_ReadCardSerial
  5572 ;; This function uses a non-reentrant model
  5573 ;;
  5574                           
  5575                           	psect	text25
  5576  002BDC                     __ptext25:
  5577                           	callstack 0
  5578  002BDC                     _MFRC522_AntiColl:
  5579                           	callstack 26
  5580  002BDC                     
  5581                           ;rc522.c: 1067: char MFRC522_AntiColl(char *serNum);rc522.c: 1068: {;rc522.c: 1069:     
      +                          char _status;;rc522.c: 1070:     char i;;rc522.c: 1071:     char serNumCheck = 0;
  5582  002BDC  0E00               	movlw	0
  5583  002BDE  6E23               	movwf	MFRC522_AntiColl@serNumCheck^0,c
  5584  002BE0                     
  5585                           ;rc522.c: 1072:     unsigned unLen;;rc522.c: 1073:     MFRC522_Wr(0x0D, 0x00);
  5586  002BE0  0E00               	movlw	0
  5587  002BE2  6E01               	movwf	MFRC522_Wr@value^0,c
  5588  002BE4  0E0D               	movlw	13
  5589  002BE6  EC0D  F019         	call	_MFRC522_Wr
  5590  002BEA                     
  5591                           ;rc522.c: 1074:     serNum[0] = 0x93;
  5592  002BEA  C020  FFD9         	movff	MFRC522_AntiColl@serNum,fsr2l
  5593  002BEE  C021  FFDA         	movff	MFRC522_AntiColl@serNum+1,fsr2h
  5594  002BF2  0E93               	movlw	147
  5595  002BF4  6EDF               	movwf	indf2,c
  5596  002BF6                     
  5597                           ;rc522.c: 1075:     serNum[1] = 0x20;
  5598  002BF6  EE20 F001          	lfsr	2,1
  5599  002BFA  5020               	movf	MFRC522_AntiColl@serNum^0,w,c
  5600  002BFC  26D9               	addwf	fsr2l,f,c
  5601  002BFE  5021               	movf	(MFRC522_AntiColl@serNum+1)^0,w,c
  5602  002C00  22DA               	addwfc	fsr2h,f,c
  5603  002C02  0E20               	movlw	32
  5604  002C04  6EDF               	movwf	indf2,c
  5605  002C06                     
  5606                           ;rc522.c: 1076:     MFRC522_Clear_Bit(0x08, 0x08);
  5607  002C06  0E08               	movlw	8
  5608  002C08  6E0A               	movwf	MFRC522_Clear_Bit@mask^0,c
  5609  002C0A  0E08               	movlw	8
  5610  002C0C  EC3C  F01D         	call	_MFRC522_Clear_Bit
  5611  002C10                     
  5612                           ;rc522.c: 1077:     _status = MFRC522_ToCard(0x0C, serNum, 2, serNum, &unLen);
  5613  002C10  C020  F00D         	movff	MFRC522_AntiColl@serNum,MFRC522_ToCard@sendData
  5614  002C14  C021  F00E         	movff	MFRC522_AntiColl@serNum+1,MFRC522_ToCard@sendData+1
  5615  002C18  0E02               	movlw	2
  5616  002C1A  6E0F               	movwf	MFRC522_ToCard@sendLen^0,c
  5617  002C1C  C020  F010         	movff	MFRC522_AntiColl@serNum,MFRC522_ToCard@backData
  5618  002C20  C021  F011         	movff	MFRC522_AntiColl@serNum+1,MFRC522_ToCard@backData+1
  5619  002C24  0E24               	movlw	low MFRC522_AntiColl@unLen
  5620  002C26  6E12               	movwf	MFRC522_ToCard@backLen^0,c
  5621  002C28  0E00               	movlw	high MFRC522_AntiColl@unLen
  5622  002C2A  6E13               	movwf	(MFRC522_ToCard@backLen+1)^0,c
  5623  002C2C  0E0C               	movlw	12
  5624  002C2E  EC06  F00E         	call	_MFRC522_ToCard
  5625  002C32  6E26               	movwf	MFRC522_AntiColl@_status^0,c
  5626  002C34                     
  5627                           ;rc522.c: 1078:     if(_status == 0)
  5628  002C34  5026               	movf	MFRC522_AntiColl@_status^0,w,c
  5629  002C36  A4D8               	btfss	status,2,c
  5630  002C38  EF20  F016         	goto	u4241
  5631  002C3C  EF22  F016         	goto	u4240
  5632  002C40                     u4241:
  5633  002C40  EF46  F016         	goto	l599
  5634  002C44                     u4240:
  5635  002C44                     
  5636                           ;rc522.c: 1079:     {;rc522.c: 1080:         for(i=0; i<5; i++)
  5637  002C44  0E00               	movlw	0
  5638  002C46  6E27               	movwf	MFRC522_AntiColl@i^0,c
  5639  002C48                     l4545:
  5640                           
  5641                           ;rc522.c: 1081:         {;rc522.c: 1082:             serNumCheck ^= serNum[i];
  5642  002C48  5027               	movf	MFRC522_AntiColl@i^0,w,c
  5643  002C4A  2420               	addwf	MFRC522_AntiColl@serNum^0,w,c
  5644  002C4C  6ED9               	movwf	fsr2l,c
  5645  002C4E  0E00               	movlw	0
  5646  002C50  2021               	addwfc	(MFRC522_AntiColl@serNum+1)^0,w,c
  5647  002C52  6EDA               	movwf	fsr2h,c
  5648  002C54  50DF               	movf	indf2,w,c
  5649  002C56  1A23               	xorwf	MFRC522_AntiColl@serNumCheck^0,f,c
  5650  002C58                     
  5651                           ;rc522.c: 1083:         }
  5652  002C58  2A27               	incf	MFRC522_AntiColl@i^0,f,c
  5653  002C5A  0E04               	movlw	4
  5654  002C5C  6427               	cpfsgt	MFRC522_AntiColl@i^0,c
  5655  002C5E  EF33  F016         	goto	u4251
  5656  002C62  EF35  F016         	goto	u4250
  5657  002C66                     u4251:
  5658  002C66  EF24  F016         	goto	l4545
  5659  002C6A                     u4250:
  5660  002C6A                     
  5661                           ;rc522.c: 1084:         if(serNumCheck != serNum[5])
  5662  002C6A  EE20 F005          	lfsr	2,5
  5663  002C6E  5020               	movf	MFRC522_AntiColl@serNum^0,w,c
  5664  002C70  26D9               	addwf	fsr2l,f,c
  5665  002C72  5021               	movf	(MFRC522_AntiColl@serNum+1)^0,w,c
  5666  002C74  22DA               	addwfc	fsr2h,f,c
  5667  002C76  5023               	movf	MFRC522_AntiColl@serNumCheck^0,w,c
  5668  002C78  18DE               	xorwf	postinc2,w,c
  5669  002C7A  B4D8               	btfsc	status,2,c
  5670  002C7C  EF42  F016         	goto	u4261
  5671  002C80  EF44  F016         	goto	u4260
  5672  002C84                     u4261:
  5673  002C84  EF46  F016         	goto	l599
  5674  002C88                     u4260:
  5675  002C88                     
  5676                           ;rc522.c: 1085:         {;rc522.c: 1086:             _status = 2;
  5677  002C88  0E02               	movlw	2
  5678  002C8A  6E26               	movwf	MFRC522_AntiColl@_status^0,c
  5679  002C8C                     l599:
  5680                           
  5681                           ;rc522.c: 1089:     return _status;
  5682  002C8C  5026               	movf	MFRC522_AntiColl@_status^0,w,c
  5683  002C8E  0012               	return		;funcret
  5684  002C90                     __end_of_MFRC522_AntiColl:
  5685                           	callstack 0
  5686                           
  5687 ;; *************** function _MFRC522_IsCard3 *****************
  5688 ;; Defined at:
  5689 ;;		line 1183 in file "rc522.c"
  5690 ;; Parameters:    Size  Location     Type
  5691 ;;  TagType         2   37[COMRAM] PTR unsigned char 
  5692 ;;		 -> TagType3(1), 
  5693 ;; Auto vars:     Size  Location     Type
  5694 ;;		None
  5695 ;; Return value:  Size  Location     Type
  5696 ;;                  1    wreg      unsigned char 
  5697 ;; Registers used:
  5698 ;;		wreg, fsr2l, fsr2h, status,2, status,0, prodl, prodh, cstack
  5699 ;; Tracked objects:
  5700 ;;		On entry : 0/0
  5701 ;;		On exit  : 0/0
  5702 ;;		Unchanged: 0/0
  5703 ;; Data sizes:     COMRAM   BANK0   BANK1   BANK2   BANK3   BANK4   BANK5   BANK6   BANK7
  5704 ;;      Params:         2       0       0       0       0       0       0       0       0
  5705 ;;      Locals:         0       0       0       0       0       0       0       0       0
  5706 ;;      Temps:          0       0       0       0       0       0       0       0       0
  5707 ;;      Totals:         2       0       0       0       0       0       0       0       0
  5708 ;;Total ram usage:        2 bytes
  5709 ;; Hardware stack levels used: 1
  5710 ;; Hardware stack levels required when called: 4
  5711 ;; This function calls:
  5712 ;;		_MFRC522_Request3
  5713 ;; This function is called by:
  5714 ;;		_main
  5715 ;; This function uses a non-reentrant model
  5716 ;;
  5717                           
  5718                           	psect	text26
  5719  003B4E                     __ptext26:
  5720                           	callstack 0
  5721  003B4E                     _MFRC522_IsCard3:
  5722                           	callstack 26
  5723  003B4E                     
  5724                           ;rc522.c: 1183: char MFRC522_IsCard3(char *TagType);rc522.c: 1184: {;rc522.c: 1185:     
      +                          if(MFRC522_Request3(0x26, TagType) == 0)
  5725  003B4E  C026  F020         	movff	MFRC522_IsCard3@TagType,MFRC522_Request3@TagType
  5726  003B52  C027  F021         	movff	MFRC522_IsCard3@TagType+1,MFRC522_Request3@TagType+1
  5727  003B56  0E26               	movlw	38
  5728  003B58  ECC6  F019         	call	_MFRC522_Request3
  5729  003B5C  0012               	return		;funcret
  5730  003B5E                     __end_of_MFRC522_IsCard3:
  5731                           	callstack 0
  5732                           
  5733 ;; *************** function _MFRC522_Request3 *****************
  5734 ;; Defined at:
  5735 ;;		line 799 in file "rc522.c"
  5736 ;; Parameters:    Size  Location     Type
  5737 ;;  reqMode         1    wreg     unsigned char 
  5738 ;;  TagType         2   31[COMRAM] PTR unsigned char 
  5739 ;;		 -> TagType3(1), 
  5740 ;; Auto vars:     Size  Location     Type
  5741 ;;  reqMode         1   33[COMRAM] unsigned char 
  5742 ;;  backBits        2   35[COMRAM] unsigned int 
  5743 ;;  _status         1   34[COMRAM] unsigned char 
  5744 ;; Return value:  Size  Location     Type
  5745 ;;                  1    wreg      unsigned char 
  5746 ;; Registers used:
  5747 ;;		wreg, fsr2l, fsr2h, status,2, status,0, prodl, prodh, cstack
  5748 ;; Tracked objects:
  5749 ;;		On entry : 0/0
  5750 ;;		On exit  : 0/0
  5751 ;;		Unchanged: 0/0
  5752 ;; Data sizes:     COMRAM   BANK0   BANK1   BANK2   BANK3   BANK4   BANK5   BANK6   BANK7
  5753 ;;      Params:         2       0       0       0       0       0       0       0       0
  5754 ;;      Locals:         4       0       0       0       0       0       0       0       0
  5755 ;;      Temps:          0       0       0       0       0       0       0       0       0
  5756 ;;      Totals:         6       0       0       0       0       0       0       0       0
  5757 ;;Total ram usage:        6 bytes
  5758 ;; Hardware stack levels used: 1
  5759 ;; Hardware stack levels required when called: 3
  5760 ;; This function calls:
  5761 ;;		_MFRC522_ToCard3
  5762 ;;		_MFRC522_Wr3
  5763 ;; This function is called by:
  5764 ;;		_MFRC522_IsCard3
  5765 ;; This function uses a non-reentrant model
  5766 ;;
  5767                           
  5768                           	psect	text27
  5769  00338C                     __ptext27:
  5770                           	callstack 0
  5771  00338C                     _MFRC522_Request3:
  5772                           	callstack 26
  5773                           
  5774                           ;incstack = 0
  5775                           ;MFRC522_Request3@reqMode stored from wreg
  5776  00338C  6E22               	movwf	MFRC522_Request3@reqMode^0,c
  5777  00338E                     
  5778                           ;rc522.c: 799: char MFRC522_Request3(char reqMode, char *TagType);rc522.c: 800: {;rc522.
      +                          c: 801:     char _status;;rc522.c: 802:     unsigned backBits;;rc522.c: 803:     MFRC522
      +                          _Wr3(0x0D, 0x07);
  5779  00338E  0E07               	movlw	7
  5780  003390  6E01               	movwf	MFRC522_Wr3@value^0,c
  5781  003392  0E0D               	movlw	13
  5782  003394  EC75  F018         	call	_MFRC522_Wr3
  5783  003398                     
  5784                           ;rc522.c: 804:     TagType[0] = reqMode;
  5785  003398  C020  FFD9         	movff	MFRC522_Request3@TagType,fsr2l
  5786  00339C  C021  FFDA         	movff	MFRC522_Request3@TagType+1,fsr2h
  5787  0033A0  C022  FFDF         	movff	MFRC522_Request3@reqMode,indf2
  5788  0033A4                     
  5789                           ;rc522.c: 805:     _status = MFRC522_ToCard3(0x0C, TagType, 1, TagType, &backBits);
  5790  0033A4  C020  F00D         	movff	MFRC522_Request3@TagType,MFRC522_ToCard3@sendData
  5791  0033A8  C021  F00E         	movff	MFRC522_Request3@TagType+1,MFRC522_ToCard3@sendData+1
  5792  0033AC  0E01               	movlw	1
  5793  0033AE  6E0F               	movwf	MFRC522_ToCard3@sendLen^0,c
  5794  0033B0  C020  F010         	movff	MFRC522_Request3@TagType,MFRC522_ToCard3@backData
  5795  0033B4  C021  F011         	movff	MFRC522_Request3@TagType+1,MFRC522_ToCard3@backData+1
  5796  0033B8  0E24               	movlw	low MFRC522_Request3@backBits
  5797  0033BA  6E12               	movwf	MFRC522_ToCard3@backLen^0,c
  5798  0033BC  0E00               	movlw	high MFRC522_Request3@backBits
  5799  0033BE  6E13               	movwf	(MFRC522_ToCard3@backLen+1)^0,c
  5800  0033C0  0E0C               	movlw	12
  5801  0033C2  EC78  F00B         	call	_MFRC522_ToCard3
  5802  0033C6  6E23               	movwf	MFRC522_Request3@_status^0,c
  5803  0033C8                     
  5804                           ;rc522.c: 806:     if((_status != 0) || (backBits != 0x10))
  5805  0033C8  5023               	movf	MFRC522_Request3@_status^0,w,c
  5806  0033CA  A4D8               	btfss	status,2,c
  5807  0033CC  EFEA  F019         	goto	u4501
  5808  0033D0  EFEC  F019         	goto	u4500
  5809  0033D4                     u4501:
  5810  0033D4  EFF6  F019         	goto	l4805
  5811  0033D8                     u4500:
  5812  0033D8  0E10               	movlw	16
  5813  0033DA  1824               	xorwf	MFRC522_Request3@backBits^0,w,c
  5814  0033DC  1025               	iorwf	(MFRC522_Request3@backBits+1)^0,w,c
  5815  0033DE  B4D8               	btfsc	status,2,c
  5816  0033E0  EFF4  F019         	goto	u4511
  5817  0033E4  EFF6  F019         	goto	u4510
  5818  0033E8                     u4511:
  5819  0033E8  EFF8  F019         	goto	l507
  5820  0033EC                     u4510:
  5821  0033EC                     l4805:
  5822                           
  5823                           ;rc522.c: 807:     {;rc522.c: 808:         _status = 2;
  5824  0033EC  0E02               	movlw	2
  5825  0033EE  6E23               	movwf	MFRC522_Request3@_status^0,c
  5826  0033F0                     l507:
  5827                           
  5828                           ;rc522.c: 810:     return _status;
  5829  0033F0  5023               	movf	MFRC522_Request3@_status^0,w,c
  5830  0033F2  0012               	return		;funcret
  5831  0033F4                     __end_of_MFRC522_Request3:
  5832                           	callstack 0
  5833                           
  5834 ;; *************** function _MFRC522_IsCard2 *****************
  5835 ;; Defined at:
  5836 ;;		line 1175 in file "rc522.c"
  5837 ;; Parameters:    Size  Location     Type
  5838 ;;  TagType         2   37[COMRAM] PTR unsigned char 
  5839 ;;		 -> TagType2(1), 
  5840 ;; Auto vars:     Size  Location     Type
  5841 ;;		None
  5842 ;; Return value:  Size  Location     Type
  5843 ;;                  1    wreg      unsigned char 
  5844 ;; Registers used:
  5845 ;;		wreg, fsr2l, fsr2h, status,2, status,0, prodl, prodh, cstack
  5846 ;; Tracked objects:
  5847 ;;		On entry : 0/0
  5848 ;;		On exit  : 0/0
  5849 ;;		Unchanged: 0/0
  5850 ;; Data sizes:     COMRAM   BANK0   BANK1   BANK2   BANK3   BANK4   BANK5   BANK6   BANK7
  5851 ;;      Params:         2       0       0       0       0       0       0       0       0
  5852 ;;      Locals:         0       0       0       0       0       0       0       0       0
  5853 ;;      Temps:          0       0       0       0       0       0       0       0       0
  5854 ;;      Totals:         2       0       0       0       0       0       0       0       0
  5855 ;;Total ram usage:        2 bytes
  5856 ;; Hardware stack levels used: 1
  5857 ;; Hardware stack levels required when called: 4
  5858 ;; This function calls:
  5859 ;;		_MFRC522_Request2
  5860 ;; This function is called by:
  5861 ;;		_main
  5862 ;; This function uses a non-reentrant model
  5863 ;;
  5864                           
  5865                           	psect	text28
  5866  003B5E                     __ptext28:
  5867                           	callstack 0
  5868  003B5E                     _MFRC522_IsCard2:
  5869                           	callstack 26
  5870  003B5E                     
  5871                           ;rc522.c: 1175: char MFRC522_IsCard2(char *TagType);rc522.c: 1176: {;rc522.c: 1177:     
      +                          if(MFRC522_Request2(0x26, TagType) == 0)
  5872  003B5E  C026  F020         	movff	MFRC522_IsCard2@TagType,MFRC522_Request2@TagType
  5873  003B62  C027  F021         	movff	MFRC522_IsCard2@TagType+1,MFRC522_Request2@TagType+1
  5874  003B66  0E26               	movlw	38
  5875  003B68  ECFA  F019         	call	_MFRC522_Request2
  5876  003B6C  0012               	return		;funcret
  5877  003B6E                     __end_of_MFRC522_IsCard2:
  5878                           	callstack 0
  5879                           
  5880 ;; *************** function _MFRC522_Request2 *****************
  5881 ;; Defined at:
  5882 ;;		line 785 in file "rc522.c"
  5883 ;; Parameters:    Size  Location     Type
  5884 ;;  reqMode         1    wreg     unsigned char 
  5885 ;;  TagType         2   31[COMRAM] PTR unsigned char 
  5886 ;;		 -> TagType2(1), 
  5887 ;; Auto vars:     Size  Location     Type
  5888 ;;  reqMode         1   33[COMRAM] unsigned char 
  5889 ;;  backBits        2   35[COMRAM] unsigned int 
  5890 ;;  _status         1   34[COMRAM] unsigned char 
  5891 ;; Return value:  Size  Location     Type
  5892 ;;                  1    wreg      unsigned char 
  5893 ;; Registers used:
  5894 ;;		wreg, fsr2l, fsr2h, status,2, status,0, prodl, prodh, cstack
  5895 ;; Tracked objects:
  5896 ;;		On entry : 0/0
  5897 ;;		On exit  : 0/0
  5898 ;;		Unchanged: 0/0
  5899 ;; Data sizes:     COMRAM   BANK0   BANK1   BANK2   BANK3   BANK4   BANK5   BANK6   BANK7
  5900 ;;      Params:         2       0       0       0       0       0       0       0       0
  5901 ;;      Locals:         4       0       0       0       0       0       0       0       0
  5902 ;;      Temps:          0       0       0       0       0       0       0       0       0
  5903 ;;      Totals:         6       0       0       0       0       0       0       0       0
  5904 ;;Total ram usage:        6 bytes
  5905 ;; Hardware stack levels used: 1
  5906 ;; Hardware stack levels required when called: 3
  5907 ;; This function calls:
  5908 ;;		_MFRC522_ToCard2
  5909 ;;		_MFRC522_Wr2
  5910 ;; This function is called by:
  5911 ;;		_MFRC522_IsCard2
  5912 ;; This function uses a non-reentrant model
  5913 ;;
  5914                           
  5915                           	psect	text29
  5916  0033F4                     __ptext29:
  5917                           	callstack 0
  5918  0033F4                     _MFRC522_Request2:
  5919                           	callstack 26
  5920                           
  5921                           ;incstack = 0
  5922                           ;MFRC522_Request2@reqMode stored from wreg
  5923  0033F4  6E22               	movwf	MFRC522_Request2@reqMode^0,c
  5924  0033F6                     
  5925                           ;rc522.c: 785: char MFRC522_Request2(char reqMode, char *TagType);rc522.c: 786: {;rc522.
      +                          c: 787:     char _status;;rc522.c: 788:     unsigned backBits;;rc522.c: 789:     MFRC522
      +                          _Wr2(0x0D, 0x07);
  5926  0033F6  0E07               	movlw	7
  5927  0033F8  6E01               	movwf	MFRC522_Wr2@value^0,c
  5928  0033FA  0E0D               	movlw	13
  5929  0033FC  ECC1  F018         	call	_MFRC522_Wr2
  5930  003400                     
  5931                           ;rc522.c: 790:     TagType[0] = reqMode;
  5932  003400  C020  FFD9         	movff	MFRC522_Request2@TagType,fsr2l
  5933  003404  C021  FFDA         	movff	MFRC522_Request2@TagType+1,fsr2h
  5934  003408  C022  FFDF         	movff	MFRC522_Request2@reqMode,indf2
  5935  00340C                     
  5936                           ;rc522.c: 791:     _status = MFRC522_ToCard2(0x0C, TagType, 1, TagType, &backBits);
  5937  00340C  C020  F00D         	movff	MFRC522_Request2@TagType,MFRC522_ToCard2@sendData
  5938  003410  C021  F00E         	movff	MFRC522_Request2@TagType+1,MFRC522_ToCard2@sendData+1
  5939  003414  0E01               	movlw	1
  5940  003416  6E0F               	movwf	MFRC522_ToCard2@sendLen^0,c
  5941  003418  C020  F010         	movff	MFRC522_Request2@TagType,MFRC522_ToCard2@backData
  5942  00341C  C021  F011         	movff	MFRC522_Request2@TagType+1,MFRC522_ToCard2@backData+1
  5943  003420  0E24               	movlw	low MFRC522_Request2@backBits
  5944  003422  6E12               	movwf	MFRC522_ToCard2@backLen^0,c
  5945  003424  0E00               	movlw	high MFRC522_Request2@backBits
  5946  003426  6E13               	movwf	(MFRC522_ToCard2@backLen+1)^0,c
  5947  003428  0E0C               	movlw	12
  5948  00342A  ECBF  F00C         	call	_MFRC522_ToCard2
  5949  00342E  6E23               	movwf	MFRC522_Request2@_status^0,c
  5950  003430                     
  5951                           ;rc522.c: 792:     if((_status != 0) || (backBits != 0x10))
  5952  003430  5023               	movf	MFRC522_Request2@_status^0,w,c
  5953  003432  A4D8               	btfss	status,2,c
  5954  003434  EF1E  F01A         	goto	u4481
  5955  003438  EF20  F01A         	goto	u4480
  5956  00343C                     u4481:
  5957  00343C  EF2A  F01A         	goto	l4791
  5958  003440                     u4480:
  5959  003440  0E10               	movlw	16
  5960  003442  1824               	xorwf	MFRC522_Request2@backBits^0,w,c
  5961  003444  1025               	iorwf	(MFRC522_Request2@backBits+1)^0,w,c
  5962  003446  B4D8               	btfsc	status,2,c
  5963  003448  EF28  F01A         	goto	u4491
  5964  00344C  EF2A  F01A         	goto	u4490
  5965  003450                     u4491:
  5966  003450  EF2C  F01A         	goto	l501
  5967  003454                     u4490:
  5968  003454                     l4791:
  5969                           
  5970                           ;rc522.c: 793:     {;rc522.c: 794:         _status = 2;
  5971  003454  0E02               	movlw	2
  5972  003456  6E23               	movwf	MFRC522_Request2@_status^0,c
  5973  003458                     l501:
  5974                           
  5975                           ;rc522.c: 796:     return _status;
  5976  003458  5023               	movf	MFRC522_Request2@_status^0,w,c
  5977  00345A  0012               	return		;funcret
  5978  00345C                     __end_of_MFRC522_Request2:
  5979                           	callstack 0
  5980                           
  5981 ;; *************** function _MFRC522_IsCard *****************
  5982 ;; Defined at:
  5983 ;;		line 1167 in file "rc522.c"
  5984 ;; Parameters:    Size  Location     Type
  5985 ;;  TagType         2   37[COMRAM] PTR unsigned char 
  5986 ;;		 -> TagType1(1), 
  5987 ;; Auto vars:     Size  Location     Type
  5988 ;;		None
  5989 ;; Return value:  Size  Location     Type
  5990 ;;                  1    wreg      unsigned char 
  5991 ;; Registers used:
  5992 ;;		wreg, fsr2l, fsr2h, status,2, status,0, prodl, prodh, cstack
  5993 ;; Tracked objects:
  5994 ;;		On entry : 0/0
  5995 ;;		On exit  : 0/0
  5996 ;;		Unchanged: 0/0
  5997 ;; Data sizes:     COMRAM   BANK0   BANK1   BANK2   BANK3   BANK4   BANK5   BANK6   BANK7
  5998 ;;      Params:         2       0       0       0       0       0       0       0       0
  5999 ;;      Locals:         0       0       0       0       0       0       0       0       0
  6000 ;;      Temps:          0       0       0       0       0       0       0       0       0
  6001 ;;      Totals:         2       0       0       0       0       0       0       0       0
  6002 ;;Total ram usage:        2 bytes
  6003 ;; Hardware stack levels used: 1
  6004 ;; Hardware stack levels required when called: 4
  6005 ;; This function calls:
  6006 ;;		_MFRC522_Request
  6007 ;; This function is called by:
  6008 ;;		_main
  6009 ;; This function uses a non-reentrant model
  6010 ;;
  6011                           
  6012                           	psect	text30
  6013  003B6E                     __ptext30:
  6014                           	callstack 0
  6015  003B6E                     _MFRC522_IsCard:
  6016                           	callstack 26
  6017  003B6E                     
  6018                           ;rc522.c: 1167: char MFRC522_IsCard(char *TagType);rc522.c: 1168: {;rc522.c: 1169:     i
      +                          f(MFRC522_Request(0x26, TagType) == 0)
  6019  003B6E  C026  F020         	movff	MFRC522_IsCard@TagType,MFRC522_Request@TagType
  6020  003B72  C027  F021         	movff	MFRC522_IsCard@TagType+1,MFRC522_Request@TagType+1
  6021  003B76  0E26               	movlw	38
  6022  003B78  EC2E  F01A         	call	_MFRC522_Request
  6023  003B7C  0012               	return		;funcret
  6024  003B7E                     __end_of_MFRC522_IsCard:
  6025                           	callstack 0
  6026                           
  6027 ;; *************** function _MFRC522_Request *****************
  6028 ;; Defined at:
  6029 ;;		line 771 in file "rc522.c"
  6030 ;; Parameters:    Size  Location     Type
  6031 ;;  reqMode         1    wreg     unsigned char 
  6032 ;;  TagType         2   31[COMRAM] PTR unsigned char 
  6033 ;;		 -> TagType1(1), 
  6034 ;; Auto vars:     Size  Location     Type
  6035 ;;  reqMode         1   33[COMRAM] unsigned char 
  6036 ;;  backBits        2   35[COMRAM] unsigned int 
  6037 ;;  _status         1   34[COMRAM] unsigned char 
  6038 ;; Return value:  Size  Location     Type
  6039 ;;                  1    wreg      unsigned char 
  6040 ;; Registers used:
  6041 ;;		wreg, fsr2l, fsr2h, status,2, status,0, prodl, prodh, cstack
  6042 ;; Tracked objects:
  6043 ;;		On entry : 0/0
  6044 ;;		On exit  : 0/0
  6045 ;;		Unchanged: 0/0
  6046 ;; Data sizes:     COMRAM   BANK0   BANK1   BANK2   BANK3   BANK4   BANK5   BANK6   BANK7
  6047 ;;      Params:         2       0       0       0       0       0       0       0       0
  6048 ;;      Locals:         4       0       0       0       0       0       0       0       0
  6049 ;;      Temps:          0       0       0       0       0       0       0       0       0
  6050 ;;      Totals:         6       0       0       0       0       0       0       0       0
  6051 ;;Total ram usage:        6 bytes
  6052 ;; Hardware stack levels used: 1
  6053 ;; Hardware stack levels required when called: 3
  6054 ;; This function calls:
  6055 ;;		_MFRC522_ToCard
  6056 ;;		_MFRC522_Wr
  6057 ;; This function is called by:
  6058 ;;		_MFRC522_IsCard
  6059 ;; This function uses a non-reentrant model
  6060 ;;
  6061                           
  6062                           	psect	text31
  6063  00345C                     __ptext31:
  6064                           	callstack 0
  6065  00345C                     _MFRC522_Request:
  6066                           	callstack 26
  6067                           
  6068                           ;incstack = 0
  6069                           ;MFRC522_Request@reqMode stored from wreg
  6070  00345C  6E22               	movwf	MFRC522_Request@reqMode^0,c
  6071  00345E                     
  6072                           ;rc522.c: 771: char MFRC522_Request(char reqMode, char *TagType);rc522.c: 772: {;rc522.c
      +                          : 773:     char _status;;rc522.c: 774:     unsigned backBits;;rc522.c: 775:     MFRC522_
      +                          Wr(0x0D, 0x07);
  6073  00345E  0E07               	movlw	7
  6074  003460  6E01               	movwf	MFRC522_Wr@value^0,c
  6075  003462  0E0D               	movlw	13
  6076  003464  EC0D  F019         	call	_MFRC522_Wr
  6077  003468                     
  6078                           ;rc522.c: 776:     TagType[0] = reqMode;
  6079  003468  C020  FFD9         	movff	MFRC522_Request@TagType,fsr2l
  6080  00346C  C021  FFDA         	movff	MFRC522_Request@TagType+1,fsr2h
  6081  003470  C022  FFDF         	movff	MFRC522_Request@reqMode,indf2
  6082  003474                     
  6083                           ;rc522.c: 777:     _status = MFRC522_ToCard(0x0C, TagType, 1, TagType, &backBits);
  6084  003474  C020  F00D         	movff	MFRC522_Request@TagType,MFRC522_ToCard@sendData
  6085  003478  C021  F00E         	movff	MFRC522_Request@TagType+1,MFRC522_ToCard@sendData+1
  6086  00347C  0E01               	movlw	1
  6087  00347E  6E0F               	movwf	MFRC522_ToCard@sendLen^0,c
  6088  003480  C020  F010         	movff	MFRC522_Request@TagType,MFRC522_ToCard@backData
  6089  003484  C021  F011         	movff	MFRC522_Request@TagType+1,MFRC522_ToCard@backData+1
  6090  003488  0E24               	movlw	low MFRC522_Request@backBits
  6091  00348A  6E12               	movwf	MFRC522_ToCard@backLen^0,c
  6092  00348C  0E00               	movlw	high MFRC522_Request@backBits
  6093  00348E  6E13               	movwf	(MFRC522_ToCard@backLen+1)^0,c
  6094  003490  0E0C               	movlw	12
  6095  003492  EC06  F00E         	call	_MFRC522_ToCard
  6096  003496  6E23               	movwf	MFRC522_Request@_status^0,c
  6097  003498                     
  6098                           ;rc522.c: 778:     if((_status != 0) || (backBits != 0x10))
  6099  003498  5023               	movf	MFRC522_Request@_status^0,w,c
  6100  00349A  A4D8               	btfss	status,2,c
  6101  00349C  EF52  F01A         	goto	u4461
  6102  0034A0  EF54  F01A         	goto	u4460
  6103  0034A4                     u4461:
  6104  0034A4  EF5E  F01A         	goto	l4777
  6105  0034A8                     u4460:
  6106  0034A8  0E10               	movlw	16
  6107  0034AA  1824               	xorwf	MFRC522_Request@backBits^0,w,c
  6108  0034AC  1025               	iorwf	(MFRC522_Request@backBits+1)^0,w,c
  6109  0034AE  B4D8               	btfsc	status,2,c
  6110  0034B0  EF5C  F01A         	goto	u4471
  6111  0034B4  EF5E  F01A         	goto	u4470
  6112  0034B8                     u4471:
  6113  0034B8  EF60  F01A         	goto	l495
  6114  0034BC                     u4470:
  6115  0034BC                     l4777:
  6116                           
  6117                           ;rc522.c: 779:     {;rc522.c: 780:         _status = 2;
  6118  0034BC  0E02               	movlw	2
  6119  0034BE  6E23               	movwf	MFRC522_Request@_status^0,c
  6120  0034C0                     l495:
  6121                           
  6122                           ;rc522.c: 782:     return _status;
  6123  0034C0  5023               	movf	MFRC522_Request@_status^0,w,c
  6124  0034C2  0012               	return		;funcret
  6125  0034C4                     __end_of_MFRC522_Request:
  6126                           	callstack 0
  6127                           
  6128 ;; *************** function _MFRC522_Init *****************
  6129 ;; Defined at:
  6130 ;;		line 355 in file "rc522.c"
  6131 ;; Parameters:    Size  Location     Type
  6132 ;;		None
  6133 ;; Auto vars:     Size  Location     Type
  6134 ;;		None
  6135 ;; Return value:  Size  Location     Type
  6136 ;;                  1    wreg      void 
  6137 ;; Registers used:
  6138 ;;		wreg, status,2, status,0, cstack
  6139 ;; Tracked objects:
  6140 ;;		On entry : 0/0
  6141 ;;		On exit  : 0/0
  6142 ;;		Unchanged: 0/0
  6143 ;; Data sizes:     COMRAM   BANK0   BANK1   BANK2   BANK3   BANK4   BANK5   BANK6   BANK7
  6144 ;;      Params:         0       0       0       0       0       0       0       0       0
  6145 ;;      Locals:         0       0       0       0       0       0       0       0       0
  6146 ;;      Temps:          0       0       0       0       0       0       0       0       0
  6147 ;;      Totals:         0       0       0       0       0       0       0       0       0
  6148 ;;Total ram usage:        0 bytes
  6149 ;; Hardware stack levels used: 1
  6150 ;; Hardware stack levels required when called: 3
  6151 ;; This function calls:
  6152 ;;		_MFRC522_AntennaOff
  6153 ;;		_MFRC522_AntennaOff2
  6154 ;;		_MFRC522_AntennaOff3
  6155 ;;		_MFRC522_AntennaOff4
  6156 ;;		_MFRC522_AntennaOn
  6157 ;;		_MFRC522_AntennaOn2
  6158 ;;		_MFRC522_AntennaOn3
  6159 ;;		_MFRC522_AntennaOn4
  6160 ;;		_MFRC522_Reset
  6161 ;;		_MFRC522_Wr
  6162 ;;		_MFRC522_Wr2
  6163 ;;		_MFRC522_Wr3
  6164 ;;		_MFRC522_Wr4
  6165 ;; This function is called by:
  6166 ;;		_main
  6167 ;; This function uses a non-reentrant model
  6168 ;;
  6169                           
  6170                           	psect	text32
  6171  00221E                     __ptext32:
  6172                           	callstack 0
  6173  00221E                     _MFRC522_Init:
  6174                           	callstack 27
  6175  00221E                     
  6176                           ;rc522.c: 357:     TRISDbits.RD3 = 0;
  6177  00221E  9695               	bcf	149,3,c	;volatile
  6178                           
  6179                           ;rc522.c: 358:     TRISDbits.RD1 = 0;
  6180  002220  9295               	bcf	149,1,c	;volatile
  6181                           
  6182                           ;rc522.c: 359:     TRISAbits.RA3 = 0;
  6183  002222  9692               	bcf	146,3,c	;volatile
  6184                           
  6185                           ;rc522.c: 360:     TRISAbits.RA2 = 0;
  6186  002224  9492               	bcf	146,2,c	;volatile
  6187                           
  6188                           ;rc522.c: 361:     TRISAbits.RA1 = 0;
  6189  002226  9292               	bcf	146,1,c	;volatile
  6190                           
  6191                           ;rc522.c: 362:     TRISAbits.RA0 = 0;
  6192  002228  9092               	bcf	146,0,c	;volatile
  6193                           
  6194                           ;rc522.c: 363:     TRISDbits.RD2 = 1;
  6195  00222A  8495               	bsf	149,2,c	;volatile
  6196                           
  6197                           ;rc522.c: 364:     TRISDbits.RD4 = 0;
  6198  00222C  9895               	bcf	149,4,c	;volatile
  6199                           
  6200                           ;rc522.c: 365:     LATDbits.LD1 = 0;
  6201  00222E  928C               	bcf	140,1,c	;volatile
  6202                           
  6203                           ;rc522.c: 366:     LATDbits.LD3 = 0;
  6204  002230  968C               	bcf	140,3,c	;volatile
  6205                           
  6206                           ;rc522.c: 367:     LATAbits.LA3 = 1;
  6207  002232  8689               	bsf	137,3,c	;volatile
  6208                           
  6209                           ;rc522.c: 368:     LATAbits.LA2 = 1;
  6210  002234  8489               	bsf	137,2,c	;volatile
  6211                           
  6212                           ;rc522.c: 369:     LATAbits.LA1 = 1;
  6213  002236  8289               	bsf	137,1,c	;volatile
  6214                           
  6215                           ;rc522.c: 370:     LATAbits.LA0 = 1;
  6216  002238  8089               	bsf	137,0,c	;volatile
  6217                           
  6218                           ;rc522.c: 371:     LATDbits.LD4 = 1;
  6219  00223A  888C               	bsf	140,4,c	;volatile
  6220  00223C                     
  6221                           ;rc522.c: 372:     MFRC522_Reset();
  6222  00223C  EC9A  F016         	call	_MFRC522_Reset	;wreg free
  6223                           
  6224                           ;rc522.c: 374:     MFRC522_Wr(0x2A, 0x8D);
  6225  002240  0E8D               	movlw	141
  6226  002242  6E01               	movwf	MFRC522_Wr@value^0,c
  6227  002244  0E2A               	movlw	42
  6228  002246  EC0D  F019         	call	_MFRC522_Wr
  6229                           
  6230                           ;rc522.c: 375:     MFRC522_Wr(0x2B, 0x3E);
  6231  00224A  0E3E               	movlw	62
  6232  00224C  6E01               	movwf	MFRC522_Wr@value^0,c
  6233  00224E  0E2B               	movlw	43
  6234  002250  EC0D  F019         	call	_MFRC522_Wr
  6235                           
  6236                           ;rc522.c: 376:     MFRC522_Wr(0x2D, 30);
  6237  002254  0E1E               	movlw	30
  6238  002256  6E01               	movwf	MFRC522_Wr@value^0,c
  6239  002258  0E2D               	movlw	45
  6240  00225A  EC0D  F019         	call	_MFRC522_Wr
  6241                           
  6242                           ;rc522.c: 377:     MFRC522_Wr(0x2C, 0);
  6243  00225E  0E00               	movlw	0
  6244  002260  6E01               	movwf	MFRC522_Wr@value^0,c
  6245  002262  0E2C               	movlw	44
  6246  002264  EC0D  F019         	call	_MFRC522_Wr
  6247                           
  6248                           ;rc522.c: 378:     MFRC522_Wr(0x15, 0x40);
  6249  002268  0E40               	movlw	64
  6250  00226A  6E01               	movwf	MFRC522_Wr@value^0,c
  6251  00226C  0E15               	movlw	21
  6252  00226E  EC0D  F019         	call	_MFRC522_Wr
  6253                           
  6254                           ;rc522.c: 379:     MFRC522_Wr(0x11, 0x3D);
  6255  002272  0E3D               	movlw	61
  6256  002274  6E01               	movwf	MFRC522_Wr@value^0,c
  6257  002276  0E11               	movlw	17
  6258  002278  EC0D  F019         	call	_MFRC522_Wr
  6259                           
  6260                           ;rc522.c: 380:     MFRC522_AntennaOff();
  6261  00227C  ECD1  F01D         	call	_MFRC522_AntennaOff	;wreg free
  6262                           
  6263                           ;rc522.c: 381:     MFRC522_AntennaOn();
  6264  002280  EC9E  F01D         	call	_MFRC522_AntennaOn	;wreg free
  6265                           
  6266                           ;rc522.c: 383:     MFRC522_Wr2(0x2A, 0x8D);
  6267  002284  0E8D               	movlw	141
  6268  002286  6E01               	movwf	MFRC522_Wr2@value^0,c
  6269  002288  0E2A               	movlw	42
  6270  00228A  ECC1  F018         	call	_MFRC522_Wr2
  6271                           
  6272                           ;rc522.c: 384:     MFRC522_Wr2(0x2B, 0x3E);
  6273  00228E  0E3E               	movlw	62
  6274  002290  6E01               	movwf	MFRC522_Wr2@value^0,c
  6275  002292  0E2B               	movlw	43
  6276  002294  ECC1  F018         	call	_MFRC522_Wr2
  6277                           
  6278                           ;rc522.c: 385:     MFRC522_Wr2(0x2D, 30);
  6279  002298  0E1E               	movlw	30
  6280  00229A  6E01               	movwf	MFRC522_Wr2@value^0,c
  6281  00229C  0E2D               	movlw	45
  6282  00229E  ECC1  F018         	call	_MFRC522_Wr2
  6283                           
  6284                           ;rc522.c: 386:     MFRC522_Wr2(0x2C, 0);
  6285  0022A2  0E00               	movlw	0
  6286  0022A4  6E01               	movwf	MFRC522_Wr2@value^0,c
  6287  0022A6  0E2C               	movlw	44
  6288  0022A8  ECC1  F018         	call	_MFRC522_Wr2
  6289                           
  6290                           ;rc522.c: 387:     MFRC522_Wr2(0x15, 0x40);
  6291  0022AC  0E40               	movlw	64
  6292  0022AE  6E01               	movwf	MFRC522_Wr2@value^0,c
  6293  0022B0  0E15               	movlw	21
  6294  0022B2  ECC1  F018         	call	_MFRC522_Wr2
  6295                           
  6296                           ;rc522.c: 388:     MFRC522_Wr2(0x11, 0x3D);
  6297  0022B6  0E3D               	movlw	61
  6298  0022B8  6E01               	movwf	MFRC522_Wr2@value^0,c
  6299  0022BA  0E11               	movlw	17
  6300  0022BC  ECC1  F018         	call	_MFRC522_Wr2
  6301                           
  6302                           ;rc522.c: 389:     MFRC522_AntennaOff2();
  6303  0022C0  ECCB  F01D         	call	_MFRC522_AntennaOff2	;wreg free
  6304                           
  6305                           ;rc522.c: 390:     MFRC522_AntennaOn2();
  6306  0022C4  EC95  F01D         	call	_MFRC522_AntennaOn2	;wreg free
  6307                           
  6308                           ;rc522.c: 392:     MFRC522_Wr3(0x2A, 0x8D);
  6309  0022C8  0E8D               	movlw	141
  6310  0022CA  6E01               	movwf	MFRC522_Wr3@value^0,c
  6311  0022CC  0E2A               	movlw	42
  6312  0022CE  EC75  F018         	call	_MFRC522_Wr3
  6313                           
  6314                           ;rc522.c: 393:     MFRC522_Wr3(0x2B, 0x3E);
  6315  0022D2  0E3E               	movlw	62
  6316  0022D4  6E01               	movwf	MFRC522_Wr3@value^0,c
  6317  0022D6  0E2B               	movlw	43
  6318  0022D8  EC75  F018         	call	_MFRC522_Wr3
  6319                           
  6320                           ;rc522.c: 394:     MFRC522_Wr3(0x2D, 30);
  6321  0022DC  0E1E               	movlw	30
  6322  0022DE  6E01               	movwf	MFRC522_Wr3@value^0,c
  6323  0022E0  0E2D               	movlw	45
  6324  0022E2  EC75  F018         	call	_MFRC522_Wr3
  6325                           
  6326                           ;rc522.c: 395:     MFRC522_Wr3(0x2C, 0);
  6327  0022E6  0E00               	movlw	0
  6328  0022E8  6E01               	movwf	MFRC522_Wr3@value^0,c
  6329  0022EA  0E2C               	movlw	44
  6330  0022EC  EC75  F018         	call	_MFRC522_Wr3
  6331                           
  6332                           ;rc522.c: 396:     MFRC522_Wr3(0x15, 0x40);
  6333  0022F0  0E40               	movlw	64
  6334  0022F2  6E01               	movwf	MFRC522_Wr3@value^0,c
  6335  0022F4  0E15               	movlw	21
  6336  0022F6  EC75  F018         	call	_MFRC522_Wr3
  6337                           
  6338                           ;rc522.c: 397:     MFRC522_Wr3(0x11, 0x3D);
  6339  0022FA  0E3D               	movlw	61
  6340  0022FC  6E01               	movwf	MFRC522_Wr3@value^0,c
  6341  0022FE  0E11               	movlw	17
  6342  002300  EC75  F018         	call	_MFRC522_Wr3
  6343                           
  6344                           ;rc522.c: 398:     MFRC522_AntennaOff3();
  6345  002304  ECC5  F01D         	call	_MFRC522_AntennaOff3	;wreg free
  6346                           
  6347                           ;rc522.c: 399:     MFRC522_AntennaOn3();
  6348  002308  EC8C  F01D         	call	_MFRC522_AntennaOn3	;wreg free
  6349                           
  6350                           ;rc522.c: 401:     MFRC522_Wr4(0x2A, 0x8D);
  6351  00230C  0E8D               	movlw	141
  6352  00230E  6E01               	movwf	MFRC522_Wr4@value^0,c
  6353  002310  0E2A               	movlw	42
  6354  002312  EC29  F018         	call	_MFRC522_Wr4
  6355                           
  6356                           ;rc522.c: 402:     MFRC522_Wr4(0x2B, 0x3E);
  6357  002316  0E3E               	movlw	62
  6358  002318  6E01               	movwf	MFRC522_Wr4@value^0,c
  6359  00231A  0E2B               	movlw	43
  6360  00231C  EC29  F018         	call	_MFRC522_Wr4
  6361                           
  6362                           ;rc522.c: 403:     MFRC522_Wr4(0x2D, 30);
  6363  002320  0E1E               	movlw	30
  6364  002322  6E01               	movwf	MFRC522_Wr4@value^0,c
  6365  002324  0E2D               	movlw	45
  6366  002326  EC29  F018         	call	_MFRC522_Wr4
  6367                           
  6368                           ;rc522.c: 404:     MFRC522_Wr4(0x2C, 0);
  6369  00232A  0E00               	movlw	0
  6370  00232C  6E01               	movwf	MFRC522_Wr4@value^0,c
  6371  00232E  0E2C               	movlw	44
  6372  002330  EC29  F018         	call	_MFRC522_Wr4
  6373                           
  6374                           ;rc522.c: 405:     MFRC522_Wr4(0x15, 0x40);
  6375  002334  0E40               	movlw	64
  6376  002336  6E01               	movwf	MFRC522_Wr4@value^0,c
  6377  002338  0E15               	movlw	21
  6378  00233A  EC29  F018         	call	_MFRC522_Wr4
  6379                           
  6380                           ;rc522.c: 406:     MFRC522_Wr4(0x11, 0x3D);
  6381  00233E  0E3D               	movlw	61
  6382  002340  6E01               	movwf	MFRC522_Wr4@value^0,c
  6383  002342  0E11               	movlw	17
  6384  002344  EC29  F018         	call	_MFRC522_Wr4
  6385                           
  6386                           ;rc522.c: 407:     MFRC522_AntennaOff4();
  6387  002348  ECBF  F01D         	call	_MFRC522_AntennaOff4	;wreg free
  6388                           
  6389                           ;rc522.c: 408:     MFRC522_AntennaOn4();
  6390  00234C  EC83  F01D         	call	_MFRC522_AntennaOn4	;wreg free
  6391  002350  0012               	return		;funcret
  6392  002352                     __end_of_MFRC522_Init:
  6393                           	callstack 0
  6394                           
  6395 ;; *************** function _MFRC522_Reset *****************
  6396 ;; Defined at:
  6397 ;;		line 267 in file "rc522.c"
  6398 ;; Parameters:    Size  Location     Type
  6399 ;;		None
  6400 ;; Auto vars:     Size  Location     Type
  6401 ;;		None
  6402 ;; Return value:  Size  Location     Type
  6403 ;;                  1    wreg      void 
  6404 ;; Registers used:
  6405 ;;		wreg, status,2, status,0, cstack
  6406 ;; Tracked objects:
  6407 ;;		On entry : 0/0
  6408 ;;		On exit  : 0/0
  6409 ;;		Unchanged: 0/0
  6410 ;; Data sizes:     COMRAM   BANK0   BANK1   BANK2   BANK3   BANK4   BANK5   BANK6   BANK7
  6411 ;;      Params:         0       0       0       0       0       0       0       0       0
  6412 ;;      Locals:         0       0       0       0       0       0       0       0       0
  6413 ;;      Temps:          0       0       0       0       0       0       0       0       0
  6414 ;;      Totals:         0       0       0       0       0       0       0       0       0
  6415 ;;Total ram usage:        0 bytes
  6416 ;; Hardware stack levels used: 1
  6417 ;; Hardware stack levels required when called: 1
  6418 ;; This function calls:
  6419 ;;		_MFRC522_Wr
  6420 ;;		_MFRC522_Wr2
  6421 ;;		_MFRC522_Wr3
  6422 ;;		_MFRC522_Wr4
  6423 ;; This function is called by:
  6424 ;;		_MFRC522_Init
  6425 ;; This function uses a non-reentrant model
  6426 ;;
  6427                           
  6428                           	psect	text33
  6429  002D34                     __ptext33:
  6430                           	callstack 0
  6431  002D34                     _MFRC522_Reset:
  6432                           	callstack 28
  6433  002D34                     
  6434                           ;rc522.c: 270:     LATDbits.LD4 = 1;
  6435  002D34  888C               	bsf	140,4,c	;volatile
  6436                           
  6437                           ;rc522.c: 271:     _delay((unsigned long)((1)*(27000000/4000000.0)));
  6438  002D36  D000               	nop2		;2 cycle nop
  6439  002D38  D000               	nop2		;2 cycle nop
  6440  002D3A  D000               	nop2		;2 cycle nop
  6441                           
  6442                           ;rc522.c: 272:     LATDbits.LD4 = 0;
  6443  002D3C  988C               	bcf	140,4,c	;volatile
  6444                           
  6445                           ;rc522.c: 273:     _delay((unsigned long)((1)*(27000000/4000000.0)));
  6446  002D3E  D000               	nop2		;2 cycle nop
  6447  002D40  D000               	nop2		;2 cycle nop
  6448  002D42  D000               	nop2		;2 cycle nop
  6449                           
  6450                           ;rc522.c: 274:     LATDbits.LD4 = 1;
  6451  002D44  888C               	bsf	140,4,c	;volatile
  6452                           
  6453                           ;rc522.c: 275:     _delay((unsigned long)((1)*(27000000/4000000.0)));
  6454  002D46  D000               	nop2		;2 cycle nop
  6455  002D48  D000               	nop2		;2 cycle nop
  6456  002D4A  D000               	nop2		;2 cycle nop
  6457  002D4C                     
  6458                           ;rc522.c: 276:     MFRC522_Wr(0x01, 0x0F);
  6459  002D4C  0E0F               	movlw	15
  6460  002D4E  6E01               	movwf	MFRC522_Wr@value^0,c
  6461  002D50  0E01               	movlw	1
  6462  002D52  EC0D  F019         	call	_MFRC522_Wr
  6463  002D56                     
  6464                           ;rc522.c: 277:     _delay((unsigned long)((1)*(27000000/4000000.0)));
  6465  002D56  D000               	nop2		;2 cycle nop
  6466  002D58  D000               	nop2		;2 cycle nop
  6467  002D5A  D000               	nop2		;2 cycle nop
  6468  002D5C                     
  6469                           ;rc522.c: 279:     LATDbits.LD4 = 1;
  6470  002D5C  888C               	bsf	140,4,c	;volatile
  6471  002D5E                     
  6472                           ;rc522.c: 280:     _delay((unsigned long)((1)*(27000000/4000000.0)));
  6473  002D5E  D000               	nop2		;2 cycle nop
  6474  002D60  D000               	nop2		;2 cycle nop
  6475  002D62  D000               	nop2		;2 cycle nop
  6476  002D64                     
  6477                           ;rc522.c: 281:     LATDbits.LD4 = 0;
  6478  002D64  988C               	bcf	140,4,c	;volatile
  6479  002D66                     
  6480                           ;rc522.c: 282:     _delay((unsigned long)((1)*(27000000/4000000.0)));
  6481  002D66  D000               	nop2		;2 cycle nop
  6482  002D68  D000               	nop2		;2 cycle nop
  6483  002D6A  D000               	nop2		;2 cycle nop
  6484  002D6C                     
  6485                           ;rc522.c: 283:     LATDbits.LD4 = 1;
  6486  002D6C  888C               	bsf	140,4,c	;volatile
  6487  002D6E                     
  6488                           ;rc522.c: 284:     _delay((unsigned long)((1)*(27000000/4000000.0)));
  6489  002D6E  D000               	nop2		;2 cycle nop
  6490  002D70  D000               	nop2		;2 cycle nop
  6491  002D72  D000               	nop2		;2 cycle nop
  6492                           
  6493                           ;rc522.c: 285:     MFRC522_Wr2(0x01, 0x0F);
  6494  002D74  0E0F               	movlw	15
  6495  002D76  6E01               	movwf	MFRC522_Wr2@value^0,c
  6496  002D78  0E01               	movlw	1
  6497  002D7A  ECC1  F018         	call	_MFRC522_Wr2
  6498  002D7E                     
  6499                           ;rc522.c: 286:     _delay((unsigned long)((1)*(27000000/4000000.0)));
  6500  002D7E  D000               	nop2		;2 cycle nop
  6501  002D80  D000               	nop2		;2 cycle nop
  6502  002D82  D000               	nop2		;2 cycle nop
  6503  002D84                     
  6504                           ;rc522.c: 288:     LATDbits.LD4 = 1;
  6505  002D84  888C               	bsf	140,4,c	;volatile
  6506  002D86                     
  6507                           ;rc522.c: 289:     _delay((unsigned long)((1)*(27000000/4000000.0)));
  6508  002D86  D000               	nop2		;2 cycle nop
  6509  002D88  D000               	nop2		;2 cycle nop
  6510  002D8A  D000               	nop2		;2 cycle nop
  6511  002D8C                     
  6512                           ;rc522.c: 290:     LATDbits.LD4 = 0;
  6513  002D8C  988C               	bcf	140,4,c	;volatile
  6514  002D8E                     
  6515                           ;rc522.c: 291:     _delay((unsigned long)((1)*(27000000/4000000.0)));
  6516  002D8E  D000               	nop2		;2 cycle nop
  6517  002D90  D000               	nop2		;2 cycle nop
  6518  002D92  D000               	nop2		;2 cycle nop
  6519  002D94                     
  6520                           ;rc522.c: 292:     LATDbits.LD4 = 1;
  6521  002D94  888C               	bsf	140,4,c	;volatile
  6522  002D96                     
  6523                           ;rc522.c: 293:     _delay((unsigned long)((1)*(27000000/4000000.0)));
  6524  002D96  D000               	nop2		;2 cycle nop
  6525  002D98  D000               	nop2		;2 cycle nop
  6526  002D9A  D000               	nop2		;2 cycle nop
  6527                           
  6528                           ;rc522.c: 294:     MFRC522_Wr3(0x01, 0x0F);
  6529  002D9C  0E0F               	movlw	15
  6530  002D9E  6E01               	movwf	MFRC522_Wr3@value^0,c
  6531  002DA0  0E01               	movlw	1
  6532  002DA2  EC75  F018         	call	_MFRC522_Wr3
  6533  002DA6                     
  6534                           ;rc522.c: 295:     _delay((unsigned long)((1)*(27000000/4000000.0)));
  6535  002DA6  D000               	nop2		;2 cycle nop
  6536  002DA8  D000               	nop2		;2 cycle nop
  6537  002DAA  D000               	nop2		;2 cycle nop
  6538  002DAC                     
  6539                           ;rc522.c: 297:     LATDbits.LD4 = 1;
  6540  002DAC  888C               	bsf	140,4,c	;volatile
  6541  002DAE                     
  6542                           ;rc522.c: 298:     _delay((unsigned long)((1)*(27000000/4000000.0)));
  6543  002DAE  D000               	nop2		;2 cycle nop
  6544  002DB0  D000               	nop2		;2 cycle nop
  6545  002DB2  D000               	nop2		;2 cycle nop
  6546  002DB4                     
  6547                           ;rc522.c: 299:     LATDbits.LD4 = 0;
  6548  002DB4  988C               	bcf	140,4,c	;volatile
  6549  002DB6                     
  6550                           ;rc522.c: 300:     _delay((unsigned long)((1)*(27000000/4000000.0)));
  6551  002DB6  D000               	nop2		;2 cycle nop
  6552  002DB8  D000               	nop2		;2 cycle nop
  6553  002DBA  D000               	nop2		;2 cycle nop
  6554  002DBC                     
  6555                           ;rc522.c: 301:     LATDbits.LD4 = 1;
  6556  002DBC  888C               	bsf	140,4,c	;volatile
  6557  002DBE                     
  6558                           ;rc522.c: 302:     _delay((unsigned long)((1)*(27000000/4000000.0)));
  6559  002DBE  D000               	nop2		;2 cycle nop
  6560  002DC0  D000               	nop2		;2 cycle nop
  6561  002DC2  D000               	nop2		;2 cycle nop
  6562                           
  6563                           ;rc522.c: 303:     MFRC522_Wr4(0x01, 0x0F);
  6564  002DC4  0E0F               	movlw	15
  6565  002DC6  6E01               	movwf	MFRC522_Wr4@value^0,c
  6566  002DC8  0E01               	movlw	1
  6567  002DCA  EC29  F018         	call	_MFRC522_Wr4
  6568  002DCE                     
  6569                           ;rc522.c: 304:     _delay((unsigned long)((1)*(27000000/4000000.0)));
  6570  002DCE  D000               	nop2		;2 cycle nop
  6571  002DD0  D000               	nop2		;2 cycle nop
  6572  002DD2  D000               	nop2		;2 cycle nop
  6573  002DD4  0012               	return		;funcret
  6574  002DD6                     __end_of_MFRC522_Reset:
  6575                           	callstack 0
  6576                           
  6577 ;; *************** function _MFRC522_AntennaOn4 *****************
  6578 ;; Defined at:
  6579 ;;		line 328 in file "rc522.c"
  6580 ;; Parameters:    Size  Location     Type
  6581 ;;		None
  6582 ;; Auto vars:     Size  Location     Type
  6583 ;;  stt             1    0        unsigned char 
  6584 ;; Return value:  Size  Location     Type
  6585 ;;                  1    wreg      void 
  6586 ;; Registers used:
  6587 ;;		wreg, status,2, status,0, cstack
  6588 ;; Tracked objects:
  6589 ;;		On entry : 0/0
  6590 ;;		On exit  : 0/0
  6591 ;;		Unchanged: 0/0
  6592 ;; Data sizes:     COMRAM   BANK0   BANK1   BANK2   BANK3   BANK4   BANK5   BANK6   BANK7
  6593 ;;      Params:         0       0       0       0       0       0       0       0       0
  6594 ;;      Locals:         0       0       0       0       0       0       0       0       0
  6595 ;;      Temps:          0       0       0       0       0       0       0       0       0
  6596 ;;      Totals:         0       0       0       0       0       0       0       0       0
  6597 ;;Total ram usage:        0 bytes
  6598 ;; Hardware stack levels used: 1
  6599 ;; Hardware stack levels required when called: 2
  6600 ;; This function calls:
  6601 ;;		_MFRC522_Rd4
  6602 ;;		_MFRC522_Set_Bit4
  6603 ;; This function is called by:
  6604 ;;		_MFRC522_Init
  6605 ;; This function uses a non-reentrant model
  6606 ;;
  6607                           
  6608                           	psect	text34
  6609  003B06                     __ptext34:
  6610                           	callstack 0
  6611  003B06                     _MFRC522_AntennaOn4:
  6612                           	callstack 27
  6613  003B06  0E14               	movlw	20
  6614  003B08  EC6B  F013         	call	_MFRC522_Rd4
  6615                           
  6616                           ;rc522.c: 332:     MFRC522_Set_Bit4(0x14, 0x03);
  6617  003B0C  0E03               	movlw	3
  6618  003B0E  6E0A               	movwf	MFRC522_Set_Bit4@mask^0,c
  6619  003B10  0E14               	movlw	20
  6620  003B12  EC49  F01D         	call	_MFRC522_Set_Bit4
  6621  003B16  0012               	return		;funcret
  6622  003B18                     __end_of_MFRC522_AntennaOn4:
  6623                           	callstack 0
  6624                           
  6625 ;; *************** function _MFRC522_Set_Bit4 *****************
  6626 ;; Defined at:
  6627 ;;		line 260 in file "rc522.c"
  6628 ;; Parameters:    Size  Location     Type
  6629 ;;  addr            1    wreg     unsigned char 
  6630 ;;  mask            1    9[COMRAM] unsigned char 
  6631 ;; Auto vars:     Size  Location     Type
  6632 ;;  addr            1   11[COMRAM] unsigned char 
  6633 ;;  tmp             1   10[COMRAM] unsigned char 
  6634 ;; Return value:  Size  Location     Type
  6635 ;;                  1    wreg      void 
  6636 ;; Registers used:
  6637 ;;		wreg, status,2, status,0, cstack
  6638 ;; Tracked objects:
  6639 ;;		On entry : 0/0
  6640 ;;		On exit  : 0/0
  6641 ;;		Unchanged: 0/0
  6642 ;; Data sizes:     COMRAM   BANK0   BANK1   BANK2   BANK3   BANK4   BANK5   BANK6   BANK7
  6643 ;;      Params:         1       0       0       0       0       0       0       0       0
  6644 ;;      Locals:         2       0       0       0       0       0       0       0       0
  6645 ;;      Temps:          0       0       0       0       0       0       0       0       0
  6646 ;;      Totals:         3       0       0       0       0       0       0       0       0
  6647 ;;Total ram usage:        3 bytes
  6648 ;; Hardware stack levels used: 1
  6649 ;; Hardware stack levels required when called: 1
  6650 ;; This function calls:
  6651 ;;		_MFRC522_Rd4
  6652 ;;		_MFRC522_Wr4
  6653 ;; This function is called by:
  6654 ;;		_MFRC522_AntennaOn4
  6655 ;;		_MFRC522_ToCard4
  6656 ;;		_MFRC522_CRC4
  6657 ;; This function uses a non-reentrant model
  6658 ;;
  6659                           
  6660                           	psect	text35
  6661  003A92                     __ptext35:
  6662                           	callstack 0
  6663  003A92                     _MFRC522_Set_Bit4:
  6664                           	callstack 27
  6665                           
  6666                           ;incstack = 0
  6667                           ;MFRC522_Set_Bit4@addr stored from wreg
  6668  003A92  6E0C               	movwf	MFRC522_Set_Bit4@addr^0,c
  6669  003A94                     
  6670                           ;rc522.c: 263:     tmp = MFRC522_Rd4(addr);
  6671  003A94  500C               	movf	MFRC522_Set_Bit4@addr^0,w,c
  6672  003A96  EC6B  F013         	call	_MFRC522_Rd4
  6673  003A9A  6E0B               	movwf	MFRC522_Set_Bit4@tmp^0,c
  6674  003A9C                     
  6675                           ;rc522.c: 264:     MFRC522_Wr4(addr, tmp | mask);
  6676  003A9C  500B               	movf	MFRC522_Set_Bit4@tmp^0,w,c
  6677  003A9E  100A               	iorwf	MFRC522_Set_Bit4@mask^0,w,c
  6678  003AA0  6E01               	movwf	MFRC522_Wr4@value^0,c
  6679  003AA2  500C               	movf	MFRC522_Set_Bit4@addr^0,w,c
  6680  003AA4  EC29  F018         	call	_MFRC522_Wr4
  6681  003AA8  0012               	return		;funcret
  6682  003AAA                     __end_of_MFRC522_Set_Bit4:
  6683                           	callstack 0
  6684                           
  6685 ;; *************** function _MFRC522_AntennaOn3 *****************
  6686 ;; Defined at:
  6687 ;;		line 321 in file "rc522.c"
  6688 ;; Parameters:    Size  Location     Type
  6689 ;;		None
  6690 ;; Auto vars:     Size  Location     Type
  6691 ;;  stt             1    0        unsigned char 
  6692 ;; Return value:  Size  Location     Type
  6693 ;;                  1    wreg      void 
  6694 ;; Registers used:
  6695 ;;		wreg, status,2, status,0, cstack
  6696 ;; Tracked objects:
  6697 ;;		On entry : 0/0
  6698 ;;		On exit  : 0/0
  6699 ;;		Unchanged: 0/0
  6700 ;; Data sizes:     COMRAM   BANK0   BANK1   BANK2   BANK3   BANK4   BANK5   BANK6   BANK7
  6701 ;;      Params:         0       0       0       0       0       0       0       0       0
  6702 ;;      Locals:         0       0       0       0       0       0       0       0       0
  6703 ;;      Temps:          0       0       0       0       0       0       0       0       0
  6704 ;;      Totals:         0       0       0       0       0       0       0       0       0
  6705 ;;Total ram usage:        0 bytes
  6706 ;; Hardware stack levels used: 1
  6707 ;; Hardware stack levels required when called: 2
  6708 ;; This function calls:
  6709 ;;		_MFRC522_Rd3
  6710 ;;		_MFRC522_Set_Bit3
  6711 ;; This function is called by:
  6712 ;;		_MFRC522_Init
  6713 ;; This function uses a non-reentrant model
  6714 ;;
  6715                           
  6716                           	psect	text36
  6717  003B18                     __ptext36:
  6718                           	callstack 0
  6719  003B18                     _MFRC522_AntennaOn3:
  6720                           	callstack 27
  6721  003B18  0E14               	movlw	20
  6722  003B1A  ECC8  F013         	call	_MFRC522_Rd3
  6723                           
  6724                           ;rc522.c: 325:     MFRC522_Set_Bit3(0x14, 0x03);
  6725  003B1E  0E03               	movlw	3
  6726  003B20  6E0A               	movwf	MFRC522_Set_Bit3@mask^0,c
  6727  003B22  0E14               	movlw	20
  6728  003B24  EC55  F01D         	call	_MFRC522_Set_Bit3
  6729  003B28  0012               	return		;funcret
  6730  003B2A                     __end_of_MFRC522_AntennaOn3:
  6731                           	callstack 0
  6732                           
  6733 ;; *************** function _MFRC522_AntennaOn2 *****************
  6734 ;; Defined at:
  6735 ;;		line 314 in file "rc522.c"
  6736 ;; Parameters:    Size  Location     Type
  6737 ;;		None
  6738 ;; Auto vars:     Size  Location     Type
  6739 ;;  stt             1    0        unsigned char 
  6740 ;; Return value:  Size  Location     Type
  6741 ;;                  1    wreg      void 
  6742 ;; Registers used:
  6743 ;;		wreg, status,2, status,0, cstack
  6744 ;; Tracked objects:
  6745 ;;		On entry : 0/0
  6746 ;;		On exit  : 0/0
  6747 ;;		Unchanged: 0/0
  6748 ;; Data sizes:     COMRAM   BANK0   BANK1   BANK2   BANK3   BANK4   BANK5   BANK6   BANK7
  6749 ;;      Params:         0       0       0       0       0       0       0       0       0
  6750 ;;      Locals:         0       0       0       0       0       0       0       0       0
  6751 ;;      Temps:          0       0       0       0       0       0       0       0       0
  6752 ;;      Totals:         0       0       0       0       0       0       0       0       0
  6753 ;;Total ram usage:        0 bytes
  6754 ;; Hardware stack levels used: 1
  6755 ;; Hardware stack levels required when called: 2
  6756 ;; This function calls:
  6757 ;;		_MFRC522_Rd2
  6758 ;;		_MFRC522_Set_Bit2
  6759 ;; This function is called by:
  6760 ;;		_MFRC522_Init
  6761 ;; This function uses a non-reentrant model
  6762 ;;
  6763                           
  6764                           	psect	text37
  6765  003B2A                     __ptext37:
  6766                           	callstack 0
  6767  003B2A                     _MFRC522_AntennaOn2:
  6768                           	callstack 27
  6769  003B2A  0E14               	movlw	20
  6770  003B2C  EC25  F014         	call	_MFRC522_Rd2
  6771                           
  6772                           ;rc522.c: 318:     MFRC522_Set_Bit2(0x14, 0x03);
  6773  003B30  0E03               	movlw	3
  6774  003B32  6E0A               	movwf	MFRC522_Set_Bit2@mask^0,c
  6775  003B34  0E14               	movlw	20
  6776  003B36  EC61  F01D         	call	_MFRC522_Set_Bit2
  6777  003B3A  0012               	return		;funcret
  6778  003B3C                     __end_of_MFRC522_AntennaOn2:
  6779                           	callstack 0
  6780                           
  6781 ;; *************** function _MFRC522_AntennaOn *****************
  6782 ;; Defined at:
  6783 ;;		line 307 in file "rc522.c"
  6784 ;; Parameters:    Size  Location     Type
  6785 ;;		None
  6786 ;; Auto vars:     Size  Location     Type
  6787 ;;  stt             1    0        unsigned char 
  6788 ;; Return value:  Size  Location     Type
  6789 ;;                  1    wreg      void 
  6790 ;; Registers used:
  6791 ;;		wreg, status,2, status,0, cstack
  6792 ;; Tracked objects:
  6793 ;;		On entry : 0/0
  6794 ;;		On exit  : 0/0
  6795 ;;		Unchanged: 0/0
  6796 ;; Data sizes:     COMRAM   BANK0   BANK1   BANK2   BANK3   BANK4   BANK5   BANK6   BANK7
  6797 ;;      Params:         0       0       0       0       0       0       0       0       0
  6798 ;;      Locals:         0       0       0       0       0       0       0       0       0
  6799 ;;      Temps:          0       0       0       0       0       0       0       0       0
  6800 ;;      Totals:         0       0       0       0       0       0       0       0       0
  6801 ;;Total ram usage:        0 bytes
  6802 ;; Hardware stack levels used: 1
  6803 ;; Hardware stack levels required when called: 2
  6804 ;; This function calls:
  6805 ;;		_MFRC522_Rd
  6806 ;;		_MFRC522_Set_Bit
  6807 ;; This function is called by:
  6808 ;;		_MFRC522_Init
  6809 ;; This function uses a non-reentrant model
  6810 ;;
  6811                           
  6812                           	psect	text38
  6813  003B3C                     __ptext38:
  6814                           	callstack 0
  6815  003B3C                     _MFRC522_AntennaOn:
  6816                           	callstack 27
  6817  003B3C  0E14               	movlw	20
  6818  003B3E  EC82  F014         	call	_MFRC522_Rd
  6819                           
  6820                           ;rc522.c: 311:     MFRC522_Set_Bit(0x14, 0x03);
  6821  003B42  0E03               	movlw	3
  6822  003B44  6E0A               	movwf	MFRC522_Set_Bit@mask^0,c
  6823  003B46  0E14               	movlw	20
  6824  003B48  EC6D  F01D         	call	_MFRC522_Set_Bit
  6825  003B4C  0012               	return		;funcret
  6826  003B4E                     __end_of_MFRC522_AntennaOn:
  6827                           	callstack 0
  6828                           
  6829 ;; *************** function _MFRC522_AntennaOff4 *****************
  6830 ;; Defined at:
  6831 ;;		line 350 in file "rc522.c"
  6832 ;; Parameters:    Size  Location     Type
  6833 ;;		None
  6834 ;; Auto vars:     Size  Location     Type
  6835 ;;		None
  6836 ;; Return value:  Size  Location     Type
  6837 ;;                  1    wreg      void 
  6838 ;; Registers used:
  6839 ;;		wreg, status,2, status,0, cstack
  6840 ;; Tracked objects:
  6841 ;;		On entry : 0/0
  6842 ;;		On exit  : 0/0
  6843 ;;		Unchanged: 0/0
  6844 ;; Data sizes:     COMRAM   BANK0   BANK1   BANK2   BANK3   BANK4   BANK5   BANK6   BANK7
  6845 ;;      Params:         0       0       0       0       0       0       0       0       0
  6846 ;;      Locals:         0       0       0       0       0       0       0       0       0
  6847 ;;      Temps:          0       0       0       0       0       0       0       0       0
  6848 ;;      Totals:         0       0       0       0       0       0       0       0       0
  6849 ;;Total ram usage:        0 bytes
  6850 ;; Hardware stack levels used: 1
  6851 ;; Hardware stack levels required when called: 2
  6852 ;; This function calls:
  6853 ;;		_MFRC522_Clear_Bit4
  6854 ;; This function is called by:
  6855 ;;		_MFRC522_Init
  6856 ;; This function uses a non-reentrant model
  6857 ;;
  6858                           
  6859                           	psect	text39
  6860  003B7E                     __ptext39:
  6861                           	callstack 0
  6862  003B7E                     _MFRC522_AntennaOff4:
  6863                           	callstack 27
  6864  003B7E                     
  6865                           ;rc522.c: 352:     MFRC522_Clear_Bit4(0x14, 0x03);
  6866  003B7E  0E03               	movlw	3
  6867  003B80  6E0A               	movwf	MFRC522_Clear_Bit4@mask^0,c
  6868  003B82  0E14               	movlw	20
  6869  003B84  EC15  F01D         	call	_MFRC522_Clear_Bit4
  6870  003B88  0012               	return		;funcret
  6871  003B8A                     __end_of_MFRC522_AntennaOff4:
  6872                           	callstack 0
  6873                           
  6874 ;; *************** function _MFRC522_Clear_Bit4 *****************
  6875 ;; Defined at:
  6876 ;;		line 231 in file "rc522.c"
  6877 ;; Parameters:    Size  Location     Type
  6878 ;;  addr            1    wreg     unsigned char 
  6879 ;;  mask            1    9[COMRAM] unsigned char 
  6880 ;; Auto vars:     Size  Location     Type
  6881 ;;  addr            1   11[COMRAM] unsigned char 
  6882 ;;  tmp             1   10[COMRAM] unsigned char 
  6883 ;; Return value:  Size  Location     Type
  6884 ;;                  1    wreg      void 
  6885 ;; Registers used:
  6886 ;;		wreg, status,2, status,0, cstack
  6887 ;; Tracked objects:
  6888 ;;		On entry : 0/0
  6889 ;;		On exit  : 0/0
  6890 ;;		Unchanged: 0/0
  6891 ;; Data sizes:     COMRAM   BANK0   BANK1   BANK2   BANK3   BANK4   BANK5   BANK6   BANK7
  6892 ;;      Params:         1       0       0       0       0       0       0       0       0
  6893 ;;      Locals:         2       0       0       0       0       0       0       0       0
  6894 ;;      Temps:          0       0       0       0       0       0       0       0       0
  6895 ;;      Totals:         3       0       0       0       0       0       0       0       0
  6896 ;;Total ram usage:        3 bytes
  6897 ;; Hardware stack levels used: 1
  6898 ;; Hardware stack levels required when called: 1
  6899 ;; This function calls:
  6900 ;;		_MFRC522_Rd4
  6901 ;;		_MFRC522_Wr4
  6902 ;; This function is called by:
  6903 ;;		_MFRC522_AntennaOff4
  6904 ;;		_MFRC522_ToCard4
  6905 ;;		_MFRC522_CRC4
  6906 ;;		_MFRC522_Halt4
  6907 ;;		_MFRC522_AntiColl4
  6908 ;; This function uses a non-reentrant model
  6909 ;;
  6910                           
  6911                           	psect	text40
  6912  003A2A                     __ptext40:
  6913                           	callstack 0
  6914  003A2A                     _MFRC522_Clear_Bit4:
  6915                           	callstack 27
  6916                           
  6917                           ;incstack = 0
  6918                           ;MFRC522_Clear_Bit4@addr stored from wreg
  6919  003A2A  6E0C               	movwf	MFRC522_Clear_Bit4@addr^0,c
  6920  003A2C                     
  6921                           ;rc522.c: 234:     tmp = MFRC522_Rd4(addr) ;
  6922  003A2C  500C               	movf	MFRC522_Clear_Bit4@addr^0,w,c
  6923  003A2E  EC6B  F013         	call	_MFRC522_Rd4
  6924  003A32  6E0B               	movwf	MFRC522_Clear_Bit4@tmp^0,c
  6925  003A34                     
  6926                           ;rc522.c: 235:     MFRC522_Wr4(addr, tmp&~mask);
  6927  003A34  500A               	movf	MFRC522_Clear_Bit4@mask^0,w,c
  6928  003A36  0AFF               	xorlw	255
  6929  003A38  140B               	andwf	MFRC522_Clear_Bit4@tmp^0,w,c
  6930  003A3A  6E01               	movwf	MFRC522_Wr4@value^0,c
  6931  003A3C  500C               	movf	MFRC522_Clear_Bit4@addr^0,w,c
  6932  003A3E  EC29  F018         	call	_MFRC522_Wr4
  6933  003A42  0012               	return		;funcret
  6934  003A44                     __end_of_MFRC522_Clear_Bit4:
  6935                           	callstack 0
  6936                           
  6937 ;; *************** function _MFRC522_Wr4 *****************
  6938 ;; Defined at:
  6939 ;;		line 185 in file "rc522.c"
  6940 ;; Parameters:    Size  Location     Type
  6941 ;;  address         1    wreg     unsigned char 
  6942 ;;  value           1    0[COMRAM] unsigned char 
  6943 ;; Auto vars:     Size  Location     Type
  6944 ;;  address         1    2[COMRAM] unsigned char 
  6945 ;;  i               1    4[COMRAM] unsigned char 
  6946 ;;  ucAddr          1    3[COMRAM] unsigned char 
  6947 ;; Return value:  Size  Location     Type
  6948 ;;                  1    wreg      void 
  6949 ;; Registers used:
  6950 ;;		wreg, status,2, status,0
  6951 ;; Tracked objects:
  6952 ;;		On entry : 0/0
  6953 ;;		On exit  : 0/0
  6954 ;;		Unchanged: 0/0
  6955 ;; Data sizes:     COMRAM   BANK0   BANK1   BANK2   BANK3   BANK4   BANK5   BANK6   BANK7
  6956 ;;      Params:         1       0       0       0       0       0       0       0       0
  6957 ;;      Locals:         3       0       0       0       0       0       0       0       0
  6958 ;;      Temps:          1       0       0       0       0       0       0       0       0
  6959 ;;      Totals:         5       0       0       0       0       0       0       0       0
  6960 ;;Total ram usage:        5 bytes
  6961 ;; Hardware stack levels used: 1
  6962 ;; This function calls:
  6963 ;;		Nothing
  6964 ;; This function is called by:
  6965 ;;		_MFRC522_Clear_Bit4
  6966 ;;		_MFRC522_Set_Bit4
  6967 ;;		_MFRC522_Reset
  6968 ;;		_MFRC522_Init
  6969 ;;		_MFRC522_ToCard4
  6970 ;;		_MFRC522_Request4
  6971 ;;		_MFRC522_CRC4
  6972 ;;		_MFRC522_AntiColl4
  6973 ;; This function uses a non-reentrant model
  6974 ;;
  6975                           
  6976                           	psect	text41
  6977  003052                     __ptext41:
  6978                           	callstack 0
  6979  003052                     _MFRC522_Wr4:
  6980                           	callstack 29
  6981                           
  6982                           ;incstack = 0
  6983                           ;MFRC522_Wr4@address stored from wreg
  6984  003052  6E03               	movwf	MFRC522_Wr4@address^0,c
  6985  003054                     
  6986                           ;rc522.c: 185: void MFRC522_Wr4(unsigned char address, unsigned char value);rc522.c: 186
      +                          : {;rc522.c: 187:     unsigned char i, ucAddr;;rc522.c: 188:     LATDbits.LD1 = 0;
  6987  003054  928C               	bcf	140,1,c	;volatile
  6988                           
  6989                           ;rc522.c: 189:     LATAbits.LA0 = 0;
  6990  003056  9089               	bcf	137,0,c	;volatile
  6991  003058                     
  6992                           ;rc522.c: 190:     ucAddr = ((address << 1) & 0x7E);
  6993  003058  5003               	movf	MFRC522_Wr4@address^0,w,c
  6994  00305A  2403               	addwf	MFRC522_Wr4@address^0,w,c
  6995  00305C  0B7E               	andlw	126
  6996  00305E  6E04               	movwf	MFRC522_Wr4@ucAddr^0,c
  6997  003060                     
  6998                           ;rc522.c: 192:     for(i=8; i>0; i--)
  6999  003060  0E08               	movlw	8
  7000  003062  6E05               	movwf	MFRC522_Wr4@i^0,c
  7001  003064                     l4071:
  7002                           
  7003                           ;rc522.c: 193:     {;rc522.c: 194:         LATDbits.LD3 = ((ucAddr&0x80) == 0x80);
  7004  003064  BE04               	btfsc	MFRC522_Wr4@ucAddr^0,7,c
  7005  003066  EF37  F018         	goto	u3601
  7006  00306A  EF3B  F018         	goto	u3600
  7007  00306E                     u3601:
  7008  00306E  6A02               	clrf	??_MFRC522_Wr4^0,c
  7009  003070  2A02               	incf	??_MFRC522_Wr4^0,f,c
  7010  003072  EF3C  F018         	goto	u3618
  7011  003076                     u3600:
  7012  003076  6A02               	clrf	??_MFRC522_Wr4^0,c
  7013  003078                     u3618:
  7014  003078  4602               	rlncf	??_MFRC522_Wr4^0,f,c
  7015  00307A  4602               	rlncf	??_MFRC522_Wr4^0,f,c
  7016  00307C  4602               	rlncf	??_MFRC522_Wr4^0,f,c
  7017  00307E  508C               	movf	140,w,c	;volatile
  7018  003080  1802               	xorwf	??_MFRC522_Wr4^0,w,c
  7019  003082  0BF7               	andlw	-9
  7020  003084  1802               	xorwf	??_MFRC522_Wr4^0,w,c
  7021  003086  6E8C               	movwf	140,c	;volatile
  7022  003088                     
  7023                           ;rc522.c: 195:         LATDbits.LD1 = 1;
  7024  003088  828C               	bsf	140,1,c	;volatile
  7025                           
  7026                           ;rc522.c: 196:         ucAddr <<= 1;
  7027  00308A  90D8               	bcf	status,0,c
  7028  00308C  3604               	rlcf	MFRC522_Wr4@ucAddr^0,f,c
  7029  00308E                     
  7030                           ;rc522.c: 197:         LATDbits.LD1 = 0;
  7031  00308E  928C               	bcf	140,1,c	;volatile
  7032  003090                     
  7033                           ;rc522.c: 198:     }
  7034  003090  0605               	decf	MFRC522_Wr4@i^0,f,c
  7035  003092  5005               	movf	MFRC522_Wr4@i^0,w,c
  7036  003094  A4D8               	btfss	status,2,c
  7037  003096  EF4F  F018         	goto	u3621
  7038  00309A  EF51  F018         	goto	u3620
  7039  00309E                     u3621:
  7040  00309E  EF32  F018         	goto	l4071
  7041  0030A2                     u3620:
  7042  0030A2                     
  7043                           ;rc522.c: 199:     for(i=8; i>0; i--)
  7044  0030A2  0E08               	movlw	8
  7045  0030A4  6E05               	movwf	MFRC522_Wr4@i^0,c
  7046  0030A6                     l4085:
  7047                           
  7048                           ;rc522.c: 200:     {;rc522.c: 201:         LATDbits.LD3 = ((value&0x80) == 0x80);
  7049  0030A6  BE01               	btfsc	MFRC522_Wr4@value^0,7,c
  7050  0030A8  EF58  F018         	goto	u3631
  7051  0030AC  EF5C  F018         	goto	u3630
  7052  0030B0                     u3631:
  7053  0030B0  6A02               	clrf	??_MFRC522_Wr4^0,c
  7054  0030B2  2A02               	incf	??_MFRC522_Wr4^0,f,c
  7055  0030B4  EF5D  F018         	goto	u3648
  7056  0030B8                     u3630:
  7057  0030B8  6A02               	clrf	??_MFRC522_Wr4^0,c
  7058  0030BA                     u3648:
  7059  0030BA  4602               	rlncf	??_MFRC522_Wr4^0,f,c
  7060  0030BC  4602               	rlncf	??_MFRC522_Wr4^0,f,c
  7061  0030BE  4602               	rlncf	??_MFRC522_Wr4^0,f,c
  7062  0030C0  508C               	movf	140,w,c	;volatile
  7063  0030C2  1802               	xorwf	??_MFRC522_Wr4^0,w,c
  7064  0030C4  0BF7               	andlw	-9
  7065  0030C6  1802               	xorwf	??_MFRC522_Wr4^0,w,c
  7066  0030C8  6E8C               	movwf	140,c	;volatile
  7067  0030CA                     
  7068                           ;rc522.c: 202:         LATDbits.LD1 = 1;
  7069  0030CA  828C               	bsf	140,1,c	;volatile
  7070                           
  7071                           ;rc522.c: 203:         value <<= 1;
  7072  0030CC  90D8               	bcf	status,0,c
  7073  0030CE  3601               	rlcf	MFRC522_Wr4@value^0,f,c
  7074  0030D0                     
  7075                           ;rc522.c: 204:         LATDbits.LD1 = 0;
  7076  0030D0  928C               	bcf	140,1,c	;volatile
  7077  0030D2                     
  7078                           ;rc522.c: 205:     }
  7079  0030D2  0605               	decf	MFRC522_Wr4@i^0,f,c
  7080  0030D4  5005               	movf	MFRC522_Wr4@i^0,w,c
  7081  0030D6  A4D8               	btfss	status,2,c
  7082  0030D8  EF70  F018         	goto	u3651
  7083  0030DC  EF72  F018         	goto	u3650
  7084  0030E0                     u3651:
  7085  0030E0  EF53  F018         	goto	l4085
  7086  0030E4                     u3650:
  7087  0030E4                     
  7088                           ;rc522.c: 206:     LATAbits.LA0 = 1;
  7089  0030E4  8089               	bsf	137,0,c	;volatile
  7090                           
  7091                           ;rc522.c: 207:     LATDbits.LD1 = 1;
  7092  0030E6  828C               	bsf	140,1,c	;volatile
  7093  0030E8  0012               	return		;funcret
  7094  0030EA                     __end_of_MFRC522_Wr4:
  7095                           	callstack 0
  7096                           
  7097 ;; *************** function _MFRC522_Rd4 *****************
  7098 ;; Defined at:
  7099 ;;		line 83 in file "rc522.c"
  7100 ;; Parameters:    Size  Location     Type
  7101 ;;  address         1    wreg     unsigned char 
  7102 ;; Auto vars:     Size  Location     Type
  7103 ;;  address         1    2[COMRAM] unsigned char 
  7104 ;;  i               2    7[COMRAM] unsigned int 
  7105 ;;  ucResult        2    5[COMRAM] unsigned int 
  7106 ;;  ucAddr          2    3[COMRAM] unsigned int 
  7107 ;; Return value:  Size  Location     Type
  7108 ;;                  1    wreg      unsigned char 
  7109 ;; Registers used:
  7110 ;;		wreg, status,2, status,0
  7111 ;; Tracked objects:
  7112 ;;		On entry : 0/0
  7113 ;;		On exit  : 0/0
  7114 ;;		Unchanged: 0/0
  7115 ;; Data sizes:     COMRAM   BANK0   BANK1   BANK2   BANK3   BANK4   BANK5   BANK6   BANK7
  7116 ;;      Params:         0       0       0       0       0       0       0       0       0
  7117 ;;      Locals:         7       0       0       0       0       0       0       0       0
  7118 ;;      Temps:          2       0       0       0       0       0       0       0       0
  7119 ;;      Totals:         9       0       0       0       0       0       0       0       0
  7120 ;;Total ram usage:        9 bytes
  7121 ;; Hardware stack levels used: 1
  7122 ;; This function calls:
  7123 ;;		Nothing
  7124 ;; This function is called by:
  7125 ;;		_MFRC522_Clear_Bit4
  7126 ;;		_MFRC522_Set_Bit4
  7127 ;;		_MFRC522_AntennaOn4
  7128 ;;		_MFRC522_ToCard4
  7129 ;;		_MFRC522_CRC4
  7130 ;; This function uses a non-reentrant model
  7131 ;;
  7132                           
  7133                           	psect	text42
  7134  0026D6                     __ptext42:
  7135                           	callstack 0
  7136  0026D6                     _MFRC522_Rd4:
  7137                           	callstack 27
  7138                           
  7139                           ;incstack = 0
  7140                           ;MFRC522_Rd4@address stored from wreg
  7141  0026D6  6E03               	movwf	MFRC522_Rd4@address^0,c
  7142  0026D8                     
  7143                           ;rc522.c: 83: unsigned char MFRC522_Rd4(unsigned char address);rc522.c: 84: {;rc522.c: 8
      +                          5:     unsigned int i, ucAddr;;rc522.c: 86:     unsigned int ucResult = 0;
  7144  0026D8  0E00               	movlw	0
  7145  0026DA  6E07               	movwf	(MFRC522_Rd4@ucResult+1)^0,c
  7146  0026DC  0E00               	movlw	0
  7147  0026DE  6E06               	movwf	MFRC522_Rd4@ucResult^0,c
  7148  0026E0                     
  7149                           ;rc522.c: 87:     LATDbits.LD1 = 0;
  7150  0026E0  928C               	bcf	140,1,c	;volatile
  7151  0026E2                     
  7152                           ;rc522.c: 88:     LATAbits.LA0 = 0;
  7153  0026E2  9089               	bcf	137,0,c	;volatile
  7154  0026E4                     
  7155                           ;rc522.c: 89:     ucAddr = ((address << 1) & 0x7E) | 0x80;
  7156  0026E4  5003               	movf	MFRC522_Rd4@address^0,w,c
  7157  0026E6  2403               	addwf	MFRC522_Rd4@address^0,w,c
  7158  0026E8  0B7E               	andlw	126
  7159  0026EA  6E01               	movwf	??_MFRC522_Rd4^0,c
  7160  0026EC  6A02               	clrf	(??_MFRC522_Rd4+1)^0,c
  7161  0026EE  0E80               	movlw	128
  7162  0026F0  1001               	iorwf	??_MFRC522_Rd4^0,w,c
  7163  0026F2  6E04               	movwf	MFRC522_Rd4@ucAddr^0,c
  7164  0026F4  5002               	movf	(??_MFRC522_Rd4+1)^0,w,c
  7165  0026F6  6E05               	movwf	(MFRC522_Rd4@ucAddr+1)^0,c
  7166  0026F8                     
  7167                           ;rc522.c: 91:     for(i=8; i>0; i--)
  7168  0026F8  0E00               	movlw	0
  7169  0026FA  6E09               	movwf	(MFRC522_Rd4@i+1)^0,c
  7170  0026FC  0E08               	movlw	8
  7171  0026FE  6E08               	movwf	MFRC522_Rd4@i^0,c
  7172  002700                     l4033:
  7173                           
  7174                           ;rc522.c: 92:     {;rc522.c: 93:         LATDbits.LD3 = ((ucAddr & 0x80) == 0x80);
  7175  002700  BE04               	btfsc	MFRC522_Rd4@ucAddr^0,7,c
  7176  002702  EF85  F013         	goto	u3551
  7177  002706  EF89  F013         	goto	u3550
  7178  00270A                     u3551:
  7179  00270A  6A01               	clrf	??_MFRC522_Rd4^0,c
  7180  00270C  2A01               	incf	??_MFRC522_Rd4^0,f,c
  7181  00270E  EF8A  F013         	goto	u3568
  7182  002712                     u3550:
  7183  002712  6A01               	clrf	??_MFRC522_Rd4^0,c
  7184  002714                     u3568:
  7185  002714  4601               	rlncf	??_MFRC522_Rd4^0,f,c
  7186  002716  4601               	rlncf	??_MFRC522_Rd4^0,f,c
  7187  002718  4601               	rlncf	??_MFRC522_Rd4^0,f,c
  7188  00271A  508C               	movf	140,w,c	;volatile
  7189  00271C  1801               	xorwf	??_MFRC522_Rd4^0,w,c
  7190  00271E  0BF7               	andlw	-9
  7191  002720  1801               	xorwf	??_MFRC522_Rd4^0,w,c
  7192  002722  6E8C               	movwf	140,c	;volatile
  7193  002724                     
  7194                           ;rc522.c: 94:         LATDbits.LD1 = 1;
  7195  002724  828C               	bsf	140,1,c	;volatile
  7196  002726                     
  7197                           ;rc522.c: 95:         ucAddr <<= 1;
  7198  002726  90D8               	bcf	status,0,c
  7199  002728  3604               	rlcf	MFRC522_Rd4@ucAddr^0,f,c
  7200  00272A  3605               	rlcf	(MFRC522_Rd4@ucAddr+1)^0,f,c
  7201  00272C                     
  7202                           ;rc522.c: 96:         LATDbits.LD1 = 0;
  7203  00272C  928C               	bcf	140,1,c	;volatile
  7204  00272E                     
  7205                           ;rc522.c: 97:     }
  7206  00272E  0608               	decf	MFRC522_Rd4@i^0,f,c
  7207  002730  A0D8               	btfss	status,0,c
  7208  002732  0609               	decf	(MFRC522_Rd4@i+1)^0,f,c
  7209  002734  5008               	movf	MFRC522_Rd4@i^0,w,c
  7210  002736  1009               	iorwf	(MFRC522_Rd4@i+1)^0,w,c
  7211  002738  A4D8               	btfss	status,2,c
  7212  00273A  EFA1  F013         	goto	u3571
  7213  00273E  EFA3  F013         	goto	u3570
  7214  002742                     u3571:
  7215  002742  EF80  F013         	goto	l4033
  7216  002746                     u3570:
  7217  002746                     
  7218                           ;rc522.c: 98:     for(i=8; i>0; i--)
  7219  002746  0E00               	movlw	0
  7220  002748  6E09               	movwf	(MFRC522_Rd4@i+1)^0,c
  7221  00274A  0E08               	movlw	8
  7222  00274C  6E08               	movwf	MFRC522_Rd4@i^0,c
  7223  00274E                     l296:
  7224                           
  7225                           ;rc522.c: 99:     {;rc522.c: 100:         LATDbits.LD1 = 1;
  7226  00274E  828C               	bsf	140,1,c	;volatile
  7227  002750                     
  7228                           ;rc522.c: 101:         ucResult <<= 1;
  7229  002750  90D8               	bcf	status,0,c
  7230  002752  3606               	rlcf	MFRC522_Rd4@ucResult^0,f,c
  7231  002754  3607               	rlcf	(MFRC522_Rd4@ucResult+1)^0,f,c
  7232  002756                     
  7233                           ;rc522.c: 102:         ucResult |= (short)PORTDbits.RD2;
  7234  002756  B483               	btfsc	131,2,c	;volatile
  7235  002758  EFB0  F013         	goto	u3581
  7236  00275C  EFB4  F013         	goto	u3580
  7237  002760                     u3581:
  7238  002760  6A01               	clrf	??_MFRC522_Rd4^0,c
  7239  002762  2A01               	incf	??_MFRC522_Rd4^0,f,c
  7240  002764  EFB5  F013         	goto	u3588
  7241  002768                     u3580:
  7242  002768  6A01               	clrf	??_MFRC522_Rd4^0,c
  7243  00276A                     u3588:
  7244  00276A  5001               	movf	??_MFRC522_Rd4^0,w,c
  7245  00276C  1206               	iorwf	MFRC522_Rd4@ucResult^0,f,c
  7246  00276E                     
  7247                           ;rc522.c: 103:         LATDbits.LD1 = 0;
  7248  00276E  928C               	bcf	140,1,c	;volatile
  7249  002770                     
  7250                           ;rc522.c: 104:     }
  7251  002770  0608               	decf	MFRC522_Rd4@i^0,f,c
  7252  002772  A0D8               	btfss	status,0,c
  7253  002774  0609               	decf	(MFRC522_Rd4@i+1)^0,f,c
  7254  002776  5008               	movf	MFRC522_Rd4@i^0,w,c
  7255  002778  1009               	iorwf	(MFRC522_Rd4@i+1)^0,w,c
  7256  00277A  A4D8               	btfss	status,2,c
  7257  00277C  EFC2  F013         	goto	u3591
  7258  002780  EFC4  F013         	goto	u3590
  7259  002784                     u3591:
  7260  002784  EFA7  F013         	goto	l296
  7261  002788                     u3590:
  7262  002788                     
  7263                           ;rc522.c: 105:     LATAbits.LA0 = 1;
  7264  002788  8089               	bsf	137,0,c	;volatile
  7265                           
  7266                           ;rc522.c: 106:     LATDbits.LD1 = 1;
  7267  00278A  828C               	bsf	140,1,c	;volatile
  7268  00278C                     
  7269                           ;rc522.c: 107:     return ucResult;
  7270  00278C  5006               	movf	MFRC522_Rd4@ucResult^0,w,c
  7271  00278E  0012               	return		;funcret
  7272  002790                     __end_of_MFRC522_Rd4:
  7273                           	callstack 0
  7274                           
  7275 ;; *************** function _MFRC522_AntennaOff3 *****************
  7276 ;; Defined at:
  7277 ;;		line 345 in file "rc522.c"
  7278 ;; Parameters:    Size  Location     Type
  7279 ;;		None
  7280 ;; Auto vars:     Size  Location     Type
  7281 ;;		None
  7282 ;; Return value:  Size  Location     Type
  7283 ;;                  1    wreg      void 
  7284 ;; Registers used:
  7285 ;;		wreg, status,2, status,0, cstack
  7286 ;; Tracked objects:
  7287 ;;		On entry : 0/0
  7288 ;;		On exit  : 0/0
  7289 ;;		Unchanged: 0/0
  7290 ;; Data sizes:     COMRAM   BANK0   BANK1   BANK2   BANK3   BANK4   BANK5   BANK6   BANK7
  7291 ;;      Params:         0       0       0       0       0       0       0       0       0
  7292 ;;      Locals:         0       0       0       0       0       0       0       0       0
  7293 ;;      Temps:          0       0       0       0       0       0       0       0       0
  7294 ;;      Totals:         0       0       0       0       0       0       0       0       0
  7295 ;;Total ram usage:        0 bytes
  7296 ;; Hardware stack levels used: 1
  7297 ;; Hardware stack levels required when called: 2
  7298 ;; This function calls:
  7299 ;;		_MFRC522_Clear_Bit3
  7300 ;; This function is called by:
  7301 ;;		_MFRC522_Init
  7302 ;; This function uses a non-reentrant model
  7303 ;;
  7304                           
  7305                           	psect	text43
  7306  003B8A                     __ptext43:
  7307                           	callstack 0
  7308  003B8A                     _MFRC522_AntennaOff3:
  7309                           	callstack 27
  7310  003B8A                     
  7311                           ;rc522.c: 347:     MFRC522_Clear_Bit3(0x14, 0x03);
  7312  003B8A  0E03               	movlw	3
  7313  003B8C  6E0A               	movwf	MFRC522_Clear_Bit3@mask^0,c
  7314  003B8E  0E14               	movlw	20
  7315  003B90  EC22  F01D         	call	_MFRC522_Clear_Bit3
  7316  003B94  0012               	return		;funcret
  7317  003B96                     __end_of_MFRC522_AntennaOff3:
  7318                           	callstack 0
  7319                           
  7320 ;; *************** function _MFRC522_AntennaOff2 *****************
  7321 ;; Defined at:
  7322 ;;		line 340 in file "rc522.c"
  7323 ;; Parameters:    Size  Location     Type
  7324 ;;		None
  7325 ;; Auto vars:     Size  Location     Type
  7326 ;;		None
  7327 ;; Return value:  Size  Location     Type
  7328 ;;                  1    wreg      void 
  7329 ;; Registers used:
  7330 ;;		wreg, status,2, status,0, cstack
  7331 ;; Tracked objects:
  7332 ;;		On entry : 0/0
  7333 ;;		On exit  : 0/0
  7334 ;;		Unchanged: 0/0
  7335 ;; Data sizes:     COMRAM   BANK0   BANK1   BANK2   BANK3   BANK4   BANK5   BANK6   BANK7
  7336 ;;      Params:         0       0       0       0       0       0       0       0       0
  7337 ;;      Locals:         0       0       0       0       0       0       0       0       0
  7338 ;;      Temps:          0       0       0       0       0       0       0       0       0
  7339 ;;      Totals:         0       0       0       0       0       0       0       0       0
  7340 ;;Total ram usage:        0 bytes
  7341 ;; Hardware stack levels used: 1
  7342 ;; Hardware stack levels required when called: 2
  7343 ;; This function calls:
  7344 ;;		_MFRC522_Clear_Bit2
  7345 ;; This function is called by:
  7346 ;;		_MFRC522_Init
  7347 ;; This function uses a non-reentrant model
  7348 ;;
  7349                           
  7350                           	psect	text44
  7351  003B96                     __ptext44:
  7352                           	callstack 0
  7353  003B96                     _MFRC522_AntennaOff2:
  7354                           	callstack 27
  7355  003B96                     
  7356                           ;rc522.c: 342:     MFRC522_Clear_Bit2(0x14, 0x03);
  7357  003B96  0E03               	movlw	3
  7358  003B98  6E0A               	movwf	MFRC522_Clear_Bit2@mask^0,c
  7359  003B9A  0E14               	movlw	20
  7360  003B9C  EC2F  F01D         	call	_MFRC522_Clear_Bit2
  7361  003BA0  0012               	return		;funcret
  7362  003BA2                     __end_of_MFRC522_AntennaOff2:
  7363                           	callstack 0
  7364                           
  7365 ;; *************** function _MFRC522_AntennaOff *****************
  7366 ;; Defined at:
  7367 ;;		line 335 in file "rc522.c"
  7368 ;; Parameters:    Size  Location     Type
  7369 ;;		None
  7370 ;; Auto vars:     Size  Location     Type
  7371 ;;		None
  7372 ;; Return value:  Size  Location     Type
  7373 ;;                  1    wreg      void 
  7374 ;; Registers used:
  7375 ;;		wreg, status,2, status,0, cstack
  7376 ;; Tracked objects:
  7377 ;;		On entry : 0/0
  7378 ;;		On exit  : 0/0
  7379 ;;		Unchanged: 0/0
  7380 ;; Data sizes:     COMRAM   BANK0   BANK1   BANK2   BANK3   BANK4   BANK5   BANK6   BANK7
  7381 ;;      Params:         0       0       0       0       0       0       0       0       0
  7382 ;;      Locals:         0       0       0       0       0       0       0       0       0
  7383 ;;      Temps:          0       0       0       0       0       0       0       0       0
  7384 ;;      Totals:         0       0       0       0       0       0       0       0       0
  7385 ;;Total ram usage:        0 bytes
  7386 ;; Hardware stack levels used: 1
  7387 ;; Hardware stack levels required when called: 2
  7388 ;; This function calls:
  7389 ;;		_MFRC522_Clear_Bit
  7390 ;; This function is called by:
  7391 ;;		_MFRC522_Init
  7392 ;; This function uses a non-reentrant model
  7393 ;;
  7394                           
  7395                           	psect	text45
  7396  003BA2                     __ptext45:
  7397                           	callstack 0
  7398  003BA2                     _MFRC522_AntennaOff:
  7399                           	callstack 27
  7400  003BA2                     
  7401                           ;rc522.c: 337:     MFRC522_Clear_Bit(0x14, 0x03);
  7402  003BA2  0E03               	movlw	3
  7403  003BA4  6E0A               	movwf	MFRC522_Clear_Bit@mask^0,c
  7404  003BA6  0E14               	movlw	20
  7405  003BA8  EC3C  F01D         	call	_MFRC522_Clear_Bit
  7406  003BAC  0012               	return		;funcret
  7407  003BAE                     __end_of_MFRC522_AntennaOff:
  7408                           	callstack 0
  7409                           
  7410 ;; *************** function _MFRC522_Halt3 *****************
  7411 ;; Defined at:
  7412 ;;		line 1043 in file "rc522.c"
  7413 ;; Parameters:    Size  Location     Type
  7414 ;;		None
  7415 ;; Auto vars:     Size  Location     Type
  7416 ;;  buff            4   31[COMRAM] unsigned char [4]
  7417 ;;  unLen           2   35[COMRAM] unsigned int 
  7418 ;; Return value:  Size  Location     Type
  7419 ;;                  1    wreg      void 
  7420 ;; Registers used:
  7421 ;;		wreg, fsr2l, fsr2h, status,2, status,0, prodl, prodh, cstack
  7422 ;; Tracked objects:
  7423 ;;		On entry : 0/0
  7424 ;;		On exit  : 0/0
  7425 ;;		Unchanged: 0/0
  7426 ;; Data sizes:     COMRAM   BANK0   BANK1   BANK2   BANK3   BANK4   BANK5   BANK6   BANK7
  7427 ;;      Params:         0       0       0       0       0       0       0       0       0
  7428 ;;      Locals:         6       0       0       0       0       0       0       0       0
  7429 ;;      Temps:          0       0       0       0       0       0       0       0       0
  7430 ;;      Totals:         6       0       0       0       0       0       0       0       0
  7431 ;;Total ram usage:        6 bytes
  7432 ;; Hardware stack levels used: 1
  7433 ;; Hardware stack levels required when called: 3
  7434 ;; This function calls:
  7435 ;;		_MFRC522_CRC3
  7436 ;;		_MFRC522_Clear_Bit3
  7437 ;;		_MFRC522_ToCard3
  7438 ;; This function is called by:
  7439 ;;		_main
  7440 ;; This function uses a non-reentrant model
  7441 ;;
  7442                           
  7443                           	psect	text46
  7444  00357E                     __ptext46:
  7445                           	callstack 0
  7446  00357E                     _MFRC522_Halt3:
  7447                           	callstack 27
  7448  00357E                     
  7449                           ;rc522.c: 1045:     unsigned unLen;;rc522.c: 1046:     char buff[4];;rc522.c: 1047:     
      +                          buff[0] = 0x50;
  7450  00357E  0E50               	movlw	80
  7451  003580  6E20               	movwf	MFRC522_Halt3@buff^0,c
  7452                           
  7453                           ;rc522.c: 1048:     buff[1] = 0;
  7454  003582  0E00               	movlw	0
  7455  003584  6E21               	movwf	(MFRC522_Halt3@buff+1)^0,c
  7456  003586                     
  7457                           ;rc522.c: 1049:     MFRC522_CRC3(buff, 2, &buff[2]);
  7458  003586  0E20               	movlw	low MFRC522_Halt3@buff
  7459  003588  6E0D               	movwf	MFRC522_CRC3@dataIn^0,c
  7460  00358A  0E00               	movlw	high MFRC522_Halt3@buff
  7461  00358C  6E0E               	movwf	(MFRC522_CRC3@dataIn+1)^0,c
  7462  00358E  0E02               	movlw	2
  7463  003590  6E0F               	movwf	MFRC522_CRC3@length^0,c
  7464  003592  0E22               	movlw	low (MFRC522_Halt3@buff+2)
  7465  003594  6E10               	movwf	MFRC522_CRC3@dataOut^0,c
  7466  003596  0E00               	movlw	high (MFRC522_Halt3@buff+2)
  7467  003598  6E11               	movwf	(MFRC522_CRC3@dataOut+1)^0,c
  7468  00359A  ECEB  F016         	call	_MFRC522_CRC3	;wreg free
  7469  00359E                     
  7470                           ;rc522.c: 1050:     MFRC522_Clear_Bit3(0x08, 0x80);
  7471  00359E  0E80               	movlw	128
  7472  0035A0  6E0A               	movwf	MFRC522_Clear_Bit3@mask^0,c
  7473  0035A2  0E08               	movlw	8
  7474  0035A4  EC22  F01D         	call	_MFRC522_Clear_Bit3
  7475  0035A8                     
  7476                           ;rc522.c: 1051:     MFRC522_ToCard3(0x0C, buff, 4, buff, &unLen);
  7477  0035A8  0E20               	movlw	low MFRC522_Halt3@buff
  7478  0035AA  6E0D               	movwf	MFRC522_ToCard3@sendData^0,c
  7479  0035AC  0E00               	movlw	high MFRC522_Halt3@buff
  7480  0035AE  6E0E               	movwf	(MFRC522_ToCard3@sendData+1)^0,c
  7481  0035B0  0E04               	movlw	4
  7482  0035B2  6E0F               	movwf	MFRC522_ToCard3@sendLen^0,c
  7483  0035B4  0E20               	movlw	low MFRC522_Halt3@buff
  7484  0035B6  6E10               	movwf	MFRC522_ToCard3@backData^0,c
  7485  0035B8  0E00               	movlw	high MFRC522_Halt3@buff
  7486  0035BA  6E11               	movwf	(MFRC522_ToCard3@backData+1)^0,c
  7487  0035BC  0E24               	movlw	low MFRC522_Halt3@unLen
  7488  0035BE  6E12               	movwf	MFRC522_ToCard3@backLen^0,c
  7489  0035C0  0E00               	movlw	high MFRC522_Halt3@unLen
  7490  0035C2  6E13               	movwf	(MFRC522_ToCard3@backLen+1)^0,c
  7491  0035C4  0E0C               	movlw	12
  7492  0035C6  EC78  F00B         	call	_MFRC522_ToCard3
  7493  0035CA                     
  7494                           ;rc522.c: 1052:     MFRC522_Clear_Bit3(0x08, 0x08);
  7495  0035CA  0E08               	movlw	8
  7496  0035CC  6E0A               	movwf	MFRC522_Clear_Bit3@mask^0,c
  7497  0035CE  0E08               	movlw	8
  7498  0035D0  EC22  F01D         	call	_MFRC522_Clear_Bit3
  7499  0035D4  0012               	return		;funcret
  7500  0035D6                     __end_of_MFRC522_Halt3:
  7501                           	callstack 0
  7502                           
  7503 ;; *************** function _MFRC522_ToCard3 *****************
  7504 ;; Defined at:
  7505 ;;		line 591 in file "rc522.c"
  7506 ;; Parameters:    Size  Location     Type
  7507 ;;  command         1    wreg     unsigned char 
  7508 ;;  sendData        2   12[COMRAM] PTR unsigned char 
  7509 ;;		 -> MFRC522_Halt3@buff(4), MFRC522_SelectTag3@buffer(9), UID_3(20), TagType3(1), 
  7510 ;;  sendLen         1   14[COMRAM] unsigned char 
  7511 ;;  backData        2   15[COMRAM] PTR unsigned char 
  7512 ;;		 -> MFRC522_Halt3@buff(4), MFRC522_SelectTag3@buffer(9), UID_3(20), TagType3(1), 
  7513 ;;  backLen         2   17[COMRAM] PTR unsigned int 
  7514 ;;		 -> MFRC522_AntiColl3@unLen(2), MFRC522_Halt3@unLen(2), MFRC522_SelectTag3@recvBits(2), MFRC522_Request3@backBits(2)
      +, 
  7515 ;; Auto vars:     Size  Location     Type
  7516 ;;  command         1   27[COMRAM] unsigned char 
  7517 ;;  i               2   28[COMRAM] unsigned int 
  7518 ;;  n               1   30[COMRAM] unsigned char 
  7519 ;;  irqEn           1   26[COMRAM] unsigned char 
  7520 ;;  lastBits        1   25[COMRAM] unsigned char 
  7521 ;;  _status         1   24[COMRAM] unsigned char 
  7522 ;;  waitIRq         1   23[COMRAM] unsigned char 
  7523 ;; Return value:  Size  Location     Type
  7524 ;;                  1    wreg      unsigned char 
  7525 ;; Registers used:
  7526 ;;		wreg, fsr2l, fsr2h, status,2, status,0, prodl, prodh, cstack
  7527 ;; Tracked objects:
  7528 ;;		On entry : 0/0
  7529 ;;		On exit  : 0/0
  7530 ;;		Unchanged: 0/0
  7531 ;; Data sizes:     COMRAM   BANK0   BANK1   BANK2   BANK3   BANK4   BANK5   BANK6   BANK7
  7532 ;;      Params:         7       0       0       0       0       0       0       0       0
  7533 ;;      Locals:         8       0       0       0       0       0       0       0       0
  7534 ;;      Temps:          4       0       0       0       0       0       0       0       0
  7535 ;;      Totals:        19       0       0       0       0       0       0       0       0
  7536 ;;Total ram usage:       19 bytes
  7537 ;; Hardware stack levels used: 1
  7538 ;; Hardware stack levels required when called: 2
  7539 ;; This function calls:
  7540 ;;		_MFRC522_Clear_Bit3
  7541 ;;		_MFRC522_Rd3
  7542 ;;		_MFRC522_Set_Bit3
  7543 ;;		_MFRC522_Wr3
  7544 ;; This function is called by:
  7545 ;;		_MFRC522_Request3
  7546 ;;		_MFRC522_Halt3
  7547 ;;		_MFRC522_AntiColl3
  7548 ;;		_MFRC522_SelectTag3
  7549 ;; This function uses a non-reentrant model
  7550 ;;
  7551                           
  7552                           	psect	text47
  7553  0016F0                     __ptext47:
  7554                           	callstack 0
  7555  0016F0                     _MFRC522_ToCard3:
  7556                           	callstack 26
  7557                           
  7558                           ;incstack = 0
  7559                           ;MFRC522_ToCard3@command stored from wreg
  7560  0016F0  6E1C               	movwf	MFRC522_ToCard3@command^0,c
  7561  0016F2                     
  7562                           ;rc522.c: 591: char MFRC522_ToCard3(char command, char *sendData, char sendLen, char *ba
      +                          ckData, unsigned *backLen);rc522.c: 592: {;rc522.c: 593:     char _status = 2;
  7563  0016F2  0E02               	movlw	2
  7564  0016F4  6E19               	movwf	MFRC522_ToCard3@_status^0,c
  7565                           
  7566                           ;rc522.c: 594:     char irqEn = 0x00;
  7567  0016F6  0E00               	movlw	0
  7568  0016F8  6E1B               	movwf	MFRC522_ToCard3@irqEn^0,c
  7569                           
  7570                           ;rc522.c: 595:     char waitIRq = 0x00;
  7571  0016FA  0E00               	movlw	0
  7572  0016FC  6E18               	movwf	MFRC522_ToCard3@waitIRq^0,c
  7573                           
  7574                           ;rc522.c: 596:     char lastBits;;rc522.c: 597:     char n;;rc522.c: 598:     unsigned i
      +                          ;;rc522.c: 600:     switch(command)
  7575  0016FE  EF8D  F00B         	goto	l4395
  7576  001702                     l4389:
  7577                           
  7578                           ;rc522.c: 603:             irqEn = 0x12;
  7579  001702  0E12               	movlw	18
  7580  001704  6E1B               	movwf	MFRC522_ToCard3@irqEn^0,c
  7581                           
  7582                           ;rc522.c: 604:             waitIRq = 0x10;
  7583  001706  0E10               	movlw	16
  7584  001708  6E18               	movwf	MFRC522_ToCard3@waitIRq^0,c
  7585                           
  7586                           ;rc522.c: 605:             break;
  7587  00170A  EFA2  F00B         	goto	l4397
  7588  00170E                     l4391:
  7589                           
  7590                           ;rc522.c: 608:             irqEn = 0x77;
  7591  00170E  0E77               	movlw	119
  7592  001710  6E1B               	movwf	MFRC522_ToCard3@irqEn^0,c
  7593                           
  7594                           ;rc522.c: 609:             waitIRq = 0x30;
  7595  001712  0E30               	movlw	48
  7596  001714  6E18               	movwf	MFRC522_ToCard3@waitIRq^0,c
  7597                           
  7598                           ;rc522.c: 610:             break;
  7599  001716  EFA2  F00B         	goto	l4397
  7600  00171A                     l4395:
  7601  00171A  501C               	movf	MFRC522_ToCard3@command^0,w,c
  7602  00171C  6E14               	movwf	??_MFRC522_ToCard3^0,c
  7603  00171E  6A15               	clrf	(??_MFRC522_ToCard3+1)^0,c
  7604                           
  7605                           ; Switch on 2 bytes has been partitioned into a top level switch of size 1, and 1 sub-sw
      +                          itches
  7606                           ; Switch size 1, requested type "simple"
  7607                           ; Number of cases is 1, Range of values is 0 to 0
  7608                           ; switch strategies available:
  7609                           ; Name         Instructions Cycles
  7610                           ; simple_byte            4     3 (average)
  7611                           ;	Chosen strategy is simple_byte
  7612  001720  5015               	movf	(??_MFRC522_ToCard3+1)^0,w,c
  7613  001722  0A00               	xorlw	0	; case 0
  7614  001724  B4D8               	btfsc	status,2,c
  7615  001726  EF97  F00B         	goto	l5939
  7616  00172A  EFA2  F00B         	goto	l4397
  7617  00172E                     l5939:
  7618                           
  7619                           ; Switch size 1, requested type "simple"
  7620                           ; Number of cases is 2, Range of values is 12 to 14
  7621                           ; switch strategies available:
  7622                           ; Name         Instructions Cycles
  7623                           ; simple_byte            7     4 (average)
  7624                           ;	Chosen strategy is simple_byte
  7625  00172E  5014               	movf	??_MFRC522_ToCard3^0,w,c
  7626  001730  0A0C               	xorlw	12	; case 12
  7627  001732  B4D8               	btfsc	status,2,c
  7628  001734  EF87  F00B         	goto	l4391
  7629  001738  0A02               	xorlw	2	; case 14
  7630  00173A  B4D8               	btfsc	status,2,c
  7631  00173C  EF81  F00B         	goto	l4389
  7632  001740  EFA2  F00B         	goto	l4397
  7633  001744                     l4397:
  7634                           
  7635                           ;rc522.c: 615:     MFRC522_Wr3(0x02, irqEn | 0x80);
  7636  001744  501B               	movf	MFRC522_ToCard3@irqEn^0,w,c
  7637  001746  0980               	iorlw	128
  7638  001748  6E01               	movwf	MFRC522_Wr3@value^0,c
  7639  00174A  0E02               	movlw	2
  7640  00174C  EC75  F018         	call	_MFRC522_Wr3
  7641                           
  7642                           ;rc522.c: 616:     MFRC522_Clear_Bit3(0x04, 0x80);
  7643  001750  0E80               	movlw	128
  7644  001752  6E0A               	movwf	MFRC522_Clear_Bit3@mask^0,c
  7645  001754  0E04               	movlw	4
  7646  001756  EC22  F01D         	call	_MFRC522_Clear_Bit3
  7647                           
  7648                           ;rc522.c: 617:     MFRC522_Set_Bit3(0x0A, 0x80);
  7649  00175A  0E80               	movlw	128
  7650  00175C  6E0A               	movwf	MFRC522_Set_Bit3@mask^0,c
  7651  00175E  0E0A               	movlw	10
  7652  001760  EC55  F01D         	call	_MFRC522_Set_Bit3
  7653                           
  7654                           ;rc522.c: 618:     MFRC522_Wr3(0x01, 0x00);
  7655  001764  0E00               	movlw	0
  7656  001766  6E01               	movwf	MFRC522_Wr3@value^0,c
  7657  001768  0E01               	movlw	1
  7658  00176A  EC75  F018         	call	_MFRC522_Wr3
  7659  00176E                     
  7660                           ;rc522.c: 620:     for(i=0; i<sendLen; i++)
  7661  00176E  0E00               	movlw	0
  7662  001770  6E1E               	movwf	(MFRC522_ToCard3@i+1)^0,c
  7663  001772  0E00               	movlw	0
  7664  001774  6E1D               	movwf	MFRC522_ToCard3@i^0,c
  7665  001776  EFCA  F00B         	goto	l4405
  7666  00177A                     l4401:
  7667                           
  7668                           ;rc522.c: 621:     {;rc522.c: 622:         MFRC522_Wr3(0x09, sendData[i]);
  7669  00177A  501D               	movf	MFRC522_ToCard3@i^0,w,c
  7670  00177C  240D               	addwf	MFRC522_ToCard3@sendData^0,w,c
  7671  00177E  6ED9               	movwf	fsr2l,c
  7672  001780  501E               	movf	(MFRC522_ToCard3@i+1)^0,w,c
  7673  001782  200E               	addwfc	(MFRC522_ToCard3@sendData+1)^0,w,c
  7674  001784  6EDA               	movwf	fsr2h,c
  7675  001786  50DF               	movf	indf2,w,c
  7676  001788  6E01               	movwf	MFRC522_Wr3@value^0,c
  7677  00178A  0E09               	movlw	9
  7678  00178C  EC75  F018         	call	_MFRC522_Wr3
  7679  001790                     
  7680                           ;rc522.c: 623:     }
  7681  001790  4A1D               	infsnz	MFRC522_ToCard3@i^0,f,c
  7682  001792  2A1E               	incf	(MFRC522_ToCard3@i+1)^0,f,c
  7683  001794                     l4405:
  7684  001794  500F               	movf	MFRC522_ToCard3@sendLen^0,w,c
  7685  001796  6E14               	movwf	??_MFRC522_ToCard3^0,c
  7686  001798  6A15               	clrf	(??_MFRC522_ToCard3+1)^0,c
  7687  00179A  5014               	movf	??_MFRC522_ToCard3^0,w,c
  7688  00179C  5C1D               	subwf	MFRC522_ToCard3@i^0,w,c
  7689  00179E  5015               	movf	(??_MFRC522_ToCard3+1)^0,w,c
  7690  0017A0  581E               	subwfb	(MFRC522_ToCard3@i+1)^0,w,c
  7691  0017A2  A0D8               	btfss	status,0,c
  7692  0017A4  EFD6  F00B         	goto	u4051
  7693  0017A8  EFD8  F00B         	goto	u4050
  7694  0017AC                     u4051:
  7695  0017AC  EFBD  F00B         	goto	l4401
  7696  0017B0                     u4050:
  7697  0017B0                     
  7698                           ;rc522.c: 624:     MFRC522_Wr3(0x01, command);
  7699  0017B0  C01C  F001         	movff	MFRC522_ToCard3@command,MFRC522_Wr3@value
  7700  0017B4  0E01               	movlw	1
  7701  0017B6  EC75  F018         	call	_MFRC522_Wr3
  7702  0017BA                     
  7703                           ;rc522.c: 625:     if(command == 0x0C)
  7704  0017BA  0E0C               	movlw	12
  7705  0017BC  181C               	xorwf	MFRC522_ToCard3@command^0,w,c
  7706  0017BE  A4D8               	btfss	status,2,c
  7707  0017C0  EFE4  F00B         	goto	u4061
  7708  0017C4  EFE6  F00B         	goto	u4060
  7709  0017C8                     u4061:
  7710  0017C8  EFEB  F00B         	goto	l4413
  7711  0017CC                     u4060:
  7712  0017CC                     
  7713                           ;rc522.c: 626:     {;rc522.c: 627:         MFRC522_Set_Bit3(0x0D, 0x80);
  7714  0017CC  0E80               	movlw	128
  7715  0017CE  6E0A               	movwf	MFRC522_Set_Bit3@mask^0,c
  7716  0017D0  0E0D               	movlw	13
  7717  0017D2  EC55  F01D         	call	_MFRC522_Set_Bit3
  7718  0017D6                     l4413:
  7719                           
  7720                           ;rc522.c: 629:     i = 0xFFFF;
  7721  0017D6  681D               	setf	MFRC522_ToCard3@i^0,c
  7722  0017D8  681E               	setf	(MFRC522_ToCard3@i+1)^0,c
  7723  0017DA                     l448:
  7724                           
  7725                           ;rc522.c: 631:     {;rc522.c: 632:         n = MFRC522_Rd3(0x04);
  7726  0017DA  0E04               	movlw	4
  7727  0017DC  ECC8  F013         	call	_MFRC522_Rd3
  7728  0017E0  6E1F               	movwf	MFRC522_ToCard3@n^0,c
  7729  0017E2                     
  7730                           ;rc522.c: 633:         i--;
  7731  0017E2  061D               	decf	MFRC522_ToCard3@i^0,f,c
  7732  0017E4  A0D8               	btfss	status,0,c
  7733  0017E6  061E               	decf	(MFRC522_ToCard3@i+1)^0,f,c
  7734  0017E8                     
  7735                           ;rc522.c: 634:     }while(i && !(n & 0x01) && !(n & waitIRq));
  7736  0017E8  501D               	movf	MFRC522_ToCard3@i^0,w,c
  7737  0017EA  101E               	iorwf	(MFRC522_ToCard3@i+1)^0,w,c
  7738  0017EC  B4D8               	btfsc	status,2,c
  7739  0017EE  EFFB  F00B         	goto	u4071
  7740  0017F2  EFFD  F00B         	goto	u4070
  7741  0017F6                     u4071:
  7742  0017F6  EF0E  F00C         	goto	l4423
  7743  0017FA                     u4070:
  7744  0017FA  B01F               	btfsc	MFRC522_ToCard3@n^0,0,c
  7745  0017FC  EF02  F00C         	goto	u4081
  7746  001800  EF04  F00C         	goto	u4080
  7747  001804                     u4081:
  7748  001804  EF0E  F00C         	goto	l4423
  7749  001808                     u4080:
  7750  001808  501F               	movf	MFRC522_ToCard3@n^0,w,c
  7751  00180A  1418               	andwf	MFRC522_ToCard3@waitIRq^0,w,c
  7752  00180C  0900               	iorlw	0
  7753  00180E  B4D8               	btfsc	status,2,c
  7754  001810  EF0C  F00C         	goto	u4091
  7755  001814  EF0E  F00C         	goto	u4090
  7756  001818                     u4091:
  7757  001818  EFED  F00B         	goto	l448
  7758  00181C                     u4090:
  7759  00181C                     l4423:
  7760                           
  7761                           ;rc522.c: 636:     MFRC522_Clear_Bit3(0x0D, 0x80);
  7762  00181C  0E80               	movlw	128
  7763  00181E  6E0A               	movwf	MFRC522_Clear_Bit3@mask^0,c
  7764  001820  0E0D               	movlw	13
  7765  001822  EC22  F01D         	call	_MFRC522_Clear_Bit3
  7766  001826                     
  7767                           ;rc522.c: 637:     if(i != 0)
  7768  001826  501D               	movf	MFRC522_ToCard3@i^0,w,c
  7769  001828  101E               	iorwf	(MFRC522_ToCard3@i+1)^0,w,c
  7770  00182A  B4D8               	btfsc	status,2,c
  7771  00182C  EF1A  F00C         	goto	u4101
  7772  001830  EF1C  F00C         	goto	u4100
  7773  001834                     u4101:
  7774  001834  EFBD  F00C         	goto	l452
  7775  001838                     u4100:
  7776  001838                     
  7777                           ;rc522.c: 638:     {;rc522.c: 639:         if(!(MFRC522_Rd3(0x06) & 0x1B))
  7778  001838  0E06               	movlw	6
  7779  00183A  ECC8  F013         	call	_MFRC522_Rd3
  7780  00183E  6E14               	movwf	??_MFRC522_ToCard3^0,c
  7781  001840  0E1B               	movlw	27
  7782  001842  1614               	andwf	??_MFRC522_ToCard3^0,f,c
  7783  001844  A4D8               	btfss	status,2,c
  7784  001846  EF27  F00C         	goto	u4111
  7785  00184A  EF29  F00C         	goto	u4110
  7786  00184E                     u4111:
  7787  00184E  EFBB  F00C         	goto	l4461
  7788  001852                     u4110:
  7789  001852                     
  7790                           ;rc522.c: 640:         {;rc522.c: 641:             _status = 0;
  7791  001852  0E00               	movlw	0
  7792  001854  6E19               	movwf	MFRC522_ToCard3@_status^0,c
  7793  001856                     
  7794                           ;rc522.c: 642:             if(n & irqEn & 0x01)
  7795  001856  501F               	movf	MFRC522_ToCard3@n^0,w,c
  7796  001858  141B               	andwf	MFRC522_ToCard3@irqEn^0,w,c
  7797  00185A  6E14               	movwf	??_MFRC522_ToCard3^0,c
  7798  00185C  A014               	btfss	??_MFRC522_ToCard3^0,0,c
  7799  00185E  EF33  F00C         	goto	u4121
  7800  001862  EF35  F00C         	goto	u4120
  7801  001866                     u4121:
  7802  001866  EF37  F00C         	goto	l4435
  7803  00186A                     u4120:
  7804  00186A                     
  7805                           ;rc522.c: 643:             {;rc522.c: 644:                 _status = 1;
  7806  00186A  0E01               	movlw	1
  7807  00186C  6E19               	movwf	MFRC522_ToCard3@_status^0,c
  7808  00186E                     l4435:
  7809                           
  7810                           ;rc522.c: 646:             if(command == 0x0C)
  7811  00186E  0E0C               	movlw	12
  7812  001870  181C               	xorwf	MFRC522_ToCard3@command^0,w,c
  7813  001872  A4D8               	btfss	status,2,c
  7814  001874  EF3E  F00C         	goto	u4131
  7815  001878  EF40  F00C         	goto	u4130
  7816  00187C                     u4131:
  7817  00187C  EFBD  F00C         	goto	l452
  7818  001880                     u4130:
  7819  001880                     
  7820                           ;rc522.c: 647:             {;rc522.c: 648:                 n = MFRC522_Rd3(0x0A);
  7821  001880  0E0A               	movlw	10
  7822  001882  ECC8  F013         	call	_MFRC522_Rd3
  7823  001886  6E1F               	movwf	MFRC522_ToCard3@n^0,c
  7824                           
  7825                           ;rc522.c: 649:                 lastBits = MFRC522_Rd3(0x0C) & 0x07;
  7826  001888  0E0C               	movlw	12
  7827  00188A  ECC8  F013         	call	_MFRC522_Rd3
  7828  00188E  0B07               	andlw	7
  7829  001890  6E1A               	movwf	MFRC522_ToCard3@lastBits^0,c
  7830  001892                     
  7831                           ;rc522.c: 650:                 if(lastBits)
  7832  001892  501A               	movf	MFRC522_ToCard3@lastBits^0,w,c
  7833  001894  B4D8               	btfsc	status,2,c
  7834  001896  EF4F  F00C         	goto	u4141
  7835  00189A  EF51  F00C         	goto	u4140
  7836  00189E                     u4141:
  7837  00189E  EF73  F00C         	goto	l4443
  7838  0018A2                     u4140:
  7839  0018A2                     
  7840                           ;rc522.c: 651:                 {;rc522.c: 652:                     *backLen = (n-1) * 8 
      +                          + lastBits;
  7841  0018A2  0EF8               	movlw	248
  7842  0018A4  6E14               	movwf	??_MFRC522_ToCard3^0,c
  7843  0018A6  0EFF               	movlw	255
  7844  0018A8  6E15               	movwf	(??_MFRC522_ToCard3+1)^0,c
  7845  0018AA  501A               	movf	MFRC522_ToCard3@lastBits^0,w,c
  7846  0018AC  C01F  F016         	movff	MFRC522_ToCard3@n,??_MFRC522_ToCard3+2
  7847  0018B0  6A17               	clrf	(??_MFRC522_ToCard3+3)^0,c
  7848  0018B2  90D8               	bcf	status,0,c
  7849  0018B4  3616               	rlcf	(??_MFRC522_ToCard3+2)^0,f,c
  7850  0018B6  3617               	rlcf	(??_MFRC522_ToCard3+3)^0,f,c
  7851  0018B8  90D8               	bcf	status,0,c
  7852  0018BA  3616               	rlcf	(??_MFRC522_ToCard3+2)^0,f,c
  7853  0018BC  3617               	rlcf	(??_MFRC522_ToCard3+3)^0,f,c
  7854  0018BE  90D8               	bcf	status,0,c
  7855  0018C0  3616               	rlcf	(??_MFRC522_ToCard3+2)^0,f,c
  7856  0018C2  3617               	rlcf	(??_MFRC522_ToCard3+3)^0,f,c
  7857  0018C4  2616               	addwf	(??_MFRC522_ToCard3+2)^0,f,c
  7858  0018C6  0E00               	movlw	0
  7859  0018C8  2217               	addwfc	(??_MFRC522_ToCard3+3)^0,f,c
  7860  0018CA  5014               	movf	??_MFRC522_ToCard3^0,w,c
  7861  0018CC  2616               	addwf	(??_MFRC522_ToCard3+2)^0,f,c
  7862  0018CE  5015               	movf	(??_MFRC522_ToCard3+1)^0,w,c
  7863  0018D0  2217               	addwfc	(??_MFRC522_ToCard3+3)^0,f,c
  7864  0018D2  C012  FFD9         	movff	MFRC522_ToCard3@backLen,fsr2l
  7865  0018D6  C013  FFDA         	movff	MFRC522_ToCard3@backLen+1,fsr2h
  7866  0018DA  C016  FFDE         	movff	??_MFRC522_ToCard3+2,postinc2
  7867  0018DE  C017  FFDD         	movff	??_MFRC522_ToCard3+3,postdec2
  7868                           
  7869                           ;rc522.c: 653:                 }
  7870  0018E2  EF7D  F00C         	goto	l4445
  7871  0018E6                     l4443:
  7872                           
  7873                           ;rc522.c: 655:                 {;rc522.c: 656:                     *backLen = n * 8;
  7874  0018E6  501F               	movf	MFRC522_ToCard3@n^0,w,c
  7875  0018E8  0D08               	mullw	8
  7876  0018EA  C012  FFD9         	movff	MFRC522_ToCard3@backLen,fsr2l
  7877  0018EE  C013  FFDA         	movff	MFRC522_ToCard3@backLen+1,fsr2h
  7878  0018F2  CFF3 FFDE          	movff	prodl,postinc2
  7879  0018F6  CFF4 FFDD          	movff	prodh,postdec2
  7880  0018FA                     l4445:
  7881                           
  7882                           ;rc522.c: 658:                 if(n == 0)
  7883  0018FA  501F               	movf	MFRC522_ToCard3@n^0,w,c
  7884  0018FC  A4D8               	btfss	status,2,c
  7885  0018FE  EF83  F00C         	goto	u4151
  7886  001902  EF85  F00C         	goto	u4150
  7887  001906                     u4151:
  7888  001906  EF87  F00C         	goto	l4449
  7889  00190A                     u4150:
  7890  00190A                     
  7891                           ;rc522.c: 659:                 {;rc522.c: 660:                     n = 1;
  7892  00190A  0E01               	movlw	1
  7893  00190C  6E1F               	movwf	MFRC522_ToCard3@n^0,c
  7894  00190E                     l4449:
  7895                           
  7896                           ;rc522.c: 662:                 if(n > 16)
  7897  00190E  0E10               	movlw	16
  7898  001910  641F               	cpfsgt	MFRC522_ToCard3@n^0,c
  7899  001912  EF8D  F00C         	goto	u4161
  7900  001916  EF8F  F00C         	goto	u4160
  7901  00191A                     u4161:
  7902  00191A  EF91  F00C         	goto	l459
  7903  00191E                     u4160:
  7904  00191E                     
  7905                           ;rc522.c: 663:                 {;rc522.c: 664:                     n = 16;
  7906  00191E  0E10               	movlw	16
  7907  001920  6E1F               	movwf	MFRC522_ToCard3@n^0,c
  7908  001922                     l459:
  7909                           
  7910                           ;rc522.c: 666:                 for(i=0; i<n; i++)
  7911  001922  0E00               	movlw	0
  7912  001924  6E1E               	movwf	(MFRC522_ToCard3@i+1)^0,c
  7913  001926  0E00               	movlw	0
  7914  001928  6E1D               	movwf	MFRC522_ToCard3@i^0,c
  7915  00192A  EFA3  F00C         	goto	l4457
  7916  00192E                     l4453:
  7917                           
  7918                           ;rc522.c: 667:                 {;rc522.c: 668:                     backData[i] = MFRC522
      +                          _Rd3(0x09);
  7919  00192E  501D               	movf	MFRC522_ToCard3@i^0,w,c
  7920  001930  2410               	addwf	MFRC522_ToCard3@backData^0,w,c
  7921  001932  6ED9               	movwf	fsr2l,c
  7922  001934  501E               	movf	(MFRC522_ToCard3@i+1)^0,w,c
  7923  001936  2011               	addwfc	(MFRC522_ToCard3@backData+1)^0,w,c
  7924  001938  6EDA               	movwf	fsr2h,c
  7925  00193A  0E09               	movlw	9
  7926  00193C  ECC8  F013         	call	_MFRC522_Rd3
  7927  001940  6EDF               	movwf	indf2,c
  7928  001942                     
  7929                           ;rc522.c: 669:                 }
  7930  001942  4A1D               	infsnz	MFRC522_ToCard3@i^0,f,c
  7931  001944  2A1E               	incf	(MFRC522_ToCard3@i+1)^0,f,c
  7932  001946                     l4457:
  7933  001946  501F               	movf	MFRC522_ToCard3@n^0,w,c
  7934  001948  6E14               	movwf	??_MFRC522_ToCard3^0,c
  7935  00194A  6A15               	clrf	(??_MFRC522_ToCard3+1)^0,c
  7936  00194C  5014               	movf	??_MFRC522_ToCard3^0,w,c
  7937  00194E  5C1D               	subwf	MFRC522_ToCard3@i^0,w,c
  7938  001950  5015               	movf	(??_MFRC522_ToCard3+1)^0,w,c
  7939  001952  581E               	subwfb	(MFRC522_ToCard3@i+1)^0,w,c
  7940  001954  A0D8               	btfss	status,0,c
  7941  001956  EFAF  F00C         	goto	u4171
  7942  00195A  EFB1  F00C         	goto	u4170
  7943  00195E                     u4171:
  7944  00195E  EF97  F00C         	goto	l4453
  7945  001962                     u4170:
  7946  001962                     
  7947                           ;rc522.c: 670:                 backData[i] = 0;
  7948  001962  501D               	movf	MFRC522_ToCard3@i^0,w,c
  7949  001964  2410               	addwf	MFRC522_ToCard3@backData^0,w,c
  7950  001966  6ED9               	movwf	fsr2l,c
  7951  001968  501E               	movf	(MFRC522_ToCard3@i+1)^0,w,c
  7952  00196A  2011               	addwfc	(MFRC522_ToCard3@backData+1)^0,w,c
  7953  00196C  6EDA               	movwf	fsr2h,c
  7954  00196E  0E00               	movlw	0
  7955  001970  6EDF               	movwf	indf2,c
  7956  001972  EFBD  F00C         	goto	l452
  7957  001976                     l4461:
  7958                           
  7959                           ;rc522.c: 674:         {;rc522.c: 675:             _status = 2;
  7960  001976  0E02               	movlw	2
  7961  001978  6E19               	movwf	MFRC522_ToCard3@_status^0,c
  7962  00197A                     l452:
  7963                           
  7964                           ;rc522.c: 678:     return _status;
  7965  00197A  5019               	movf	MFRC522_ToCard3@_status^0,w,c
  7966  00197C  0012               	return		;funcret
  7967  00197E                     __end_of_MFRC522_ToCard3:
  7968                           	callstack 0
  7969                           
  7970 ;; *************** function _MFRC522_CRC3 *****************
  7971 ;; Defined at:
  7972 ;;		line 869 in file "rc522.c"
  7973 ;; Parameters:    Size  Location     Type
  7974 ;;  dataIn          2   12[COMRAM] PTR unsigned char 
  7975 ;;		 -> MFRC522_Halt3@buff(4), MFRC522_SelectTag3@buffer(9), 
  7976 ;;  length          1   14[COMRAM] unsigned char 
  7977 ;;  dataOut         2   15[COMRAM] PTR unsigned char 
  7978 ;;		 -> MFRC522_Halt3@buff(4), MFRC522_SelectTag3@buffer(9), 
  7979 ;; Auto vars:     Size  Location     Type
  7980 ;;  i               1   18[COMRAM] unsigned char 
  7981 ;;  n               1   17[COMRAM] unsigned char 
  7982 ;; Return value:  Size  Location     Type
  7983 ;;                  1    wreg      void 
  7984 ;; Registers used:
  7985 ;;		wreg, fsr2l, fsr2h, status,2, status,0, cstack
  7986 ;; Tracked objects:
  7987 ;;		On entry : 0/0
  7988 ;;		On exit  : 0/0
  7989 ;;		Unchanged: 0/0
  7990 ;; Data sizes:     COMRAM   BANK0   BANK1   BANK2   BANK3   BANK4   BANK5   BANK6   BANK7
  7991 ;;      Params:         5       0       0       0       0       0       0       0       0
  7992 ;;      Locals:         2       0       0       0       0       0       0       0       0
  7993 ;;      Temps:          0       0       0       0       0       0       0       0       0
  7994 ;;      Totals:         7       0       0       0       0       0       0       0       0
  7995 ;;Total ram usage:        7 bytes
  7996 ;; Hardware stack levels used: 1
  7997 ;; Hardware stack levels required when called: 2
  7998 ;; This function calls:
  7999 ;;		_MFRC522_Clear_Bit3
  8000 ;;		_MFRC522_Rd3
  8001 ;;		_MFRC522_Set_Bit3
  8002 ;;		_MFRC522_Wr3
  8003 ;; This function is called by:
  8004 ;;		_MFRC522_Halt3
  8005 ;;		_MFRC522_SelectTag3
  8006 ;; This function uses a non-reentrant model
  8007 ;;
  8008                           
  8009                           	psect	text48
  8010  002DD6                     __ptext48:
  8011                           	callstack 0
  8012  002DD6                     _MFRC522_CRC3:
  8013                           	callstack 27
  8014  002DD6                     
  8015                           ;rc522.c: 869: void MFRC522_CRC3(char *dataIn, char length, char *dataOut);rc522.c: 870:
      +                           {;rc522.c: 871:     char i, n;;rc522.c: 872:     MFRC522_Clear_Bit3(0x05, 0x04);
  8016  002DD6  0E04               	movlw	4
  8017  002DD8  6E0A               	movwf	MFRC522_Clear_Bit3@mask^0,c
  8018  002DDA  0E05               	movlw	5
  8019  002DDC  EC22  F01D         	call	_MFRC522_Clear_Bit3
  8020                           
  8021                           ;rc522.c: 873:     MFRC522_Set_Bit3(0x0A, 0x80);
  8022  002DE0  0E80               	movlw	128
  8023  002DE2  6E0A               	movwf	MFRC522_Set_Bit3@mask^0,c
  8024  002DE4  0E0A               	movlw	10
  8025  002DE6  EC55  F01D         	call	_MFRC522_Set_Bit3
  8026  002DEA                     
  8027                           ;rc522.c: 874:     for(i=0; i<length; i++)
  8028  002DEA  0E00               	movlw	0
  8029  002DEC  6E13               	movwf	MFRC522_CRC3@i^0,c
  8030  002DEE  EF05  F017         	goto	l4867
  8031  002DF2                     l4861:
  8032                           
  8033                           ;rc522.c: 875:     {;rc522.c: 876:         MFRC522_Wr3(0x09, *dataIn++);
  8034  002DF2  C00D  FFD9         	movff	MFRC522_CRC3@dataIn,fsr2l
  8035  002DF6  C00E  FFDA         	movff	MFRC522_CRC3@dataIn+1,fsr2h
  8036  002DFA  50DF               	movf	indf2,w,c
  8037  002DFC  6E01               	movwf	MFRC522_Wr3@value^0,c
  8038  002DFE  0E09               	movlw	9
  8039  002E00  EC75  F018         	call	_MFRC522_Wr3
  8040  002E04  4A0D               	infsnz	MFRC522_CRC3@dataIn^0,f,c
  8041  002E06  2A0E               	incf	(MFRC522_CRC3@dataIn+1)^0,f,c
  8042  002E08                     
  8043                           ;rc522.c: 877:     }
  8044  002E08  2A13               	incf	MFRC522_CRC3@i^0,f,c
  8045  002E0A                     l4867:
  8046  002E0A  500F               	movf	MFRC522_CRC3@length^0,w,c
  8047  002E0C  5C13               	subwf	MFRC522_CRC3@i^0,w,c
  8048  002E0E  A0D8               	btfss	status,0,c
  8049  002E10  EF0C  F017         	goto	u4581
  8050  002E14  EF0E  F017         	goto	u4580
  8051  002E18                     u4581:
  8052  002E18  EFF9  F016         	goto	l4861
  8053  002E1C                     u4580:
  8054  002E1C                     
  8055                           ;rc522.c: 878:     MFRC522_Wr3(0x01, 0x03);
  8056  002E1C  0E03               	movlw	3
  8057  002E1E  6E01               	movwf	MFRC522_Wr3@value^0,c
  8058  002E20  0E01               	movlw	1
  8059  002E22  EC75  F018         	call	_MFRC522_Wr3
  8060  002E26                     
  8061                           ;rc522.c: 879:     i = 0xFF;
  8062  002E26  6813               	setf	MFRC522_CRC3@i^0,c
  8063  002E28                     l542:
  8064                           
  8065                           ;rc522.c: 881:     {;rc522.c: 882:         n = MFRC522_Rd3( 0x05 );
  8066  002E28  0E05               	movlw	5
  8067  002E2A  ECC8  F013         	call	_MFRC522_Rd3
  8068  002E2E  6E12               	movwf	MFRC522_CRC3@n^0,c
  8069  002E30                     
  8070                           ;rc522.c: 883:         i--;
  8071  002E30  0613               	decf	MFRC522_CRC3@i^0,f,c
  8072  002E32                     
  8073                           ;rc522.c: 884:     }
  8074  002E32  5013               	movf	MFRC522_CRC3@i^0,w,c
  8075  002E34  B4D8               	btfsc	status,2,c
  8076  002E36  EF1F  F017         	goto	u4591
  8077  002E3A  EF21  F017         	goto	u4590
  8078  002E3E                     u4591:
  8079  002E3E  EF28  F017         	goto	l4879
  8080  002E42                     u4590:
  8081  002E42  A412               	btfss	MFRC522_CRC3@n^0,2,c
  8082  002E44  EF26  F017         	goto	u4601
  8083  002E48  EF28  F017         	goto	u4600
  8084  002E4C                     u4601:
  8085  002E4C  EF14  F017         	goto	l542
  8086  002E50                     u4600:
  8087  002E50                     l4879:
  8088                           
  8089                           ;rc522.c: 886:     dataOut[0] = MFRC522_Rd3(0x22);
  8090  002E50  0E22               	movlw	34
  8091  002E52  ECC8  F013         	call	_MFRC522_Rd3
  8092  002E56  C010  FFD9         	movff	MFRC522_CRC3@dataOut,fsr2l
  8093  002E5A  C011  FFDA         	movff	MFRC522_CRC3@dataOut+1,fsr2h
  8094  002E5E  6EDF               	movwf	indf2,c
  8095                           
  8096                           ;rc522.c: 887:     dataOut[1] = MFRC522_Rd3(0x21);
  8097  002E60  EE20 F001          	lfsr	2,1
  8098  002E64  5010               	movf	MFRC522_CRC3@dataOut^0,w,c
  8099  002E66  26D9               	addwf	fsr2l,f,c
  8100  002E68  5011               	movf	(MFRC522_CRC3@dataOut+1)^0,w,c
  8101  002E6A  22DA               	addwfc	fsr2h,f,c
  8102  002E6C  0E21               	movlw	33
  8103  002E6E  ECC8  F013         	call	_MFRC522_Rd3
  8104  002E72  6EDF               	movwf	indf2,c
  8105  002E74  0012               	return		;funcret
  8106  002E76                     __end_of_MFRC522_CRC3:
  8107                           	callstack 0
  8108                           
  8109 ;; *************** function _MFRC522_Set_Bit3 *****************
  8110 ;; Defined at:
  8111 ;;		line 253 in file "rc522.c"
  8112 ;; Parameters:    Size  Location     Type
  8113 ;;  addr            1    wreg     unsigned char 
  8114 ;;  mask            1    9[COMRAM] unsigned char 
  8115 ;; Auto vars:     Size  Location     Type
  8116 ;;  addr            1   11[COMRAM] unsigned char 
  8117 ;;  tmp             1   10[COMRAM] unsigned char 
  8118 ;; Return value:  Size  Location     Type
  8119 ;;                  1    wreg      void 
  8120 ;; Registers used:
  8121 ;;		wreg, status,2, status,0, cstack
  8122 ;; Tracked objects:
  8123 ;;		On entry : 0/0
  8124 ;;		On exit  : 0/0
  8125 ;;		Unchanged: 0/0
  8126 ;; Data sizes:     COMRAM   BANK0   BANK1   BANK2   BANK3   BANK4   BANK5   BANK6   BANK7
  8127 ;;      Params:         1       0       0       0       0       0       0       0       0
  8128 ;;      Locals:         2       0       0       0       0       0       0       0       0
  8129 ;;      Temps:          0       0       0       0       0       0       0       0       0
  8130 ;;      Totals:         3       0       0       0       0       0       0       0       0
  8131 ;;Total ram usage:        3 bytes
  8132 ;; Hardware stack levels used: 1
  8133 ;; Hardware stack levels required when called: 1
  8134 ;; This function calls:
  8135 ;;		_MFRC522_Rd3
  8136 ;;		_MFRC522_Wr3
  8137 ;; This function is called by:
  8138 ;;		_MFRC522_AntennaOn3
  8139 ;;		_MFRC522_ToCard3
  8140 ;;		_MFRC522_CRC3
  8141 ;; This function uses a non-reentrant model
  8142 ;;
  8143                           
  8144                           	psect	text49
  8145  003AAA                     __ptext49:
  8146                           	callstack 0
  8147  003AAA                     _MFRC522_Set_Bit3:
  8148                           	callstack 26
  8149                           
  8150                           ;incstack = 0
  8151                           ;MFRC522_Set_Bit3@addr stored from wreg
  8152  003AAA  6E0C               	movwf	MFRC522_Set_Bit3@addr^0,c
  8153  003AAC                     
  8154                           ;rc522.c: 256:     tmp = MFRC522_Rd3(addr);
  8155  003AAC  500C               	movf	MFRC522_Set_Bit3@addr^0,w,c
  8156  003AAE  ECC8  F013         	call	_MFRC522_Rd3
  8157  003AB2  6E0B               	movwf	MFRC522_Set_Bit3@tmp^0,c
  8158  003AB4                     
  8159                           ;rc522.c: 257:     MFRC522_Wr3(addr, tmp | mask);
  8160  003AB4  500B               	movf	MFRC522_Set_Bit3@tmp^0,w,c
  8161  003AB6  100A               	iorwf	MFRC522_Set_Bit3@mask^0,w,c
  8162  003AB8  6E01               	movwf	MFRC522_Wr3@value^0,c
  8163  003ABA  500C               	movf	MFRC522_Set_Bit3@addr^0,w,c
  8164  003ABC  EC75  F018         	call	_MFRC522_Wr3
  8165  003AC0  0012               	return		;funcret
  8166  003AC2                     __end_of_MFRC522_Set_Bit3:
  8167                           	callstack 0
  8168                           
  8169 ;; *************** function _MFRC522_Clear_Bit3 *****************
  8170 ;; Defined at:
  8171 ;;		line 224 in file "rc522.c"
  8172 ;; Parameters:    Size  Location     Type
  8173 ;;  addr            1    wreg     unsigned char 
  8174 ;;  mask            1    9[COMRAM] unsigned char 
  8175 ;; Auto vars:     Size  Location     Type
  8176 ;;  addr            1   11[COMRAM] unsigned char 
  8177 ;;  tmp             1   10[COMRAM] unsigned char 
  8178 ;; Return value:  Size  Location     Type
  8179 ;;                  1    wreg      void 
  8180 ;; Registers used:
  8181 ;;		wreg, status,2, status,0, cstack
  8182 ;; Tracked objects:
  8183 ;;		On entry : 0/0
  8184 ;;		On exit  : 0/0
  8185 ;;		Unchanged: 0/0
  8186 ;; Data sizes:     COMRAM   BANK0   BANK1   BANK2   BANK3   BANK4   BANK5   BANK6   BANK7
  8187 ;;      Params:         1       0       0       0       0       0       0       0       0
  8188 ;;      Locals:         2       0       0       0       0       0       0       0       0
  8189 ;;      Temps:          0       0       0       0       0       0       0       0       0
  8190 ;;      Totals:         3       0       0       0       0       0       0       0       0
  8191 ;;Total ram usage:        3 bytes
  8192 ;; Hardware stack levels used: 1
  8193 ;; Hardware stack levels required when called: 1
  8194 ;; This function calls:
  8195 ;;		_MFRC522_Rd3
  8196 ;;		_MFRC522_Wr3
  8197 ;; This function is called by:
  8198 ;;		_MFRC522_AntennaOff3
  8199 ;;		_MFRC522_ToCard3
  8200 ;;		_MFRC522_CRC3
  8201 ;;		_MFRC522_Halt3
  8202 ;;		_MFRC522_AntiColl3
  8203 ;; This function uses a non-reentrant model
  8204 ;;
  8205                           
  8206                           	psect	text50
  8207  003A44                     __ptext50:
  8208                           	callstack 0
  8209  003A44                     _MFRC522_Clear_Bit3:
  8210                           	callstack 26
  8211                           
  8212                           ;incstack = 0
  8213                           ;MFRC522_Clear_Bit3@addr stored from wreg
  8214  003A44  6E0C               	movwf	MFRC522_Clear_Bit3@addr^0,c
  8215  003A46                     
  8216                           ;rc522.c: 227:     tmp = MFRC522_Rd3(addr) ;
  8217  003A46  500C               	movf	MFRC522_Clear_Bit3@addr^0,w,c
  8218  003A48  ECC8  F013         	call	_MFRC522_Rd3
  8219  003A4C  6E0B               	movwf	MFRC522_Clear_Bit3@tmp^0,c
  8220  003A4E                     
  8221                           ;rc522.c: 228:     MFRC522_Wr3(addr, tmp&~mask);
  8222  003A4E  500A               	movf	MFRC522_Clear_Bit3@mask^0,w,c
  8223  003A50  0AFF               	xorlw	255
  8224  003A52  140B               	andwf	MFRC522_Clear_Bit3@tmp^0,w,c
  8225  003A54  6E01               	movwf	MFRC522_Wr3@value^0,c
  8226  003A56  500C               	movf	MFRC522_Clear_Bit3@addr^0,w,c
  8227  003A58  EC75  F018         	call	_MFRC522_Wr3
  8228  003A5C  0012               	return		;funcret
  8229  003A5E                     __end_of_MFRC522_Clear_Bit3:
  8230                           	callstack 0
  8231                           
  8232 ;; *************** function _MFRC522_Wr3 *****************
  8233 ;; Defined at:
  8234 ;;		line 160 in file "rc522.c"
  8235 ;; Parameters:    Size  Location     Type
  8236 ;;  address         1    wreg     unsigned char 
  8237 ;;  value           1    0[COMRAM] unsigned char 
  8238 ;; Auto vars:     Size  Location     Type
  8239 ;;  address         1    2[COMRAM] unsigned char 
  8240 ;;  i               1    4[COMRAM] unsigned char 
  8241 ;;  ucAddr          1    3[COMRAM] unsigned char 
  8242 ;; Return value:  Size  Location     Type
  8243 ;;                  1    wreg      void 
  8244 ;; Registers used:
  8245 ;;		wreg, status,2, status,0
  8246 ;; Tracked objects:
  8247 ;;		On entry : 0/0
  8248 ;;		On exit  : 0/0
  8249 ;;		Unchanged: 0/0
  8250 ;; Data sizes:     COMRAM   BANK0   BANK1   BANK2   BANK3   BANK4   BANK5   BANK6   BANK7
  8251 ;;      Params:         1       0       0       0       0       0       0       0       0
  8252 ;;      Locals:         3       0       0       0       0       0       0       0       0
  8253 ;;      Temps:          1       0       0       0       0       0       0       0       0
  8254 ;;      Totals:         5       0       0       0       0       0       0       0       0
  8255 ;;Total ram usage:        5 bytes
  8256 ;; Hardware stack levels used: 1
  8257 ;; This function calls:
  8258 ;;		Nothing
  8259 ;; This function is called by:
  8260 ;;		_MFRC522_Clear_Bit3
  8261 ;;		_MFRC522_Set_Bit3
  8262 ;;		_MFRC522_Reset
  8263 ;;		_MFRC522_Init
  8264 ;;		_MFRC522_ToCard3
  8265 ;;		_MFRC522_Request3
  8266 ;;		_MFRC522_CRC3
  8267 ;;		_MFRC522_AntiColl3
  8268 ;; This function uses a non-reentrant model
  8269 ;;
  8270                           
  8271                           	psect	text51
  8272  0030EA                     __ptext51:
  8273                           	callstack 0
  8274  0030EA                     _MFRC522_Wr3:
  8275                           	callstack 28
  8276                           
  8277                           ;incstack = 0
  8278                           ;MFRC522_Wr3@address stored from wreg
  8279  0030EA  6E03               	movwf	MFRC522_Wr3@address^0,c
  8280  0030EC                     
  8281                           ;rc522.c: 160: void MFRC522_Wr3(unsigned char address, unsigned char value);rc522.c: 161
      +                          : {;rc522.c: 162:     unsigned char i, ucAddr;;rc522.c: 163:     LATDbits.LD1 = 0;
  8282  0030EC  928C               	bcf	140,1,c	;volatile
  8283                           
  8284                           ;rc522.c: 164:     LATAbits.LA1 = 0;
  8285  0030EE  9289               	bcf	137,1,c	;volatile
  8286  0030F0                     
  8287                           ;rc522.c: 165:     ucAddr = ((address << 1) & 0x7E);
  8288  0030F0  5003               	movf	MFRC522_Wr3@address^0,w,c
  8289  0030F2  2403               	addwf	MFRC522_Wr3@address^0,w,c
  8290  0030F4  0B7E               	andlw	126
  8291  0030F6  6E04               	movwf	MFRC522_Wr3@ucAddr^0,c
  8292  0030F8                     
  8293                           ;rc522.c: 167:     for(i=8; i>0; i--)
  8294  0030F8  0E08               	movlw	8
  8295  0030FA  6E05               	movwf	MFRC522_Wr3@i^0,c
  8296  0030FC                     l3953:
  8297                           
  8298                           ;rc522.c: 168:     {;rc522.c: 169:         LATDbits.LD3 = ((ucAddr&0x80) == 0x80);
  8299  0030FC  BE04               	btfsc	MFRC522_Wr3@ucAddr^0,7,c
  8300  0030FE  EF83  F018         	goto	u3401
  8301  003102  EF87  F018         	goto	u3400
  8302  003106                     u3401:
  8303  003106  6A02               	clrf	??_MFRC522_Wr3^0,c
  8304  003108  2A02               	incf	??_MFRC522_Wr3^0,f,c
  8305  00310A  EF88  F018         	goto	u3418
  8306  00310E                     u3400:
  8307  00310E  6A02               	clrf	??_MFRC522_Wr3^0,c
  8308  003110                     u3418:
  8309  003110  4602               	rlncf	??_MFRC522_Wr3^0,f,c
  8310  003112  4602               	rlncf	??_MFRC522_Wr3^0,f,c
  8311  003114  4602               	rlncf	??_MFRC522_Wr3^0,f,c
  8312  003116  508C               	movf	140,w,c	;volatile
  8313  003118  1802               	xorwf	??_MFRC522_Wr3^0,w,c
  8314  00311A  0BF7               	andlw	-9
  8315  00311C  1802               	xorwf	??_MFRC522_Wr3^0,w,c
  8316  00311E  6E8C               	movwf	140,c	;volatile
  8317  003120                     
  8318                           ;rc522.c: 170:         LATDbits.LD1 = 1;
  8319  003120  828C               	bsf	140,1,c	;volatile
  8320                           
  8321                           ;rc522.c: 171:         ucAddr <<= 1;
  8322  003122  90D8               	bcf	status,0,c
  8323  003124  3604               	rlcf	MFRC522_Wr3@ucAddr^0,f,c
  8324  003126                     
  8325                           ;rc522.c: 172:         LATDbits.LD1 = 0;
  8326  003126  928C               	bcf	140,1,c	;volatile
  8327  003128                     
  8328                           ;rc522.c: 173:     }
  8329  003128  0605               	decf	MFRC522_Wr3@i^0,f,c
  8330  00312A  5005               	movf	MFRC522_Wr3@i^0,w,c
  8331  00312C  A4D8               	btfss	status,2,c
  8332  00312E  EF9B  F018         	goto	u3421
  8333  003132  EF9D  F018         	goto	u3420
  8334  003136                     u3421:
  8335  003136  EF7E  F018         	goto	l3953
  8336  00313A                     u3420:
  8337  00313A                     
  8338                           ;rc522.c: 174:     for(i=8; i>0; i--)
  8339  00313A  0E08               	movlw	8
  8340  00313C  6E05               	movwf	MFRC522_Wr3@i^0,c
  8341  00313E                     l3967:
  8342                           
  8343                           ;rc522.c: 175:     {;rc522.c: 176:         LATDbits.LD3 = ((value&0x80) == 0x80);
  8344  00313E  BE01               	btfsc	MFRC522_Wr3@value^0,7,c
  8345  003140  EFA4  F018         	goto	u3431
  8346  003144  EFA8  F018         	goto	u3430
  8347  003148                     u3431:
  8348  003148  6A02               	clrf	??_MFRC522_Wr3^0,c
  8349  00314A  2A02               	incf	??_MFRC522_Wr3^0,f,c
  8350  00314C  EFA9  F018         	goto	u3448
  8351  003150                     u3430:
  8352  003150  6A02               	clrf	??_MFRC522_Wr3^0,c
  8353  003152                     u3448:
  8354  003152  4602               	rlncf	??_MFRC522_Wr3^0,f,c
  8355  003154  4602               	rlncf	??_MFRC522_Wr3^0,f,c
  8356  003156  4602               	rlncf	??_MFRC522_Wr3^0,f,c
  8357  003158  508C               	movf	140,w,c	;volatile
  8358  00315A  1802               	xorwf	??_MFRC522_Wr3^0,w,c
  8359  00315C  0BF7               	andlw	-9
  8360  00315E  1802               	xorwf	??_MFRC522_Wr3^0,w,c
  8361  003160  6E8C               	movwf	140,c	;volatile
  8362  003162                     
  8363                           ;rc522.c: 177:         LATDbits.LD1 = 1;
  8364  003162  828C               	bsf	140,1,c	;volatile
  8365                           
  8366                           ;rc522.c: 178:         value <<= 1;
  8367  003164  90D8               	bcf	status,0,c
  8368  003166  3601               	rlcf	MFRC522_Wr3@value^0,f,c
  8369  003168                     
  8370                           ;rc522.c: 179:         LATDbits.LD1 = 0;
  8371  003168  928C               	bcf	140,1,c	;volatile
  8372  00316A                     
  8373                           ;rc522.c: 180:     }
  8374  00316A  0605               	decf	MFRC522_Wr3@i^0,f,c
  8375  00316C  5005               	movf	MFRC522_Wr3@i^0,w,c
  8376  00316E  A4D8               	btfss	status,2,c
  8377  003170  EFBC  F018         	goto	u3451
  8378  003174  EFBE  F018         	goto	u3450
  8379  003178                     u3451:
  8380  003178  EF9F  F018         	goto	l3967
  8381  00317C                     u3450:
  8382  00317C                     
  8383                           ;rc522.c: 181:     LATAbits.LA1 = 1;
  8384  00317C  8289               	bsf	137,1,c	;volatile
  8385                           
  8386                           ;rc522.c: 182:     LATDbits.LD1 = 1;
  8387  00317E  828C               	bsf	140,1,c	;volatile
  8388  003180  0012               	return		;funcret
  8389  003182                     __end_of_MFRC522_Wr3:
  8390                           	callstack 0
  8391                           
  8392 ;; *************** function _MFRC522_Rd3 *****************
  8393 ;; Defined at:
  8394 ;;		line 56 in file "rc522.c"
  8395 ;; Parameters:    Size  Location     Type
  8396 ;;  address         1    wreg     unsigned char 
  8397 ;; Auto vars:     Size  Location     Type
  8398 ;;  address         1    2[COMRAM] unsigned char 
  8399 ;;  i               2    7[COMRAM] unsigned int 
  8400 ;;  ucResult        2    5[COMRAM] unsigned int 
  8401 ;;  ucAddr          2    3[COMRAM] unsigned int 
  8402 ;; Return value:  Size  Location     Type
  8403 ;;                  1    wreg      unsigned char 
  8404 ;; Registers used:
  8405 ;;		wreg, status,2, status,0
  8406 ;; Tracked objects:
  8407 ;;		On entry : 0/0
  8408 ;;		On exit  : 0/0
  8409 ;;		Unchanged: 0/0
  8410 ;; Data sizes:     COMRAM   BANK0   BANK1   BANK2   BANK3   BANK4   BANK5   BANK6   BANK7
  8411 ;;      Params:         0       0       0       0       0       0       0       0       0
  8412 ;;      Locals:         7       0       0       0       0       0       0       0       0
  8413 ;;      Temps:          2       0       0       0       0       0       0       0       0
  8414 ;;      Totals:         9       0       0       0       0       0       0       0       0
  8415 ;;Total ram usage:        9 bytes
  8416 ;; Hardware stack levels used: 1
  8417 ;; This function calls:
  8418 ;;		Nothing
  8419 ;; This function is called by:
  8420 ;;		_MFRC522_Clear_Bit3
  8421 ;;		_MFRC522_Set_Bit3
  8422 ;;		_MFRC522_AntennaOn3
  8423 ;;		_MFRC522_ToCard3
  8424 ;;		_MFRC522_CRC3
  8425 ;; This function uses a non-reentrant model
  8426 ;;
  8427                           
  8428                           	psect	text52
  8429  002790                     __ptext52:
  8430                           	callstack 0
  8431  002790                     _MFRC522_Rd3:
  8432                           	callstack 26
  8433                           
  8434                           ;incstack = 0
  8435                           ;MFRC522_Rd3@address stored from wreg
  8436  002790  6E03               	movwf	MFRC522_Rd3@address^0,c
  8437  002792                     
  8438                           ;rc522.c: 56: unsigned char MFRC522_Rd3(unsigned char address);rc522.c: 57: {;rc522.c: 5
      +                          8:     unsigned int i, ucAddr;;rc522.c: 59:     unsigned int ucResult = 0;
  8439  002792  0E00               	movlw	0
  8440  002794  6E07               	movwf	(MFRC522_Rd3@ucResult+1)^0,c
  8441  002796  0E00               	movlw	0
  8442  002798  6E06               	movwf	MFRC522_Rd3@ucResult^0,c
  8443  00279A                     
  8444                           ;rc522.c: 60:     LATDbits.LD1 = 0;
  8445  00279A  928C               	bcf	140,1,c	;volatile
  8446  00279C                     
  8447                           ;rc522.c: 61:     LATAbits.LA1 = 0;
  8448  00279C  9289               	bcf	137,1,c	;volatile
  8449  00279E                     
  8450                           ;rc522.c: 62:     ucAddr = ((address << 1) & 0x7E) | 0x80;
  8451  00279E  5003               	movf	MFRC522_Rd3@address^0,w,c
  8452  0027A0  2403               	addwf	MFRC522_Rd3@address^0,w,c
  8453  0027A2  0B7E               	andlw	126
  8454  0027A4  6E01               	movwf	??_MFRC522_Rd3^0,c
  8455  0027A6  6A02               	clrf	(??_MFRC522_Rd3+1)^0,c
  8456  0027A8  0E80               	movlw	128
  8457  0027AA  1001               	iorwf	??_MFRC522_Rd3^0,w,c
  8458  0027AC  6E04               	movwf	MFRC522_Rd3@ucAddr^0,c
  8459  0027AE  5002               	movf	(??_MFRC522_Rd3+1)^0,w,c
  8460  0027B0  6E05               	movwf	(MFRC522_Rd3@ucAddr+1)^0,c
  8461  0027B2                     
  8462                           ;rc522.c: 64:     for(i=8; i>0; i--)
  8463  0027B2  0E00               	movlw	0
  8464  0027B4  6E09               	movwf	(MFRC522_Rd3@i+1)^0,c
  8465  0027B6  0E08               	movlw	8
  8466  0027B8  6E08               	movwf	MFRC522_Rd3@i^0,c
  8467  0027BA                     l3847:
  8468                           
  8469                           ;rc522.c: 65:     {;rc522.c: 66:         LATDbits.LD3 = ((ucAddr & 0x80) == 0x80);
  8470  0027BA  BE04               	btfsc	MFRC522_Rd3@ucAddr^0,7,c
  8471  0027BC  EFE2  F013         	goto	u3231
  8472  0027C0  EFE6  F013         	goto	u3230
  8473  0027C4                     u3231:
  8474  0027C4  6A01               	clrf	??_MFRC522_Rd3^0,c
  8475  0027C6  2A01               	incf	??_MFRC522_Rd3^0,f,c
  8476  0027C8  EFE7  F013         	goto	u3248
  8477  0027CC                     u3230:
  8478  0027CC  6A01               	clrf	??_MFRC522_Rd3^0,c
  8479  0027CE                     u3248:
  8480  0027CE  4601               	rlncf	??_MFRC522_Rd3^0,f,c
  8481  0027D0  4601               	rlncf	??_MFRC522_Rd3^0,f,c
  8482  0027D2  4601               	rlncf	??_MFRC522_Rd3^0,f,c
  8483  0027D4  508C               	movf	140,w,c	;volatile
  8484  0027D6  1801               	xorwf	??_MFRC522_Rd3^0,w,c
  8485  0027D8  0BF7               	andlw	-9
  8486  0027DA  1801               	xorwf	??_MFRC522_Rd3^0,w,c
  8487  0027DC  6E8C               	movwf	140,c	;volatile
  8488  0027DE                     
  8489                           ;rc522.c: 67:         LATDbits.LD1 = 1;
  8490  0027DE  828C               	bsf	140,1,c	;volatile
  8491  0027E0                     
  8492                           ;rc522.c: 68:         ucAddr <<= 1;
  8493  0027E0  90D8               	bcf	status,0,c
  8494  0027E2  3604               	rlcf	MFRC522_Rd3@ucAddr^0,f,c
  8495  0027E4  3605               	rlcf	(MFRC522_Rd3@ucAddr+1)^0,f,c
  8496  0027E6                     
  8497                           ;rc522.c: 69:         LATDbits.LD1 = 0;
  8498  0027E6  928C               	bcf	140,1,c	;volatile
  8499  0027E8                     
  8500                           ;rc522.c: 70:     }
  8501  0027E8  0608               	decf	MFRC522_Rd3@i^0,f,c
  8502  0027EA  A0D8               	btfss	status,0,c
  8503  0027EC  0609               	decf	(MFRC522_Rd3@i+1)^0,f,c
  8504  0027EE  5008               	movf	MFRC522_Rd3@i^0,w,c
  8505  0027F0  1009               	iorwf	(MFRC522_Rd3@i+1)^0,w,c
  8506  0027F2  A4D8               	btfss	status,2,c
  8507  0027F4  EFFE  F013         	goto	u3251
  8508  0027F8  EF00  F014         	goto	u3250
  8509  0027FC                     u3251:
  8510  0027FC  EFDD  F013         	goto	l3847
  8511  002800                     u3250:
  8512  002800                     
  8513                           ;rc522.c: 71:     for(i=8; i>0; i--)
  8514  002800  0E00               	movlw	0
  8515  002802  6E09               	movwf	(MFRC522_Rd3@i+1)^0,c
  8516  002804  0E08               	movlw	8
  8517  002806  6E08               	movwf	MFRC522_Rd3@i^0,c
  8518  002808                     l289:
  8519                           
  8520                           ;rc522.c: 72:     {;rc522.c: 73:         LATDbits.LD1 = 1;
  8521  002808  828C               	bsf	140,1,c	;volatile
  8522  00280A                     
  8523                           ;rc522.c: 74:         ucResult <<= 1;
  8524  00280A  90D8               	bcf	status,0,c
  8525  00280C  3606               	rlcf	MFRC522_Rd3@ucResult^0,f,c
  8526  00280E  3607               	rlcf	(MFRC522_Rd3@ucResult+1)^0,f,c
  8527  002810                     
  8528                           ;rc522.c: 75:         ucResult |= (short)PORTDbits.RD2;
  8529  002810  B483               	btfsc	131,2,c	;volatile
  8530  002812  EF0D  F014         	goto	u3261
  8531  002816  EF11  F014         	goto	u3260
  8532  00281A                     u3261:
  8533  00281A  6A01               	clrf	??_MFRC522_Rd3^0,c
  8534  00281C  2A01               	incf	??_MFRC522_Rd3^0,f,c
  8535  00281E  EF12  F014         	goto	u3268
  8536  002822                     u3260:
  8537  002822  6A01               	clrf	??_MFRC522_Rd3^0,c
  8538  002824                     u3268:
  8539  002824  5001               	movf	??_MFRC522_Rd3^0,w,c
  8540  002826  1206               	iorwf	MFRC522_Rd3@ucResult^0,f,c
  8541  002828                     
  8542                           ;rc522.c: 76:         LATDbits.LD1 = 0;
  8543  002828  928C               	bcf	140,1,c	;volatile
  8544  00282A                     
  8545                           ;rc522.c: 77:     }
  8546  00282A  0608               	decf	MFRC522_Rd3@i^0,f,c
  8547  00282C  A0D8               	btfss	status,0,c
  8548  00282E  0609               	decf	(MFRC522_Rd3@i+1)^0,f,c
  8549  002830  5008               	movf	MFRC522_Rd3@i^0,w,c
  8550  002832  1009               	iorwf	(MFRC522_Rd3@i+1)^0,w,c
  8551  002834  A4D8               	btfss	status,2,c
  8552  002836  EF1F  F014         	goto	u3271
  8553  00283A  EF21  F014         	goto	u3270
  8554  00283E                     u3271:
  8555  00283E  EF04  F014         	goto	l289
  8556  002842                     u3270:
  8557  002842                     
  8558                           ;rc522.c: 78:     LATAbits.LA1 = 1;
  8559  002842  8289               	bsf	137,1,c	;volatile
  8560                           
  8561                           ;rc522.c: 79:     LATDbits.LD1 = 1;
  8562  002844  828C               	bsf	140,1,c	;volatile
  8563  002846                     
  8564                           ;rc522.c: 80:     return ucResult;
  8565  002846  5006               	movf	MFRC522_Rd3@ucResult^0,w,c
  8566  002848  0012               	return		;funcret
  8567  00284A                     __end_of_MFRC522_Rd3:
  8568                           	callstack 0
  8569                           
  8570 ;; *************** function _MFRC522_Halt2 *****************
  8571 ;; Defined at:
  8572 ;;		line 1031 in file "rc522.c"
  8573 ;; Parameters:    Size  Location     Type
  8574 ;;		None
  8575 ;; Auto vars:     Size  Location     Type
  8576 ;;  buff            4   31[COMRAM] unsigned char [4]
  8577 ;;  unLen           2   35[COMRAM] unsigned int 
  8578 ;; Return value:  Size  Location     Type
  8579 ;;                  1    wreg      void 
  8580 ;; Registers used:
  8581 ;;		wreg, fsr2l, fsr2h, status,2, status,0, prodl, prodh, cstack
  8582 ;; Tracked objects:
  8583 ;;		On entry : 0/0
  8584 ;;		On exit  : 0/0
  8585 ;;		Unchanged: 0/0
  8586 ;; Data sizes:     COMRAM   BANK0   BANK1   BANK2   BANK3   BANK4   BANK5   BANK6   BANK7
  8587 ;;      Params:         0       0       0       0       0       0       0       0       0
  8588 ;;      Locals:         6       0       0       0       0       0       0       0       0
  8589 ;;      Temps:          0       0       0       0       0       0       0       0       0
  8590 ;;      Totals:         6       0       0       0       0       0       0       0       0
  8591 ;;Total ram usage:        6 bytes
  8592 ;; Hardware stack levels used: 1
  8593 ;; Hardware stack levels required when called: 3
  8594 ;; This function calls:
  8595 ;;		_MFRC522_CRC2
  8596 ;;		_MFRC522_Clear_Bit2
  8597 ;;		_MFRC522_ToCard2
  8598 ;; This function is called by:
  8599 ;;		_main
  8600 ;; This function uses a non-reentrant model
  8601 ;;
  8602                           
  8603                           	psect	text53
  8604  0035D6                     __ptext53:
  8605                           	callstack 0
  8606  0035D6                     _MFRC522_Halt2:
  8607                           	callstack 27
  8608  0035D6                     
  8609                           ;rc522.c: 1033:     unsigned unLen;;rc522.c: 1034:     char buff[4];;rc522.c: 1035:     
      +                          buff[0] = 0x50;
  8610  0035D6  0E50               	movlw	80
  8611  0035D8  6E20               	movwf	MFRC522_Halt2@buff^0,c
  8612                           
  8613                           ;rc522.c: 1036:     buff[1] = 0;
  8614  0035DA  0E00               	movlw	0
  8615  0035DC  6E21               	movwf	(MFRC522_Halt2@buff+1)^0,c
  8616  0035DE                     
  8617                           ;rc522.c: 1037:     MFRC522_CRC2(buff, 2, &buff[2]);
  8618  0035DE  0E20               	movlw	low MFRC522_Halt2@buff
  8619  0035E0  6E0D               	movwf	MFRC522_CRC2@dataIn^0,c
  8620  0035E2  0E00               	movlw	high MFRC522_Halt2@buff
  8621  0035E4  6E0E               	movwf	(MFRC522_CRC2@dataIn+1)^0,c
  8622  0035E6  0E02               	movlw	2
  8623  0035E8  6E0F               	movwf	MFRC522_CRC2@length^0,c
  8624  0035EA  0E22               	movlw	low (MFRC522_Halt2@buff+2)
  8625  0035EC  6E10               	movwf	MFRC522_CRC2@dataOut^0,c
  8626  0035EE  0E00               	movlw	high (MFRC522_Halt2@buff+2)
  8627  0035F0  6E11               	movwf	(MFRC522_CRC2@dataOut+1)^0,c
  8628  0035F2  EC3B  F017         	call	_MFRC522_CRC2	;wreg free
  8629  0035F6                     
  8630                           ;rc522.c: 1038:     MFRC522_Clear_Bit2(0x08, 0x80);
  8631  0035F6  0E80               	movlw	128
  8632  0035F8  6E0A               	movwf	MFRC522_Clear_Bit2@mask^0,c
  8633  0035FA  0E08               	movlw	8
  8634  0035FC  EC2F  F01D         	call	_MFRC522_Clear_Bit2
  8635  003600                     
  8636                           ;rc522.c: 1039:     MFRC522_ToCard2(0x0C, buff, 4, buff, &unLen);
  8637  003600  0E20               	movlw	low MFRC522_Halt2@buff
  8638  003602  6E0D               	movwf	MFRC522_ToCard2@sendData^0,c
  8639  003604  0E00               	movlw	high MFRC522_Halt2@buff
  8640  003606  6E0E               	movwf	(MFRC522_ToCard2@sendData+1)^0,c
  8641  003608  0E04               	movlw	4
  8642  00360A  6E0F               	movwf	MFRC522_ToCard2@sendLen^0,c
  8643  00360C  0E20               	movlw	low MFRC522_Halt2@buff
  8644  00360E  6E10               	movwf	MFRC522_ToCard2@backData^0,c
  8645  003610  0E00               	movlw	high MFRC522_Halt2@buff
  8646  003612  6E11               	movwf	(MFRC522_ToCard2@backData+1)^0,c
  8647  003614  0E24               	movlw	low MFRC522_Halt2@unLen
  8648  003616  6E12               	movwf	MFRC522_ToCard2@backLen^0,c
  8649  003618  0E00               	movlw	high MFRC522_Halt2@unLen
  8650  00361A  6E13               	movwf	(MFRC522_ToCard2@backLen+1)^0,c
  8651  00361C  0E0C               	movlw	12
  8652  00361E  ECBF  F00C         	call	_MFRC522_ToCard2
  8653  003622                     
  8654                           ;rc522.c: 1040:     MFRC522_Clear_Bit2(0x08, 0x08);
  8655  003622  0E08               	movlw	8
  8656  003624  6E0A               	movwf	MFRC522_Clear_Bit2@mask^0,c
  8657  003626  0E08               	movlw	8
  8658  003628  EC2F  F01D         	call	_MFRC522_Clear_Bit2
  8659  00362C  0012               	return		;funcret
  8660  00362E                     __end_of_MFRC522_Halt2:
  8661                           	callstack 0
  8662                           
  8663 ;; *************** function _MFRC522_ToCard2 *****************
  8664 ;; Defined at:
  8665 ;;		line 501 in file "rc522.c"
  8666 ;; Parameters:    Size  Location     Type
  8667 ;;  command         1    wreg     unsigned char 
  8668 ;;  sendData        2   12[COMRAM] PTR unsigned char 
  8669 ;;		 -> MFRC522_Halt2@buff(4), MFRC522_SelectTag2@buffer(9), UID_2(20), TagType2(1), 
  8670 ;;  sendLen         1   14[COMRAM] unsigned char 
  8671 ;;  backData        2   15[COMRAM] PTR unsigned char 
  8672 ;;		 -> MFRC522_Halt2@buff(4), MFRC522_SelectTag2@buffer(9), UID_2(20), TagType2(1), 
  8673 ;;  backLen         2   17[COMRAM] PTR unsigned int 
  8674 ;;		 -> MFRC522_AntiColl2@unLen(2), MFRC522_Halt2@unLen(2), MFRC522_SelectTag2@recvBits(2), MFRC522_Request2@backBits(2)
      +, 
  8675 ;; Auto vars:     Size  Location     Type
  8676 ;;  command         1   27[COMRAM] unsigned char 
  8677 ;;  i               2   28[COMRAM] unsigned int 
  8678 ;;  n               1   30[COMRAM] unsigned char 
  8679 ;;  irqEn           1   26[COMRAM] unsigned char 
  8680 ;;  lastBits        1   25[COMRAM] unsigned char 
  8681 ;;  _status         1   24[COMRAM] unsigned char 
  8682 ;;  waitIRq         1   23[COMRAM] unsigned char 
  8683 ;; Return value:  Size  Location     Type
  8684 ;;                  1    wreg      unsigned char 
  8685 ;; Registers used:
  8686 ;;		wreg, fsr2l, fsr2h, status,2, status,0, prodl, prodh, cstack
  8687 ;; Tracked objects:
  8688 ;;		On entry : 0/0
  8689 ;;		On exit  : 0/0
  8690 ;;		Unchanged: 0/0
  8691 ;; Data sizes:     COMRAM   BANK0   BANK1   BANK2   BANK3   BANK4   BANK5   BANK6   BANK7
  8692 ;;      Params:         7       0       0       0       0       0       0       0       0
  8693 ;;      Locals:         8       0       0       0       0       0       0       0       0
  8694 ;;      Temps:          4       0       0       0       0       0       0       0       0
  8695 ;;      Totals:        19       0       0       0       0       0       0       0       0
  8696 ;;Total ram usage:       19 bytes
  8697 ;; Hardware stack levels used: 1
  8698 ;; Hardware stack levels required when called: 2
  8699 ;; This function calls:
  8700 ;;		_MFRC522_Clear_Bit2
  8701 ;;		_MFRC522_Rd2
  8702 ;;		_MFRC522_Set_Bit2
  8703 ;;		_MFRC522_Wr2
  8704 ;; This function is called by:
  8705 ;;		_MFRC522_Request2
  8706 ;;		_MFRC522_Halt2
  8707 ;;		_MFRC522_AntiColl2
  8708 ;;		_MFRC522_SelectTag2
  8709 ;; This function uses a non-reentrant model
  8710 ;;
  8711                           
  8712                           	psect	text54
  8713  00197E                     __ptext54:
  8714                           	callstack 0
  8715  00197E                     _MFRC522_ToCard2:
  8716                           	callstack 26
  8717                           
  8718                           ;incstack = 0
  8719                           ;MFRC522_ToCard2@command stored from wreg
  8720  00197E  6E1C               	movwf	MFRC522_ToCard2@command^0,c
  8721  001980                     
  8722                           ;rc522.c: 501: char MFRC522_ToCard2(char command, char *sendData, char sendLen, char *ba
      +                          ckData, unsigned *backLen);rc522.c: 502: {;rc522.c: 503:     char _status = 2;
  8723  001980  0E02               	movlw	2
  8724  001982  6E19               	movwf	MFRC522_ToCard2@_status^0,c
  8725                           
  8726                           ;rc522.c: 504:     char irqEn = 0x00;
  8727  001984  0E00               	movlw	0
  8728  001986  6E1B               	movwf	MFRC522_ToCard2@irqEn^0,c
  8729                           
  8730                           ;rc522.c: 505:     char waitIRq = 0x00;
  8731  001988  0E00               	movlw	0
  8732  00198A  6E18               	movwf	MFRC522_ToCard2@waitIRq^0,c
  8733                           
  8734                           ;rc522.c: 506:     char lastBits;;rc522.c: 507:     char n;;rc522.c: 508:     unsigned i
      +                          ;;rc522.c: 510:     switch(command)
  8735  00198C  EFD4  F00C         	goto	l4313
  8736  001990                     l4307:
  8737                           
  8738                           ;rc522.c: 513:             irqEn = 0x12;
  8739  001990  0E12               	movlw	18
  8740  001992  6E1B               	movwf	MFRC522_ToCard2@irqEn^0,c
  8741                           
  8742                           ;rc522.c: 514:             waitIRq = 0x10;
  8743  001994  0E10               	movlw	16
  8744  001996  6E18               	movwf	MFRC522_ToCard2@waitIRq^0,c
  8745                           
  8746                           ;rc522.c: 515:             break;
  8747  001998  EFE9  F00C         	goto	l4315
  8748  00199C                     l4309:
  8749                           
  8750                           ;rc522.c: 518:             irqEn = 0x77;
  8751  00199C  0E77               	movlw	119
  8752  00199E  6E1B               	movwf	MFRC522_ToCard2@irqEn^0,c
  8753                           
  8754                           ;rc522.c: 519:             waitIRq = 0x30;
  8755  0019A0  0E30               	movlw	48
  8756  0019A2  6E18               	movwf	MFRC522_ToCard2@waitIRq^0,c
  8757                           
  8758                           ;rc522.c: 520:             break;
  8759  0019A4  EFE9  F00C         	goto	l4315
  8760  0019A8                     l4313:
  8761  0019A8  501C               	movf	MFRC522_ToCard2@command^0,w,c
  8762  0019AA  6E14               	movwf	??_MFRC522_ToCard2^0,c
  8763  0019AC  6A15               	clrf	(??_MFRC522_ToCard2+1)^0,c
  8764                           
  8765                           ; Switch on 2 bytes has been partitioned into a top level switch of size 1, and 1 sub-sw
      +                          itches
  8766                           ; Switch size 1, requested type "simple"
  8767                           ; Number of cases is 1, Range of values is 0 to 0
  8768                           ; switch strategies available:
  8769                           ; Name         Instructions Cycles
  8770                           ; simple_byte            4     3 (average)
  8771                           ;	Chosen strategy is simple_byte
  8772  0019AE  5015               	movf	(??_MFRC522_ToCard2+1)^0,w,c
  8773  0019B0  0A00               	xorlw	0	; case 0
  8774  0019B2  B4D8               	btfsc	status,2,c
  8775  0019B4  EFDE  F00C         	goto	l5941
  8776  0019B8  EFE9  F00C         	goto	l4315
  8777  0019BC                     l5941:
  8778                           
  8779                           ; Switch size 1, requested type "simple"
  8780                           ; Number of cases is 2, Range of values is 12 to 14
  8781                           ; switch strategies available:
  8782                           ; Name         Instructions Cycles
  8783                           ; simple_byte            7     4 (average)
  8784                           ;	Chosen strategy is simple_byte
  8785  0019BC  5014               	movf	??_MFRC522_ToCard2^0,w,c
  8786  0019BE  0A0C               	xorlw	12	; case 12
  8787  0019C0  B4D8               	btfsc	status,2,c
  8788  0019C2  EFCE  F00C         	goto	l4309
  8789  0019C6  0A02               	xorlw	2	; case 14
  8790  0019C8  B4D8               	btfsc	status,2,c
  8791  0019CA  EFC8  F00C         	goto	l4307
  8792  0019CE  EFE9  F00C         	goto	l4315
  8793  0019D2                     l4315:
  8794                           
  8795                           ;rc522.c: 525:     MFRC522_Wr2(0x02, irqEn | 0x80);
  8796  0019D2  501B               	movf	MFRC522_ToCard2@irqEn^0,w,c
  8797  0019D4  0980               	iorlw	128
  8798  0019D6  6E01               	movwf	MFRC522_Wr2@value^0,c
  8799  0019D8  0E02               	movlw	2
  8800  0019DA  ECC1  F018         	call	_MFRC522_Wr2
  8801                           
  8802                           ;rc522.c: 526:     MFRC522_Clear_Bit2(0x04, 0x80);
  8803  0019DE  0E80               	movlw	128
  8804  0019E0  6E0A               	movwf	MFRC522_Clear_Bit2@mask^0,c
  8805  0019E2  0E04               	movlw	4
  8806  0019E4  EC2F  F01D         	call	_MFRC522_Clear_Bit2
  8807                           
  8808                           ;rc522.c: 527:     MFRC522_Set_Bit2(0x0A, 0x80);
  8809  0019E8  0E80               	movlw	128
  8810  0019EA  6E0A               	movwf	MFRC522_Set_Bit2@mask^0,c
  8811  0019EC  0E0A               	movlw	10
  8812  0019EE  EC61  F01D         	call	_MFRC522_Set_Bit2
  8813                           
  8814                           ;rc522.c: 528:     MFRC522_Wr2(0x01, 0x00);
  8815  0019F2  0E00               	movlw	0
  8816  0019F4  6E01               	movwf	MFRC522_Wr2@value^0,c
  8817  0019F6  0E01               	movlw	1
  8818  0019F8  ECC1  F018         	call	_MFRC522_Wr2
  8819  0019FC                     
  8820                           ;rc522.c: 530:     for(i=0; i<sendLen; i++)
  8821  0019FC  0E00               	movlw	0
  8822  0019FE  6E1E               	movwf	(MFRC522_ToCard2@i+1)^0,c
  8823  001A00  0E00               	movlw	0
  8824  001A02  6E1D               	movwf	MFRC522_ToCard2@i^0,c
  8825  001A04  EF11  F00D         	goto	l4323
  8826  001A08                     l4319:
  8827                           
  8828                           ;rc522.c: 531:     {;rc522.c: 532:         MFRC522_Wr2(0x09, sendData[i]);
  8829  001A08  501D               	movf	MFRC522_ToCard2@i^0,w,c
  8830  001A0A  240D               	addwf	MFRC522_ToCard2@sendData^0,w,c
  8831  001A0C  6ED9               	movwf	fsr2l,c
  8832  001A0E  501E               	movf	(MFRC522_ToCard2@i+1)^0,w,c
  8833  001A10  200E               	addwfc	(MFRC522_ToCard2@sendData+1)^0,w,c
  8834  001A12  6EDA               	movwf	fsr2h,c
  8835  001A14  50DF               	movf	indf2,w,c
  8836  001A16  6E01               	movwf	MFRC522_Wr2@value^0,c
  8837  001A18  0E09               	movlw	9
  8838  001A1A  ECC1  F018         	call	_MFRC522_Wr2
  8839  001A1E                     
  8840                           ;rc522.c: 533:     }
  8841  001A1E  4A1D               	infsnz	MFRC522_ToCard2@i^0,f,c
  8842  001A20  2A1E               	incf	(MFRC522_ToCard2@i+1)^0,f,c
  8843  001A22                     l4323:
  8844  001A22  500F               	movf	MFRC522_ToCard2@sendLen^0,w,c
  8845  001A24  6E14               	movwf	??_MFRC522_ToCard2^0,c
  8846  001A26  6A15               	clrf	(??_MFRC522_ToCard2+1)^0,c
  8847  001A28  5014               	movf	??_MFRC522_ToCard2^0,w,c
  8848  001A2A  5C1D               	subwf	MFRC522_ToCard2@i^0,w,c
  8849  001A2C  5015               	movf	(??_MFRC522_ToCard2+1)^0,w,c
  8850  001A2E  581E               	subwfb	(MFRC522_ToCard2@i+1)^0,w,c
  8851  001A30  A0D8               	btfss	status,0,c
  8852  001A32  EF1D  F00D         	goto	u3921
  8853  001A36  EF1F  F00D         	goto	u3920
  8854  001A3A                     u3921:
  8855  001A3A  EF04  F00D         	goto	l4319
  8856  001A3E                     u3920:
  8857  001A3E                     
  8858                           ;rc522.c: 534:     MFRC522_Wr2(0x01, command);
  8859  001A3E  C01C  F001         	movff	MFRC522_ToCard2@command,MFRC522_Wr2@value
  8860  001A42  0E01               	movlw	1
  8861  001A44  ECC1  F018         	call	_MFRC522_Wr2
  8862  001A48                     
  8863                           ;rc522.c: 535:     if(command == 0x0C)
  8864  001A48  0E0C               	movlw	12
  8865  001A4A  181C               	xorwf	MFRC522_ToCard2@command^0,w,c
  8866  001A4C  A4D8               	btfss	status,2,c
  8867  001A4E  EF2B  F00D         	goto	u3931
  8868  001A52  EF2D  F00D         	goto	u3930
  8869  001A56                     u3931:
  8870  001A56  EF32  F00D         	goto	l4331
  8871  001A5A                     u3930:
  8872  001A5A                     
  8873                           ;rc522.c: 536:     {;rc522.c: 537:         MFRC522_Set_Bit2(0x0D, 0x80);
  8874  001A5A  0E80               	movlw	128
  8875  001A5C  6E0A               	movwf	MFRC522_Set_Bit2@mask^0,c
  8876  001A5E  0E0D               	movlw	13
  8877  001A60  EC61  F01D         	call	_MFRC522_Set_Bit2
  8878  001A64                     l4331:
  8879                           
  8880                           ;rc522.c: 539:     i = 0xFFFF;
  8881  001A64  681D               	setf	MFRC522_ToCard2@i^0,c
  8882  001A66  681E               	setf	(MFRC522_ToCard2@i+1)^0,c
  8883  001A68                     l420:
  8884                           
  8885                           ;rc522.c: 541:     {;rc522.c: 542:         n = MFRC522_Rd2(0x04);
  8886  001A68  0E04               	movlw	4
  8887  001A6A  EC25  F014         	call	_MFRC522_Rd2
  8888  001A6E  6E1F               	movwf	MFRC522_ToCard2@n^0,c
  8889  001A70                     
  8890                           ;rc522.c: 543:         i--;
  8891  001A70  061D               	decf	MFRC522_ToCard2@i^0,f,c
  8892  001A72  A0D8               	btfss	status,0,c
  8893  001A74  061E               	decf	(MFRC522_ToCard2@i+1)^0,f,c
  8894  001A76                     
  8895                           ;rc522.c: 544:     }while(i && !(n & 0x01) && !(n & waitIRq));
  8896  001A76  501D               	movf	MFRC522_ToCard2@i^0,w,c
  8897  001A78  101E               	iorwf	(MFRC522_ToCard2@i+1)^0,w,c
  8898  001A7A  B4D8               	btfsc	status,2,c
  8899  001A7C  EF42  F00D         	goto	u3941
  8900  001A80  EF44  F00D         	goto	u3940
  8901  001A84                     u3941:
  8902  001A84  EF55  F00D         	goto	l4341
  8903  001A88                     u3940:
  8904  001A88  B01F               	btfsc	MFRC522_ToCard2@n^0,0,c
  8905  001A8A  EF49  F00D         	goto	u3951
  8906  001A8E  EF4B  F00D         	goto	u3950
  8907  001A92                     u3951:
  8908  001A92  EF55  F00D         	goto	l4341
  8909  001A96                     u3950:
  8910  001A96  501F               	movf	MFRC522_ToCard2@n^0,w,c
  8911  001A98  1418               	andwf	MFRC522_ToCard2@waitIRq^0,w,c
  8912  001A9A  0900               	iorlw	0
  8913  001A9C  B4D8               	btfsc	status,2,c
  8914  001A9E  EF53  F00D         	goto	u3961
  8915  001AA2  EF55  F00D         	goto	u3960
  8916  001AA6                     u3961:
  8917  001AA6  EF34  F00D         	goto	l420
  8918  001AAA                     u3960:
  8919  001AAA                     l4341:
  8920                           
  8921                           ;rc522.c: 546:     MFRC522_Clear_Bit2(0x0D, 0x80);
  8922  001AAA  0E80               	movlw	128
  8923  001AAC  6E0A               	movwf	MFRC522_Clear_Bit2@mask^0,c
  8924  001AAE  0E0D               	movlw	13
  8925  001AB0  EC2F  F01D         	call	_MFRC522_Clear_Bit2
  8926  001AB4                     
  8927                           ;rc522.c: 547:     if(i != 0)
  8928  001AB4  501D               	movf	MFRC522_ToCard2@i^0,w,c
  8929  001AB6  101E               	iorwf	(MFRC522_ToCard2@i+1)^0,w,c
  8930  001AB8  B4D8               	btfsc	status,2,c
  8931  001ABA  EF61  F00D         	goto	u3971
  8932  001ABE  EF63  F00D         	goto	u3970
  8933  001AC2                     u3971:
  8934  001AC2  EF04  F00E         	goto	l424
  8935  001AC6                     u3970:
  8936  001AC6                     
  8937                           ;rc522.c: 548:     {;rc522.c: 549:         if(!(MFRC522_Rd2(0x06) & 0x1B))
  8938  001AC6  0E06               	movlw	6
  8939  001AC8  EC25  F014         	call	_MFRC522_Rd2
  8940  001ACC  6E14               	movwf	??_MFRC522_ToCard2^0,c
  8941  001ACE  0E1B               	movlw	27
  8942  001AD0  1614               	andwf	??_MFRC522_ToCard2^0,f,c
  8943  001AD2  A4D8               	btfss	status,2,c
  8944  001AD4  EF6E  F00D         	goto	u3981
  8945  001AD8  EF70  F00D         	goto	u3980
  8946  001ADC                     u3981:
  8947  001ADC  EF02  F00E         	goto	l4379
  8948  001AE0                     u3980:
  8949  001AE0                     
  8950                           ;rc522.c: 550:         {;rc522.c: 551:             _status = 0;
  8951  001AE0  0E00               	movlw	0
  8952  001AE2  6E19               	movwf	MFRC522_ToCard2@_status^0,c
  8953  001AE4                     
  8954                           ;rc522.c: 552:             if(n & irqEn & 0x01)
  8955  001AE4  501F               	movf	MFRC522_ToCard2@n^0,w,c
  8956  001AE6  141B               	andwf	MFRC522_ToCard2@irqEn^0,w,c
  8957  001AE8  6E14               	movwf	??_MFRC522_ToCard2^0,c
  8958  001AEA  A014               	btfss	??_MFRC522_ToCard2^0,0,c
  8959  001AEC  EF7A  F00D         	goto	u3991
  8960  001AF0  EF7C  F00D         	goto	u3990
  8961  001AF4                     u3991:
  8962  001AF4  EF7E  F00D         	goto	l4353
  8963  001AF8                     u3990:
  8964  001AF8                     
  8965                           ;rc522.c: 553:             {;rc522.c: 554:                 _status = 1;
  8966  001AF8  0E01               	movlw	1
  8967  001AFA  6E19               	movwf	MFRC522_ToCard2@_status^0,c
  8968  001AFC                     l4353:
  8969                           
  8970                           ;rc522.c: 556:             if(command == 0x0C)
  8971  001AFC  0E0C               	movlw	12
  8972  001AFE  181C               	xorwf	MFRC522_ToCard2@command^0,w,c
  8973  001B00  A4D8               	btfss	status,2,c
  8974  001B02  EF85  F00D         	goto	u4001
  8975  001B06  EF87  F00D         	goto	u4000
  8976  001B0A                     u4001:
  8977  001B0A  EF04  F00E         	goto	l424
  8978  001B0E                     u4000:
  8979  001B0E                     
  8980                           ;rc522.c: 557:             {;rc522.c: 558:                 n = MFRC522_Rd2(0x0A);
  8981  001B0E  0E0A               	movlw	10
  8982  001B10  EC25  F014         	call	_MFRC522_Rd2
  8983  001B14  6E1F               	movwf	MFRC522_ToCard2@n^0,c
  8984                           
  8985                           ;rc522.c: 559:                 lastBits = MFRC522_Rd2(0x0C) & 0x07;
  8986  001B16  0E0C               	movlw	12
  8987  001B18  EC25  F014         	call	_MFRC522_Rd2
  8988  001B1C  0B07               	andlw	7
  8989  001B1E  6E1A               	movwf	MFRC522_ToCard2@lastBits^0,c
  8990  001B20                     
  8991                           ;rc522.c: 560:                 if(lastBits)
  8992  001B20  501A               	movf	MFRC522_ToCard2@lastBits^0,w,c
  8993  001B22  B4D8               	btfsc	status,2,c
  8994  001B24  EF96  F00D         	goto	u4011
  8995  001B28  EF98  F00D         	goto	u4010
  8996  001B2C                     u4011:
  8997  001B2C  EFBA  F00D         	goto	l4361
  8998  001B30                     u4010:
  8999  001B30                     
  9000                           ;rc522.c: 561:                 {;rc522.c: 562:                     *backLen = (n-1) * 8 
      +                          + lastBits;
  9001  001B30  0EF8               	movlw	248
  9002  001B32  6E14               	movwf	??_MFRC522_ToCard2^0,c
  9003  001B34  0EFF               	movlw	255
  9004  001B36  6E15               	movwf	(??_MFRC522_ToCard2+1)^0,c
  9005  001B38  501A               	movf	MFRC522_ToCard2@lastBits^0,w,c
  9006  001B3A  C01F  F016         	movff	MFRC522_ToCard2@n,??_MFRC522_ToCard2+2
  9007  001B3E  6A17               	clrf	(??_MFRC522_ToCard2+3)^0,c
  9008  001B40  90D8               	bcf	status,0,c
  9009  001B42  3616               	rlcf	(??_MFRC522_ToCard2+2)^0,f,c
  9010  001B44  3617               	rlcf	(??_MFRC522_ToCard2+3)^0,f,c
  9011  001B46  90D8               	bcf	status,0,c
  9012  001B48  3616               	rlcf	(??_MFRC522_ToCard2+2)^0,f,c
  9013  001B4A  3617               	rlcf	(??_MFRC522_ToCard2+3)^0,f,c
  9014  001B4C  90D8               	bcf	status,0,c
  9015  001B4E  3616               	rlcf	(??_MFRC522_ToCard2+2)^0,f,c
  9016  001B50  3617               	rlcf	(??_MFRC522_ToCard2+3)^0,f,c
  9017  001B52  2616               	addwf	(??_MFRC522_ToCard2+2)^0,f,c
  9018  001B54  0E00               	movlw	0
  9019  001B56  2217               	addwfc	(??_MFRC522_ToCard2+3)^0,f,c
  9020  001B58  5014               	movf	??_MFRC522_ToCard2^0,w,c
  9021  001B5A  2616               	addwf	(??_MFRC522_ToCard2+2)^0,f,c
  9022  001B5C  5015               	movf	(??_MFRC522_ToCard2+1)^0,w,c
  9023  001B5E  2217               	addwfc	(??_MFRC522_ToCard2+3)^0,f,c
  9024  001B60  C012  FFD9         	movff	MFRC522_ToCard2@backLen,fsr2l
  9025  001B64  C013  FFDA         	movff	MFRC522_ToCard2@backLen+1,fsr2h
  9026  001B68  C016  FFDE         	movff	??_MFRC522_ToCard2+2,postinc2
  9027  001B6C  C017  FFDD         	movff	??_MFRC522_ToCard2+3,postdec2
  9028                           
  9029                           ;rc522.c: 563:                 }
  9030  001B70  EFC4  F00D         	goto	l4363
  9031  001B74                     l4361:
  9032                           
  9033                           ;rc522.c: 565:                 {;rc522.c: 566:                     *backLen = n * 8;
  9034  001B74  501F               	movf	MFRC522_ToCard2@n^0,w,c
  9035  001B76  0D08               	mullw	8
  9036  001B78  C012  FFD9         	movff	MFRC522_ToCard2@backLen,fsr2l
  9037  001B7C  C013  FFDA         	movff	MFRC522_ToCard2@backLen+1,fsr2h
  9038  001B80  CFF3 FFDE          	movff	prodl,postinc2
  9039  001B84  CFF4 FFDD          	movff	prodh,postdec2
  9040  001B88                     l4363:
  9041                           
  9042                           ;rc522.c: 568:                 if(n == 0)
  9043  001B88  501F               	movf	MFRC522_ToCard2@n^0,w,c
  9044  001B8A  A4D8               	btfss	status,2,c
  9045  001B8C  EFCA  F00D         	goto	u4021
  9046  001B90  EFCC  F00D         	goto	u4020
  9047  001B94                     u4021:
  9048  001B94  EFCE  F00D         	goto	l4367
  9049  001B98                     u4020:
  9050  001B98                     
  9051                           ;rc522.c: 569:                 {;rc522.c: 570:                     n = 1;
  9052  001B98  0E01               	movlw	1
  9053  001B9A  6E1F               	movwf	MFRC522_ToCard2@n^0,c
  9054  001B9C                     l4367:
  9055                           
  9056                           ;rc522.c: 572:                 if(n > 16)
  9057  001B9C  0E10               	movlw	16
  9058  001B9E  641F               	cpfsgt	MFRC522_ToCard2@n^0,c
  9059  001BA0  EFD4  F00D         	goto	u4031
  9060  001BA4  EFD6  F00D         	goto	u4030
  9061  001BA8                     u4031:
  9062  001BA8  EFD8  F00D         	goto	l431
  9063  001BAC                     u4030:
  9064  001BAC                     
  9065                           ;rc522.c: 573:                 {;rc522.c: 574:                     n = 16;
  9066  001BAC  0E10               	movlw	16
  9067  001BAE  6E1F               	movwf	MFRC522_ToCard2@n^0,c
  9068  001BB0                     l431:
  9069                           
  9070                           ;rc522.c: 576:                 for(i=0; i<n; i++)
  9071  001BB0  0E00               	movlw	0
  9072  001BB2  6E1E               	movwf	(MFRC522_ToCard2@i+1)^0,c
  9073  001BB4  0E00               	movlw	0
  9074  001BB6  6E1D               	movwf	MFRC522_ToCard2@i^0,c
  9075  001BB8  EFEA  F00D         	goto	l4375
  9076  001BBC                     l4371:
  9077                           
  9078                           ;rc522.c: 577:                 {;rc522.c: 578:                     backData[i] = MFRC522
      +                          _Rd2(0x09);
  9079  001BBC  501D               	movf	MFRC522_ToCard2@i^0,w,c
  9080  001BBE  2410               	addwf	MFRC522_ToCard2@backData^0,w,c
  9081  001BC0  6ED9               	movwf	fsr2l,c
  9082  001BC2  501E               	movf	(MFRC522_ToCard2@i+1)^0,w,c
  9083  001BC4  2011               	addwfc	(MFRC522_ToCard2@backData+1)^0,w,c
  9084  001BC6  6EDA               	movwf	fsr2h,c
  9085  001BC8  0E09               	movlw	9
  9086  001BCA  EC25  F014         	call	_MFRC522_Rd2
  9087  001BCE  6EDF               	movwf	indf2,c
  9088  001BD0                     
  9089                           ;rc522.c: 579:                 }
  9090  001BD0  4A1D               	infsnz	MFRC522_ToCard2@i^0,f,c
  9091  001BD2  2A1E               	incf	(MFRC522_ToCard2@i+1)^0,f,c
  9092  001BD4                     l4375:
  9093  001BD4  501F               	movf	MFRC522_ToCard2@n^0,w,c
  9094  001BD6  6E14               	movwf	??_MFRC522_ToCard2^0,c
  9095  001BD8  6A15               	clrf	(??_MFRC522_ToCard2+1)^0,c
  9096  001BDA  5014               	movf	??_MFRC522_ToCard2^0,w,c
  9097  001BDC  5C1D               	subwf	MFRC522_ToCard2@i^0,w,c
  9098  001BDE  5015               	movf	(??_MFRC522_ToCard2+1)^0,w,c
  9099  001BE0  581E               	subwfb	(MFRC522_ToCard2@i+1)^0,w,c
  9100  001BE2  A0D8               	btfss	status,0,c
  9101  001BE4  EFF6  F00D         	goto	u4041
  9102  001BE8  EFF8  F00D         	goto	u4040
  9103  001BEC                     u4041:
  9104  001BEC  EFDE  F00D         	goto	l4371
  9105  001BF0                     u4040:
  9106  001BF0                     
  9107                           ;rc522.c: 580:                 backData[i] = 0;
  9108  001BF0  501D               	movf	MFRC522_ToCard2@i^0,w,c
  9109  001BF2  2410               	addwf	MFRC522_ToCard2@backData^0,w,c
  9110  001BF4  6ED9               	movwf	fsr2l,c
  9111  001BF6  501E               	movf	(MFRC522_ToCard2@i+1)^0,w,c
  9112  001BF8  2011               	addwfc	(MFRC522_ToCard2@backData+1)^0,w,c
  9113  001BFA  6EDA               	movwf	fsr2h,c
  9114  001BFC  0E00               	movlw	0
  9115  001BFE  6EDF               	movwf	indf2,c
  9116  001C00  EF04  F00E         	goto	l424
  9117  001C04                     l4379:
  9118                           
  9119                           ;rc522.c: 584:         {;rc522.c: 585:             _status = 2;
  9120  001C04  0E02               	movlw	2
  9121  001C06  6E19               	movwf	MFRC522_ToCard2@_status^0,c
  9122  001C08                     l424:
  9123                           
  9124                           ;rc522.c: 588:     return _status;
  9125  001C08  5019               	movf	MFRC522_ToCard2@_status^0,w,c
  9126  001C0A  0012               	return		;funcret
  9127  001C0C                     __end_of_MFRC522_ToCard2:
  9128                           	callstack 0
  9129                           
  9130 ;; *************** function _MFRC522_CRC2 *****************
  9131 ;; Defined at:
  9132 ;;		line 848 in file "rc522.c"
  9133 ;; Parameters:    Size  Location     Type
  9134 ;;  dataIn          2   12[COMRAM] PTR unsigned char 
  9135 ;;		 -> MFRC522_Halt2@buff(4), MFRC522_SelectTag2@buffer(9), 
  9136 ;;  length          1   14[COMRAM] unsigned char 
  9137 ;;  dataOut         2   15[COMRAM] PTR unsigned char 
  9138 ;;		 -> MFRC522_Halt2@buff(4), MFRC522_SelectTag2@buffer(9), 
  9139 ;; Auto vars:     Size  Location     Type
  9140 ;;  i               1   18[COMRAM] unsigned char 
  9141 ;;  n               1   17[COMRAM] unsigned char 
  9142 ;; Return value:  Size  Location     Type
  9143 ;;                  1    wreg      void 
  9144 ;; Registers used:
  9145 ;;		wreg, fsr2l, fsr2h, status,2, status,0, cstack
  9146 ;; Tracked objects:
  9147 ;;		On entry : 0/0
  9148 ;;		On exit  : 0/0
  9149 ;;		Unchanged: 0/0
  9150 ;; Data sizes:     COMRAM   BANK0   BANK1   BANK2   BANK3   BANK4   BANK5   BANK6   BANK7
  9151 ;;      Params:         5       0       0       0       0       0       0       0       0
  9152 ;;      Locals:         2       0       0       0       0       0       0       0       0
  9153 ;;      Temps:          0       0       0       0       0       0       0       0       0
  9154 ;;      Totals:         7       0       0       0       0       0       0       0       0
  9155 ;;Total ram usage:        7 bytes
  9156 ;; Hardware stack levels used: 1
  9157 ;; Hardware stack levels required when called: 2
  9158 ;; This function calls:
  9159 ;;		_MFRC522_Clear_Bit2
  9160 ;;		_MFRC522_Rd2
  9161 ;;		_MFRC522_Set_Bit2
  9162 ;;		_MFRC522_Wr2
  9163 ;; This function is called by:
  9164 ;;		_MFRC522_Halt2
  9165 ;;		_MFRC522_SelectTag2
  9166 ;; This function uses a non-reentrant model
  9167 ;;
  9168                           
  9169                           	psect	text55
  9170  002E76                     __ptext55:
  9171                           	callstack 0
  9172  002E76                     _MFRC522_CRC2:
  9173                           	callstack 27
  9174  002E76                     
  9175                           ;rc522.c: 848: void MFRC522_CRC2(char *dataIn, char length, char *dataOut);rc522.c: 849:
      +                           {;rc522.c: 850:     char i, n;;rc522.c: 851:     MFRC522_Clear_Bit2(0x05, 0x04);
  9176  002E76  0E04               	movlw	4
  9177  002E78  6E0A               	movwf	MFRC522_Clear_Bit2@mask^0,c
  9178  002E7A  0E05               	movlw	5
  9179  002E7C  EC2F  F01D         	call	_MFRC522_Clear_Bit2
  9180                           
  9181                           ;rc522.c: 852:     MFRC522_Set_Bit2(0x0A, 0x80);
  9182  002E80  0E80               	movlw	128
  9183  002E82  6E0A               	movwf	MFRC522_Set_Bit2@mask^0,c
  9184  002E84  0E0A               	movlw	10
  9185  002E86  EC61  F01D         	call	_MFRC522_Set_Bit2
  9186  002E8A                     
  9187                           ;rc522.c: 853:     for(i=0; i<length; i++)
  9188  002E8A  0E00               	movlw	0
  9189  002E8C  6E13               	movwf	MFRC522_CRC2@i^0,c
  9190  002E8E  EF55  F017         	goto	l4843
  9191  002E92                     l4837:
  9192                           
  9193                           ;rc522.c: 854:     {;rc522.c: 855:         MFRC522_Wr2(0x09, *dataIn++);
  9194  002E92  C00D  FFD9         	movff	MFRC522_CRC2@dataIn,fsr2l
  9195  002E96  C00E  FFDA         	movff	MFRC522_CRC2@dataIn+1,fsr2h
  9196  002E9A  50DF               	movf	indf2,w,c
  9197  002E9C  6E01               	movwf	MFRC522_Wr2@value^0,c
  9198  002E9E  0E09               	movlw	9
  9199  002EA0  ECC1  F018         	call	_MFRC522_Wr2
  9200  002EA4  4A0D               	infsnz	MFRC522_CRC2@dataIn^0,f,c
  9201  002EA6  2A0E               	incf	(MFRC522_CRC2@dataIn+1)^0,f,c
  9202  002EA8                     
  9203                           ;rc522.c: 856:     }
  9204  002EA8  2A13               	incf	MFRC522_CRC2@i^0,f,c
  9205  002EAA                     l4843:
  9206  002EAA  500F               	movf	MFRC522_CRC2@length^0,w,c
  9207  002EAC  5C13               	subwf	MFRC522_CRC2@i^0,w,c
  9208  002EAE  A0D8               	btfss	status,0,c
  9209  002EB0  EF5C  F017         	goto	u4551
  9210  002EB4  EF5E  F017         	goto	u4550
  9211  002EB8                     u4551:
  9212  002EB8  EF49  F017         	goto	l4837
  9213  002EBC                     u4550:
  9214  002EBC                     
  9215                           ;rc522.c: 857:     MFRC522_Wr2(0x01, 0x03);
  9216  002EBC  0E03               	movlw	3
  9217  002EBE  6E01               	movwf	MFRC522_Wr2@value^0,c
  9218  002EC0  0E01               	movlw	1
  9219  002EC2  ECC1  F018         	call	_MFRC522_Wr2
  9220  002EC6                     
  9221                           ;rc522.c: 858:     i = 0xFF;
  9222  002EC6  6813               	setf	MFRC522_CRC2@i^0,c
  9223  002EC8                     l532:
  9224                           
  9225                           ;rc522.c: 860:     {;rc522.c: 861:         n = MFRC522_Rd2( 0x05 );
  9226  002EC8  0E05               	movlw	5
  9227  002ECA  EC25  F014         	call	_MFRC522_Rd2
  9228  002ECE  6E12               	movwf	MFRC522_CRC2@n^0,c
  9229  002ED0                     
  9230                           ;rc522.c: 862:         i--;
  9231  002ED0  0613               	decf	MFRC522_CRC2@i^0,f,c
  9232  002ED2                     
  9233                           ;rc522.c: 863:     }
  9234  002ED2  5013               	movf	MFRC522_CRC2@i^0,w,c
  9235  002ED4  B4D8               	btfsc	status,2,c
  9236  002ED6  EF6F  F017         	goto	u4561
  9237  002EDA  EF71  F017         	goto	u4560
  9238  002EDE                     u4561:
  9239  002EDE  EF78  F017         	goto	l4855
  9240  002EE2                     u4560:
  9241  002EE2  A412               	btfss	MFRC522_CRC2@n^0,2,c
  9242  002EE4  EF76  F017         	goto	u4571
  9243  002EE8  EF78  F017         	goto	u4570
  9244  002EEC                     u4571:
  9245  002EEC  EF64  F017         	goto	l532
  9246  002EF0                     u4570:
  9247  002EF0                     l4855:
  9248                           
  9249                           ;rc522.c: 865:     dataOut[0] = MFRC522_Rd2(0x22);
  9250  002EF0  0E22               	movlw	34
  9251  002EF2  EC25  F014         	call	_MFRC522_Rd2
  9252  002EF6  C010  FFD9         	movff	MFRC522_CRC2@dataOut,fsr2l
  9253  002EFA  C011  FFDA         	movff	MFRC522_CRC2@dataOut+1,fsr2h
  9254  002EFE  6EDF               	movwf	indf2,c
  9255                           
  9256                           ;rc522.c: 866:     dataOut[1] = MFRC522_Rd2(0x21);
  9257  002F00  EE20 F001          	lfsr	2,1
  9258  002F04  5010               	movf	MFRC522_CRC2@dataOut^0,w,c
  9259  002F06  26D9               	addwf	fsr2l,f,c
  9260  002F08  5011               	movf	(MFRC522_CRC2@dataOut+1)^0,w,c
  9261  002F0A  22DA               	addwfc	fsr2h,f,c
  9262  002F0C  0E21               	movlw	33
  9263  002F0E  EC25  F014         	call	_MFRC522_Rd2
  9264  002F12  6EDF               	movwf	indf2,c
  9265  002F14  0012               	return		;funcret
  9266  002F16                     __end_of_MFRC522_CRC2:
  9267                           	callstack 0
  9268                           
  9269 ;; *************** function _MFRC522_Set_Bit2 *****************
  9270 ;; Defined at:
  9271 ;;		line 246 in file "rc522.c"
  9272 ;; Parameters:    Size  Location     Type
  9273 ;;  addr            1    wreg     unsigned char 
  9274 ;;  mask            1    9[COMRAM] unsigned char 
  9275 ;; Auto vars:     Size  Location     Type
  9276 ;;  addr            1   11[COMRAM] unsigned char 
  9277 ;;  tmp             1   10[COMRAM] unsigned char 
  9278 ;; Return value:  Size  Location     Type
  9279 ;;                  1    wreg      void 
  9280 ;; Registers used:
  9281 ;;		wreg, status,2, status,0, cstack
  9282 ;; Tracked objects:
  9283 ;;		On entry : 0/0
  9284 ;;		On exit  : 0/0
  9285 ;;		Unchanged: 0/0
  9286 ;; Data sizes:     COMRAM   BANK0   BANK1   BANK2   BANK3   BANK4   BANK5   BANK6   BANK7
  9287 ;;      Params:         1       0       0       0       0       0       0       0       0
  9288 ;;      Locals:         2       0       0       0       0       0       0       0       0
  9289 ;;      Temps:          0       0       0       0       0       0       0       0       0
  9290 ;;      Totals:         3       0       0       0       0       0       0       0       0
  9291 ;;Total ram usage:        3 bytes
  9292 ;; Hardware stack levels used: 1
  9293 ;; Hardware stack levels required when called: 1
  9294 ;; This function calls:
  9295 ;;		_MFRC522_Rd2
  9296 ;;		_MFRC522_Wr2
  9297 ;; This function is called by:
  9298 ;;		_MFRC522_AntennaOn2
  9299 ;;		_MFRC522_ToCard2
  9300 ;;		_MFRC522_CRC2
  9301 ;; This function uses a non-reentrant model
  9302 ;;
  9303                           
  9304                           	psect	text56
  9305  003AC2                     __ptext56:
  9306                           	callstack 0
  9307  003AC2                     _MFRC522_Set_Bit2:
  9308                           	callstack 26
  9309                           
  9310                           ;incstack = 0
  9311                           ;MFRC522_Set_Bit2@addr stored from wreg
  9312  003AC2  6E0C               	movwf	MFRC522_Set_Bit2@addr^0,c
  9313  003AC4                     
  9314                           ;rc522.c: 249:     tmp = MFRC522_Rd2(addr);
  9315  003AC4  500C               	movf	MFRC522_Set_Bit2@addr^0,w,c
  9316  003AC6  EC25  F014         	call	_MFRC522_Rd2
  9317  003ACA  6E0B               	movwf	MFRC522_Set_Bit2@tmp^0,c
  9318  003ACC                     
  9319                           ;rc522.c: 250:     MFRC522_Wr2(addr, tmp | mask);
  9320  003ACC  500B               	movf	MFRC522_Set_Bit2@tmp^0,w,c
  9321  003ACE  100A               	iorwf	MFRC522_Set_Bit2@mask^0,w,c
  9322  003AD0  6E01               	movwf	MFRC522_Wr2@value^0,c
  9323  003AD2  500C               	movf	MFRC522_Set_Bit2@addr^0,w,c
  9324  003AD4  ECC1  F018         	call	_MFRC522_Wr2
  9325  003AD8  0012               	return		;funcret
  9326  003ADA                     __end_of_MFRC522_Set_Bit2:
  9327                           	callstack 0
  9328                           
  9329 ;; *************** function _MFRC522_Clear_Bit2 *****************
  9330 ;; Defined at:
  9331 ;;		line 217 in file "rc522.c"
  9332 ;; Parameters:    Size  Location     Type
  9333 ;;  addr            1    wreg     unsigned char 
  9334 ;;  mask            1    9[COMRAM] unsigned char 
  9335 ;; Auto vars:     Size  Location     Type
  9336 ;;  addr            1   11[COMRAM] unsigned char 
  9337 ;;  tmp             1   10[COMRAM] unsigned char 
  9338 ;; Return value:  Size  Location     Type
  9339 ;;                  1    wreg      void 
  9340 ;; Registers used:
  9341 ;;		wreg, status,2, status,0, cstack
  9342 ;; Tracked objects:
  9343 ;;		On entry : 0/0
  9344 ;;		On exit  : 0/0
  9345 ;;		Unchanged: 0/0
  9346 ;; Data sizes:     COMRAM   BANK0   BANK1   BANK2   BANK3   BANK4   BANK5   BANK6   BANK7
  9347 ;;      Params:         1       0       0       0       0       0       0       0       0
  9348 ;;      Locals:         2       0       0       0       0       0       0       0       0
  9349 ;;      Temps:          0       0       0       0       0       0       0       0       0
  9350 ;;      Totals:         3       0       0       0       0       0       0       0       0
  9351 ;;Total ram usage:        3 bytes
  9352 ;; Hardware stack levels used: 1
  9353 ;; Hardware stack levels required when called: 1
  9354 ;; This function calls:
  9355 ;;		_MFRC522_Rd2
  9356 ;;		_MFRC522_Wr2
  9357 ;; This function is called by:
  9358 ;;		_MFRC522_AntennaOff2
  9359 ;;		_MFRC522_ToCard2
  9360 ;;		_MFRC522_CRC2
  9361 ;;		_MFRC522_Halt2
  9362 ;;		_MFRC522_AntiColl2
  9363 ;; This function uses a non-reentrant model
  9364 ;;
  9365                           
  9366                           	psect	text57
  9367  003A5E                     __ptext57:
  9368                           	callstack 0
  9369  003A5E                     _MFRC522_Clear_Bit2:
  9370                           	callstack 26
  9371                           
  9372                           ;incstack = 0
  9373                           ;MFRC522_Clear_Bit2@addr stored from wreg
  9374  003A5E  6E0C               	movwf	MFRC522_Clear_Bit2@addr^0,c
  9375  003A60                     
  9376                           ;rc522.c: 220:     tmp = MFRC522_Rd2(addr) ;
  9377  003A60  500C               	movf	MFRC522_Clear_Bit2@addr^0,w,c
  9378  003A62  EC25  F014         	call	_MFRC522_Rd2
  9379  003A66  6E0B               	movwf	MFRC522_Clear_Bit2@tmp^0,c
  9380  003A68                     
  9381                           ;rc522.c: 221:     MFRC522_Wr2(addr, tmp&~mask);
  9382  003A68  500A               	movf	MFRC522_Clear_Bit2@mask^0,w,c
  9383  003A6A  0AFF               	xorlw	255
  9384  003A6C  140B               	andwf	MFRC522_Clear_Bit2@tmp^0,w,c
  9385  003A6E  6E01               	movwf	MFRC522_Wr2@value^0,c
  9386  003A70  500C               	movf	MFRC522_Clear_Bit2@addr^0,w,c
  9387  003A72  ECC1  F018         	call	_MFRC522_Wr2
  9388  003A76  0012               	return		;funcret
  9389  003A78                     __end_of_MFRC522_Clear_Bit2:
  9390                           	callstack 0
  9391                           
  9392 ;; *************** function _MFRC522_Wr2 *****************
  9393 ;; Defined at:
  9394 ;;		line 135 in file "rc522.c"
  9395 ;; Parameters:    Size  Location     Type
  9396 ;;  address         1    wreg     unsigned char 
  9397 ;;  value           1    0[COMRAM] unsigned char 
  9398 ;; Auto vars:     Size  Location     Type
  9399 ;;  address         1    2[COMRAM] unsigned char 
  9400 ;;  i               1    4[COMRAM] unsigned char 
  9401 ;;  ucAddr          1    3[COMRAM] unsigned char 
  9402 ;; Return value:  Size  Location     Type
  9403 ;;                  1    wreg      void 
  9404 ;; Registers used:
  9405 ;;		wreg, status,2, status,0
  9406 ;; Tracked objects:
  9407 ;;		On entry : 0/0
  9408 ;;		On exit  : 0/0
  9409 ;;		Unchanged: 0/0
  9410 ;; Data sizes:     COMRAM   BANK0   BANK1   BANK2   BANK3   BANK4   BANK5   BANK6   BANK7
  9411 ;;      Params:         1       0       0       0       0       0       0       0       0
  9412 ;;      Locals:         3       0       0       0       0       0       0       0       0
  9413 ;;      Temps:          1       0       0       0       0       0       0       0       0
  9414 ;;      Totals:         5       0       0       0       0       0       0       0       0
  9415 ;;Total ram usage:        5 bytes
  9416 ;; Hardware stack levels used: 1
  9417 ;; This function calls:
  9418 ;;		Nothing
  9419 ;; This function is called by:
  9420 ;;		_MFRC522_Clear_Bit2
  9421 ;;		_MFRC522_Set_Bit2
  9422 ;;		_MFRC522_Reset
  9423 ;;		_MFRC522_Init
  9424 ;;		_MFRC522_ToCard2
  9425 ;;		_MFRC522_Request2
  9426 ;;		_MFRC522_CRC2
  9427 ;;		_MFRC522_AntiColl2
  9428 ;; This function uses a non-reentrant model
  9429 ;;
  9430                           
  9431                           	psect	text58
  9432  003182                     __ptext58:
  9433                           	callstack 0
  9434  003182                     _MFRC522_Wr2:
  9435                           	callstack 28
  9436                           
  9437                           ;incstack = 0
  9438                           ;MFRC522_Wr2@address stored from wreg
  9439  003182  6E03               	movwf	MFRC522_Wr2@address^0,c
  9440  003184                     
  9441                           ;rc522.c: 135: void MFRC522_Wr2(unsigned char address, unsigned char value);rc522.c: 136
      +                          : {;rc522.c: 137:     unsigned char i, ucAddr;;rc522.c: 138:     LATDbits.LD1 = 0;
  9442  003184  928C               	bcf	140,1,c	;volatile
  9443                           
  9444                           ;rc522.c: 139:     LATAbits.LA2 = 0;
  9445  003186  9489               	bcf	137,2,c	;volatile
  9446  003188                     
  9447                           ;rc522.c: 140:     ucAddr = ((address << 1) & 0x7E);
  9448  003188  5003               	movf	MFRC522_Wr2@address^0,w,c
  9449  00318A  2403               	addwf	MFRC522_Wr2@address^0,w,c
  9450  00318C  0B7E               	andlw	126
  9451  00318E  6E04               	movwf	MFRC522_Wr2@ucAddr^0,c
  9452  003190                     
  9453                           ;rc522.c: 142:     for(i=8; i>0; i--)
  9454  003190  0E08               	movlw	8
  9455  003192  6E05               	movwf	MFRC522_Wr2@i^0,c
  9456  003194                     l3919:
  9457                           
  9458                           ;rc522.c: 143:     {;rc522.c: 144:         LATDbits.LD3 = ((ucAddr&0x80) == 0x80);
  9459  003194  BE04               	btfsc	MFRC522_Wr2@ucAddr^0,7,c
  9460  003196  EFCF  F018         	goto	u3341
  9461  00319A  EFD3  F018         	goto	u3340
  9462  00319E                     u3341:
  9463  00319E  6A02               	clrf	??_MFRC522_Wr2^0,c
  9464  0031A0  2A02               	incf	??_MFRC522_Wr2^0,f,c
  9465  0031A2  EFD4  F018         	goto	u3358
  9466  0031A6                     u3340:
  9467  0031A6  6A02               	clrf	??_MFRC522_Wr2^0,c
  9468  0031A8                     u3358:
  9469  0031A8  4602               	rlncf	??_MFRC522_Wr2^0,f,c
  9470  0031AA  4602               	rlncf	??_MFRC522_Wr2^0,f,c
  9471  0031AC  4602               	rlncf	??_MFRC522_Wr2^0,f,c
  9472  0031AE  508C               	movf	140,w,c	;volatile
  9473  0031B0  1802               	xorwf	??_MFRC522_Wr2^0,w,c
  9474  0031B2  0BF7               	andlw	-9
  9475  0031B4  1802               	xorwf	??_MFRC522_Wr2^0,w,c
  9476  0031B6  6E8C               	movwf	140,c	;volatile
  9477  0031B8                     
  9478                           ;rc522.c: 145:         LATDbits.LD1 = 1;
  9479  0031B8  828C               	bsf	140,1,c	;volatile
  9480                           
  9481                           ;rc522.c: 146:         ucAddr <<= 1;
  9482  0031BA  90D8               	bcf	status,0,c
  9483  0031BC  3604               	rlcf	MFRC522_Wr2@ucAddr^0,f,c
  9484  0031BE                     
  9485                           ;rc522.c: 147:         LATDbits.LD1 = 0;
  9486  0031BE  928C               	bcf	140,1,c	;volatile
  9487  0031C0                     
  9488                           ;rc522.c: 148:     }
  9489  0031C0  0605               	decf	MFRC522_Wr2@i^0,f,c
  9490  0031C2  5005               	movf	MFRC522_Wr2@i^0,w,c
  9491  0031C4  A4D8               	btfss	status,2,c
  9492  0031C6  EFE7  F018         	goto	u3361
  9493  0031CA  EFE9  F018         	goto	u3360
  9494  0031CE                     u3361:
  9495  0031CE  EFCA  F018         	goto	l3919
  9496  0031D2                     u3360:
  9497  0031D2                     
  9498                           ;rc522.c: 149:     for(i=8; i>0; i--)
  9499  0031D2  0E08               	movlw	8
  9500  0031D4  6E05               	movwf	MFRC522_Wr2@i^0,c
  9501  0031D6                     l3933:
  9502                           
  9503                           ;rc522.c: 150:     {;rc522.c: 151:         LATDbits.LD3 = ((value&0x80) == 0x80);
  9504  0031D6  BE01               	btfsc	MFRC522_Wr2@value^0,7,c
  9505  0031D8  EFF0  F018         	goto	u3371
  9506  0031DC  EFF4  F018         	goto	u3370
  9507  0031E0                     u3371:
  9508  0031E0  6A02               	clrf	??_MFRC522_Wr2^0,c
  9509  0031E2  2A02               	incf	??_MFRC522_Wr2^0,f,c
  9510  0031E4  EFF5  F018         	goto	u3388
  9511  0031E8                     u3370:
  9512  0031E8  6A02               	clrf	??_MFRC522_Wr2^0,c
  9513  0031EA                     u3388:
  9514  0031EA  4602               	rlncf	??_MFRC522_Wr2^0,f,c
  9515  0031EC  4602               	rlncf	??_MFRC522_Wr2^0,f,c
  9516  0031EE  4602               	rlncf	??_MFRC522_Wr2^0,f,c
  9517  0031F0  508C               	movf	140,w,c	;volatile
  9518  0031F2  1802               	xorwf	??_MFRC522_Wr2^0,w,c
  9519  0031F4  0BF7               	andlw	-9
  9520  0031F6  1802               	xorwf	??_MFRC522_Wr2^0,w,c
  9521  0031F8  6E8C               	movwf	140,c	;volatile
  9522  0031FA                     
  9523                           ;rc522.c: 152:         LATDbits.LD1 = 1;
  9524  0031FA  828C               	bsf	140,1,c	;volatile
  9525                           
  9526                           ;rc522.c: 153:         value <<= 1;
  9527  0031FC  90D8               	bcf	status,0,c
  9528  0031FE  3601               	rlcf	MFRC522_Wr2@value^0,f,c
  9529  003200                     
  9530                           ;rc522.c: 154:         LATDbits.LD1 = 0;
  9531  003200  928C               	bcf	140,1,c	;volatile
  9532  003202                     
  9533                           ;rc522.c: 155:     }
  9534  003202  0605               	decf	MFRC522_Wr2@i^0,f,c
  9535  003204  5005               	movf	MFRC522_Wr2@i^0,w,c
  9536  003206  A4D8               	btfss	status,2,c
  9537  003208  EF08  F019         	goto	u3391
  9538  00320C  EF0A  F019         	goto	u3390
  9539  003210                     u3391:
  9540  003210  EFEB  F018         	goto	l3933
  9541  003214                     u3390:
  9542  003214                     
  9543                           ;rc522.c: 156:     LATAbits.LA2 = 1;
  9544  003214  8489               	bsf	137,2,c	;volatile
  9545                           
  9546                           ;rc522.c: 157:     LATDbits.LD1 = 1;
  9547  003216  828C               	bsf	140,1,c	;volatile
  9548  003218  0012               	return		;funcret
  9549  00321A                     __end_of_MFRC522_Wr2:
  9550                           	callstack 0
  9551                           
  9552 ;; *************** function _MFRC522_Rd2 *****************
  9553 ;; Defined at:
  9554 ;;		line 29 in file "rc522.c"
  9555 ;; Parameters:    Size  Location     Type
  9556 ;;  address         1    wreg     unsigned char 
  9557 ;; Auto vars:     Size  Location     Type
  9558 ;;  address         1    2[COMRAM] unsigned char 
  9559 ;;  i               2    7[COMRAM] unsigned int 
  9560 ;;  ucResult        2    5[COMRAM] unsigned int 
  9561 ;;  ucAddr          2    3[COMRAM] unsigned int 
  9562 ;; Return value:  Size  Location     Type
  9563 ;;                  1    wreg      unsigned char 
  9564 ;; Registers used:
  9565 ;;		wreg, status,2, status,0
  9566 ;; Tracked objects:
  9567 ;;		On entry : 0/0
  9568 ;;		On exit  : 0/0
  9569 ;;		Unchanged: 0/0
  9570 ;; Data sizes:     COMRAM   BANK0   BANK1   BANK2   BANK3   BANK4   BANK5   BANK6   BANK7
  9571 ;;      Params:         0       0       0       0       0       0       0       0       0
  9572 ;;      Locals:         7       0       0       0       0       0       0       0       0
  9573 ;;      Temps:          2       0       0       0       0       0       0       0       0
  9574 ;;      Totals:         9       0       0       0       0       0       0       0       0
  9575 ;;Total ram usage:        9 bytes
  9576 ;; Hardware stack levels used: 1
  9577 ;; This function calls:
  9578 ;;		Nothing
  9579 ;; This function is called by:
  9580 ;;		_MFRC522_Clear_Bit2
  9581 ;;		_MFRC522_Set_Bit2
  9582 ;;		_MFRC522_AntennaOn2
  9583 ;;		_MFRC522_ToCard2
  9584 ;;		_MFRC522_CRC2
  9585 ;; This function uses a non-reentrant model
  9586 ;;
  9587                           
  9588                           	psect	text59
  9589  00284A                     __ptext59:
  9590                           	callstack 0
  9591  00284A                     _MFRC522_Rd2:
  9592                           	callstack 26
  9593                           
  9594                           ;incstack = 0
  9595                           ;MFRC522_Rd2@address stored from wreg
  9596  00284A  6E03               	movwf	MFRC522_Rd2@address^0,c
  9597  00284C                     
  9598                           ;rc522.c: 29: unsigned char MFRC522_Rd2(unsigned char address);rc522.c: 30: {;rc522.c: 3
      +                          1:     unsigned int i, ucAddr;;rc522.c: 32:     unsigned int ucResult = 0;
  9599  00284C  0E00               	movlw	0
  9600  00284E  6E07               	movwf	(MFRC522_Rd2@ucResult+1)^0,c
  9601  002850  0E00               	movlw	0
  9602  002852  6E06               	movwf	MFRC522_Rd2@ucResult^0,c
  9603  002854                     
  9604                           ;rc522.c: 33:     LATDbits.LD1 = 0;
  9605  002854  928C               	bcf	140,1,c	;volatile
  9606  002856                     
  9607                           ;rc522.c: 34:     LATAbits.LA2 = 0;
  9608  002856  9489               	bcf	137,2,c	;volatile
  9609  002858                     
  9610                           ;rc522.c: 35:     ucAddr = ((address << 1) & 0x7E) | 0x80;
  9611  002858  5003               	movf	MFRC522_Rd2@address^0,w,c
  9612  00285A  2403               	addwf	MFRC522_Rd2@address^0,w,c
  9613  00285C  0B7E               	andlw	126
  9614  00285E  6E01               	movwf	??_MFRC522_Rd2^0,c
  9615  002860  6A02               	clrf	(??_MFRC522_Rd2+1)^0,c
  9616  002862  0E80               	movlw	128
  9617  002864  1001               	iorwf	??_MFRC522_Rd2^0,w,c
  9618  002866  6E04               	movwf	MFRC522_Rd2@ucAddr^0,c
  9619  002868  5002               	movf	(??_MFRC522_Rd2+1)^0,w,c
  9620  00286A  6E05               	movwf	(MFRC522_Rd2@ucAddr+1)^0,c
  9621  00286C                     
  9622                           ;rc522.c: 37:     for(i=8; i>0; i--)
  9623  00286C  0E00               	movlw	0
  9624  00286E  6E09               	movwf	(MFRC522_Rd2@i+1)^0,c
  9625  002870  0E08               	movlw	8
  9626  002872  6E08               	movwf	MFRC522_Rd2@i^0,c
  9627  002874                     l3805:
  9628                           
  9629                           ;rc522.c: 38:     {;rc522.c: 39:         LATDbits.LD3 = ((ucAddr & 0x80) == 0x80);
  9630  002874  BE04               	btfsc	MFRC522_Rd2@ucAddr^0,7,c
  9631  002876  EF3F  F014         	goto	u3181
  9632  00287A  EF43  F014         	goto	u3180
  9633  00287E                     u3181:
  9634  00287E  6A01               	clrf	??_MFRC522_Rd2^0,c
  9635  002880  2A01               	incf	??_MFRC522_Rd2^0,f,c
  9636  002882  EF44  F014         	goto	u3198
  9637  002886                     u3180:
  9638  002886  6A01               	clrf	??_MFRC522_Rd2^0,c
  9639  002888                     u3198:
  9640  002888  4601               	rlncf	??_MFRC522_Rd2^0,f,c
  9641  00288A  4601               	rlncf	??_MFRC522_Rd2^0,f,c
  9642  00288C  4601               	rlncf	??_MFRC522_Rd2^0,f,c
  9643  00288E  508C               	movf	140,w,c	;volatile
  9644  002890  1801               	xorwf	??_MFRC522_Rd2^0,w,c
  9645  002892  0BF7               	andlw	-9
  9646  002894  1801               	xorwf	??_MFRC522_Rd2^0,w,c
  9647  002896  6E8C               	movwf	140,c	;volatile
  9648  002898                     
  9649                           ;rc522.c: 40:         LATDbits.LD1 = 1;
  9650  002898  828C               	bsf	140,1,c	;volatile
  9651  00289A                     
  9652                           ;rc522.c: 41:         ucAddr <<= 1;
  9653  00289A  90D8               	bcf	status,0,c
  9654  00289C  3604               	rlcf	MFRC522_Rd2@ucAddr^0,f,c
  9655  00289E  3605               	rlcf	(MFRC522_Rd2@ucAddr+1)^0,f,c
  9656  0028A0                     
  9657                           ;rc522.c: 42:         LATDbits.LD1 = 0;
  9658  0028A0  928C               	bcf	140,1,c	;volatile
  9659  0028A2                     
  9660                           ;rc522.c: 43:     }
  9661  0028A2  0608               	decf	MFRC522_Rd2@i^0,f,c
  9662  0028A4  A0D8               	btfss	status,0,c
  9663  0028A6  0609               	decf	(MFRC522_Rd2@i+1)^0,f,c
  9664  0028A8  5008               	movf	MFRC522_Rd2@i^0,w,c
  9665  0028AA  1009               	iorwf	(MFRC522_Rd2@i+1)^0,w,c
  9666  0028AC  A4D8               	btfss	status,2,c
  9667  0028AE  EF5B  F014         	goto	u3201
  9668  0028B2  EF5D  F014         	goto	u3200
  9669  0028B6                     u3201:
  9670  0028B6  EF3A  F014         	goto	l3805
  9671  0028BA                     u3200:
  9672  0028BA                     
  9673                           ;rc522.c: 44:     for(i=8; i>0; i--)
  9674  0028BA  0E00               	movlw	0
  9675  0028BC  6E09               	movwf	(MFRC522_Rd2@i+1)^0,c
  9676  0028BE  0E08               	movlw	8
  9677  0028C0  6E08               	movwf	MFRC522_Rd2@i^0,c
  9678  0028C2                     l282:
  9679                           
  9680                           ;rc522.c: 45:     {;rc522.c: 46:         LATDbits.LD1 = 1;
  9681  0028C2  828C               	bsf	140,1,c	;volatile
  9682  0028C4                     
  9683                           ;rc522.c: 47:         ucResult <<= 1;
  9684  0028C4  90D8               	bcf	status,0,c
  9685  0028C6  3606               	rlcf	MFRC522_Rd2@ucResult^0,f,c
  9686  0028C8  3607               	rlcf	(MFRC522_Rd2@ucResult+1)^0,f,c
  9687  0028CA                     
  9688                           ;rc522.c: 48:         ucResult |= (short)PORTDbits.RD2;
  9689  0028CA  B483               	btfsc	131,2,c	;volatile
  9690  0028CC  EF6A  F014         	goto	u3211
  9691  0028D0  EF6E  F014         	goto	u3210
  9692  0028D4                     u3211:
  9693  0028D4  6A01               	clrf	??_MFRC522_Rd2^0,c
  9694  0028D6  2A01               	incf	??_MFRC522_Rd2^0,f,c
  9695  0028D8  EF6F  F014         	goto	u3218
  9696  0028DC                     u3210:
  9697  0028DC  6A01               	clrf	??_MFRC522_Rd2^0,c
  9698  0028DE                     u3218:
  9699  0028DE  5001               	movf	??_MFRC522_Rd2^0,w,c
  9700  0028E0  1206               	iorwf	MFRC522_Rd2@ucResult^0,f,c
  9701  0028E2                     
  9702                           ;rc522.c: 49:         LATDbits.LD1 = 0;
  9703  0028E2  928C               	bcf	140,1,c	;volatile
  9704  0028E4                     
  9705                           ;rc522.c: 50:     }
  9706  0028E4  0608               	decf	MFRC522_Rd2@i^0,f,c
  9707  0028E6  A0D8               	btfss	status,0,c
  9708  0028E8  0609               	decf	(MFRC522_Rd2@i+1)^0,f,c
  9709  0028EA  5008               	movf	MFRC522_Rd2@i^0,w,c
  9710  0028EC  1009               	iorwf	(MFRC522_Rd2@i+1)^0,w,c
  9711  0028EE  A4D8               	btfss	status,2,c
  9712  0028F0  EF7C  F014         	goto	u3221
  9713  0028F4  EF7E  F014         	goto	u3220
  9714  0028F8                     u3221:
  9715  0028F8  EF61  F014         	goto	l282
  9716  0028FC                     u3220:
  9717  0028FC                     
  9718                           ;rc522.c: 51:     LATAbits.LA2 = 1;
  9719  0028FC  8489               	bsf	137,2,c	;volatile
  9720                           
  9721                           ;rc522.c: 52:     LATDbits.LD1 = 1;
  9722  0028FE  828C               	bsf	140,1,c	;volatile
  9723  002900                     
  9724                           ;rc522.c: 53:     return ucResult;
  9725  002900  5006               	movf	MFRC522_Rd2@ucResult^0,w,c
  9726  002902  0012               	return		;funcret
  9727  002904                     __end_of_MFRC522_Rd2:
  9728                           	callstack 0
  9729                           
  9730 ;; *************** function _MFRC522_Halt *****************
  9731 ;; Defined at:
  9732 ;;		line 1019 in file "rc522.c"
  9733 ;; Parameters:    Size  Location     Type
  9734 ;;		None
  9735 ;; Auto vars:     Size  Location     Type
  9736 ;;  buff            4   31[COMRAM] unsigned char [4]
  9737 ;;  unLen           2   35[COMRAM] unsigned int 
  9738 ;; Return value:  Size  Location     Type
  9739 ;;                  1    wreg      void 
  9740 ;; Registers used:
  9741 ;;		wreg, fsr2l, fsr2h, status,2, status,0, prodl, prodh, cstack
  9742 ;; Tracked objects:
  9743 ;;		On entry : 0/0
  9744 ;;		On exit  : 0/0
  9745 ;;		Unchanged: 0/0
  9746 ;; Data sizes:     COMRAM   BANK0   BANK1   BANK2   BANK3   BANK4   BANK5   BANK6   BANK7
  9747 ;;      Params:         0       0       0       0       0       0       0       0       0
  9748 ;;      Locals:         6       0       0       0       0       0       0       0       0
  9749 ;;      Temps:          0       0       0       0       0       0       0       0       0
  9750 ;;      Totals:         6       0       0       0       0       0       0       0       0
  9751 ;;Total ram usage:        6 bytes
  9752 ;; Hardware stack levels used: 1
  9753 ;; Hardware stack levels required when called: 3
  9754 ;; This function calls:
  9755 ;;		_MFRC522_CRC
  9756 ;;		_MFRC522_Clear_Bit
  9757 ;;		_MFRC522_ToCard
  9758 ;; This function is called by:
  9759 ;;		_main
  9760 ;; This function uses a non-reentrant model
  9761 ;;
  9762                           
  9763                           	psect	text60
  9764  00362E                     __ptext60:
  9765                           	callstack 0
  9766  00362E                     _MFRC522_Halt:
  9767                           	callstack 27
  9768  00362E                     
  9769                           ;rc522.c: 1021:     unsigned unLen;;rc522.c: 1022:     char buff[4];;rc522.c: 1023:     
      +                          buff[0] = 0x50;
  9770  00362E  0E50               	movlw	80
  9771  003630  6E20               	movwf	MFRC522_Halt@buff^0,c
  9772                           
  9773                           ;rc522.c: 1024:     buff[1] = 0;
  9774  003632  0E00               	movlw	0
  9775  003634  6E21               	movwf	(MFRC522_Halt@buff+1)^0,c
  9776  003636                     
  9777                           ;rc522.c: 1025:     MFRC522_CRC(buff, 2, &buff[2]);
  9778  003636  0E20               	movlw	low MFRC522_Halt@buff
  9779  003638  6E0D               	movwf	MFRC522_CRC@dataIn^0,c
  9780  00363A  0E00               	movlw	high MFRC522_Halt@buff
  9781  00363C  6E0E               	movwf	(MFRC522_CRC@dataIn+1)^0,c
  9782  00363E  0E02               	movlw	2
  9783  003640  6E0F               	movwf	MFRC522_CRC@length^0,c
  9784  003642  0E22               	movlw	low (MFRC522_Halt@buff+2)
  9785  003644  6E10               	movwf	MFRC522_CRC@dataOut^0,c
  9786  003646  0E00               	movlw	high (MFRC522_Halt@buff+2)
  9787  003648  6E11               	movwf	(MFRC522_CRC@dataOut+1)^0,c
  9788  00364A  EC8B  F017         	call	_MFRC522_CRC	;wreg free
  9789  00364E                     
  9790                           ;rc522.c: 1026:     MFRC522_Clear_Bit(0x08, 0x80);
  9791  00364E  0E80               	movlw	128
  9792  003650  6E0A               	movwf	MFRC522_Clear_Bit@mask^0,c
  9793  003652  0E08               	movlw	8
  9794  003654  EC3C  F01D         	call	_MFRC522_Clear_Bit
  9795  003658                     
  9796                           ;rc522.c: 1027:     MFRC522_ToCard(0x0C, buff, 4, buff, &unLen);
  9797  003658  0E20               	movlw	low MFRC522_Halt@buff
  9798  00365A  6E0D               	movwf	MFRC522_ToCard@sendData^0,c
  9799  00365C  0E00               	movlw	high MFRC522_Halt@buff
  9800  00365E  6E0E               	movwf	(MFRC522_ToCard@sendData+1)^0,c
  9801  003660  0E04               	movlw	4
  9802  003662  6E0F               	movwf	MFRC522_ToCard@sendLen^0,c
  9803  003664  0E20               	movlw	low MFRC522_Halt@buff
  9804  003666  6E10               	movwf	MFRC522_ToCard@backData^0,c
  9805  003668  0E00               	movlw	high MFRC522_Halt@buff
  9806  00366A  6E11               	movwf	(MFRC522_ToCard@backData+1)^0,c
  9807  00366C  0E24               	movlw	low MFRC522_Halt@unLen
  9808  00366E  6E12               	movwf	MFRC522_ToCard@backLen^0,c
  9809  003670  0E00               	movlw	high MFRC522_Halt@unLen
  9810  003672  6E13               	movwf	(MFRC522_ToCard@backLen+1)^0,c
  9811  003674  0E0C               	movlw	12
  9812  003676  EC06  F00E         	call	_MFRC522_ToCard
  9813  00367A                     
  9814                           ;rc522.c: 1028:     MFRC522_Clear_Bit(0x08, 0x08);
  9815  00367A  0E08               	movlw	8
  9816  00367C  6E0A               	movwf	MFRC522_Clear_Bit@mask^0,c
  9817  00367E  0E08               	movlw	8
  9818  003680  EC3C  F01D         	call	_MFRC522_Clear_Bit
  9819  003684  0012               	return		;funcret
  9820  003686                     __end_of_MFRC522_Halt:
  9821                           	callstack 0
  9822                           
  9823 ;; *************** function _MFRC522_ToCard *****************
  9824 ;; Defined at:
  9825 ;;		line 411 in file "rc522.c"
  9826 ;; Parameters:    Size  Location     Type
  9827 ;;  command         1    wreg     unsigned char 
  9828 ;;  sendData        2   12[COMRAM] PTR unsigned char 
  9829 ;;		 -> MFRC522_Halt@buff(4), MFRC522_SelectTag@buffer(9), UID_1(20), TagType1(1), 
  9830 ;;  sendLen         1   14[COMRAM] unsigned char 
  9831 ;;  backData        2   15[COMRAM] PTR unsigned char 
  9832 ;;		 -> MFRC522_Halt@buff(4), MFRC522_SelectTag@buffer(9), UID_1(20), TagType1(1), 
  9833 ;;  backLen         2   17[COMRAM] PTR unsigned int 
  9834 ;;		 -> MFRC522_AntiColl@unLen(2), MFRC522_Halt@unLen(2), MFRC522_SelectTag@recvBits(2), MFRC522_Request@backBits(2), 
  9835 ;; Auto vars:     Size  Location     Type
  9836 ;;  command         1   27[COMRAM] unsigned char 
  9837 ;;  i               2   28[COMRAM] unsigned int 
  9838 ;;  n               1   30[COMRAM] unsigned char 
  9839 ;;  irqEn           1   26[COMRAM] unsigned char 
  9840 ;;  lastBits        1   25[COMRAM] unsigned char 
  9841 ;;  _status         1   24[COMRAM] unsigned char 
  9842 ;;  waitIRq         1   23[COMRAM] unsigned char 
  9843 ;; Return value:  Size  Location     Type
  9844 ;;                  1    wreg      unsigned char 
  9845 ;; Registers used:
  9846 ;;		wreg, fsr2l, fsr2h, status,2, status,0, prodl, prodh, cstack
  9847 ;; Tracked objects:
  9848 ;;		On entry : 0/0
  9849 ;;		On exit  : 0/0
  9850 ;;		Unchanged: 0/0
  9851 ;; Data sizes:     COMRAM   BANK0   BANK1   BANK2   BANK3   BANK4   BANK5   BANK6   BANK7
  9852 ;;      Params:         7       0       0       0       0       0       0       0       0
  9853 ;;      Locals:         8       0       0       0       0       0       0       0       0
  9854 ;;      Temps:          4       0       0       0       0       0       0       0       0
  9855 ;;      Totals:        19       0       0       0       0       0       0       0       0
  9856 ;;Total ram usage:       19 bytes
  9857 ;; Hardware stack levels used: 1
  9858 ;; Hardware stack levels required when called: 2
  9859 ;; This function calls:
  9860 ;;		_MFRC522_Clear_Bit
  9861 ;;		_MFRC522_Rd
  9862 ;;		_MFRC522_Set_Bit
  9863 ;;		_MFRC522_Wr
  9864 ;; This function is called by:
  9865 ;;		_MFRC522_Request
  9866 ;;		_MFRC522_Halt
  9867 ;;		_MFRC522_AntiColl
  9868 ;;		_MFRC522_SelectTag
  9869 ;; This function uses a non-reentrant model
  9870 ;;
  9871                           
  9872                           	psect	text61
  9873  001C0C                     __ptext61:
  9874                           	callstack 0
  9875  001C0C                     _MFRC522_ToCard:
  9876                           	callstack 26
  9877                           
  9878                           ;incstack = 0
  9879                           ;MFRC522_ToCard@command stored from wreg
  9880  001C0C  6E1C               	movwf	MFRC522_ToCard@command^0,c
  9881  001C0E                     
  9882                           ;rc522.c: 411: char MFRC522_ToCard(char command, char *sendData, char sendLen, char *bac
      +                          kData, unsigned *backLen);rc522.c: 412: {;rc522.c: 413:     char _status = 2;
  9883  001C0E  0E02               	movlw	2
  9884  001C10  6E19               	movwf	MFRC522_ToCard@_status^0,c
  9885                           
  9886                           ;rc522.c: 414:     char irqEn = 0x00;
  9887  001C12  0E00               	movlw	0
  9888  001C14  6E1B               	movwf	MFRC522_ToCard@irqEn^0,c
  9889                           
  9890                           ;rc522.c: 415:     char waitIRq = 0x00;
  9891  001C16  0E00               	movlw	0
  9892  001C18  6E18               	movwf	MFRC522_ToCard@waitIRq^0,c
  9893                           
  9894                           ;rc522.c: 416:     char lastBits;;rc522.c: 417:     char n;;rc522.c: 418:     unsigned i
      +                          ;;rc522.c: 420:     switch(command)
  9895  001C1A  EF1B  F00E         	goto	l4231
  9896  001C1E                     l4225:
  9897                           
  9898                           ;rc522.c: 423:             irqEn = 0x12;
  9899  001C1E  0E12               	movlw	18
  9900  001C20  6E1B               	movwf	MFRC522_ToCard@irqEn^0,c
  9901                           
  9902                           ;rc522.c: 424:             waitIRq = 0x10;
  9903  001C22  0E10               	movlw	16
  9904  001C24  6E18               	movwf	MFRC522_ToCard@waitIRq^0,c
  9905                           
  9906                           ;rc522.c: 425:             break;
  9907  001C26  EF30  F00E         	goto	l4233
  9908  001C2A                     l4227:
  9909                           
  9910                           ;rc522.c: 428:             irqEn = 0x77;
  9911  001C2A  0E77               	movlw	119
  9912  001C2C  6E1B               	movwf	MFRC522_ToCard@irqEn^0,c
  9913                           
  9914                           ;rc522.c: 429:             waitIRq = 0x30;
  9915  001C2E  0E30               	movlw	48
  9916  001C30  6E18               	movwf	MFRC522_ToCard@waitIRq^0,c
  9917                           
  9918                           ;rc522.c: 430:             break;
  9919  001C32  EF30  F00E         	goto	l4233
  9920  001C36                     l4231:
  9921  001C36  501C               	movf	MFRC522_ToCard@command^0,w,c
  9922  001C38  6E14               	movwf	??_MFRC522_ToCard^0,c
  9923  001C3A  6A15               	clrf	(??_MFRC522_ToCard+1)^0,c
  9924                           
  9925                           ; Switch on 2 bytes has been partitioned into a top level switch of size 1, and 1 sub-sw
      +                          itches
  9926                           ; Switch size 1, requested type "simple"
  9927                           ; Number of cases is 1, Range of values is 0 to 0
  9928                           ; switch strategies available:
  9929                           ; Name         Instructions Cycles
  9930                           ; simple_byte            4     3 (average)
  9931                           ;	Chosen strategy is simple_byte
  9932  001C3C  5015               	movf	(??_MFRC522_ToCard+1)^0,w,c
  9933  001C3E  0A00               	xorlw	0	; case 0
  9934  001C40  B4D8               	btfsc	status,2,c
  9935  001C42  EF25  F00E         	goto	l5943
  9936  001C46  EF30  F00E         	goto	l4233
  9937  001C4A                     l5943:
  9938                           
  9939                           ; Switch size 1, requested type "simple"
  9940                           ; Number of cases is 2, Range of values is 12 to 14
  9941                           ; switch strategies available:
  9942                           ; Name         Instructions Cycles
  9943                           ; simple_byte            7     4 (average)
  9944                           ;	Chosen strategy is simple_byte
  9945  001C4A  5014               	movf	??_MFRC522_ToCard^0,w,c
  9946  001C4C  0A0C               	xorlw	12	; case 12
  9947  001C4E  B4D8               	btfsc	status,2,c
  9948  001C50  EF15  F00E         	goto	l4227
  9949  001C54  0A02               	xorlw	2	; case 14
  9950  001C56  B4D8               	btfsc	status,2,c
  9951  001C58  EF0F  F00E         	goto	l4225
  9952  001C5C  EF30  F00E         	goto	l4233
  9953  001C60                     l4233:
  9954                           
  9955                           ;rc522.c: 435:     MFRC522_Wr(0x02, irqEn | 0x80);
  9956  001C60  501B               	movf	MFRC522_ToCard@irqEn^0,w,c
  9957  001C62  0980               	iorlw	128
  9958  001C64  6E01               	movwf	MFRC522_Wr@value^0,c
  9959  001C66  0E02               	movlw	2
  9960  001C68  EC0D  F019         	call	_MFRC522_Wr
  9961                           
  9962                           ;rc522.c: 436:     MFRC522_Clear_Bit(0x04, 0x80);
  9963  001C6C  0E80               	movlw	128
  9964  001C6E  6E0A               	movwf	MFRC522_Clear_Bit@mask^0,c
  9965  001C70  0E04               	movlw	4
  9966  001C72  EC3C  F01D         	call	_MFRC522_Clear_Bit
  9967                           
  9968                           ;rc522.c: 437:     MFRC522_Set_Bit(0x0A, 0x80);
  9969  001C76  0E80               	movlw	128
  9970  001C78  6E0A               	movwf	MFRC522_Set_Bit@mask^0,c
  9971  001C7A  0E0A               	movlw	10
  9972  001C7C  EC6D  F01D         	call	_MFRC522_Set_Bit
  9973                           
  9974                           ;rc522.c: 438:     MFRC522_Wr(0x01, 0x00);
  9975  001C80  0E00               	movlw	0
  9976  001C82  6E01               	movwf	MFRC522_Wr@value^0,c
  9977  001C84  0E01               	movlw	1
  9978  001C86  EC0D  F019         	call	_MFRC522_Wr
  9979  001C8A                     
  9980                           ;rc522.c: 440:     for(i=0; i<sendLen; i++)
  9981  001C8A  0E00               	movlw	0
  9982  001C8C  6E1E               	movwf	(MFRC522_ToCard@i+1)^0,c
  9983  001C8E  0E00               	movlw	0
  9984  001C90  6E1D               	movwf	MFRC522_ToCard@i^0,c
  9985  001C92  EF58  F00E         	goto	l4241
  9986  001C96                     l4237:
  9987                           
  9988                           ;rc522.c: 441:     {;rc522.c: 442:         MFRC522_Wr(0x09, sendData[i]);
  9989  001C96  501D               	movf	MFRC522_ToCard@i^0,w,c
  9990  001C98  240D               	addwf	MFRC522_ToCard@sendData^0,w,c
  9991  001C9A  6ED9               	movwf	fsr2l,c
  9992  001C9C  501E               	movf	(MFRC522_ToCard@i+1)^0,w,c
  9993  001C9E  200E               	addwfc	(MFRC522_ToCard@sendData+1)^0,w,c
  9994  001CA0  6EDA               	movwf	fsr2h,c
  9995  001CA2  50DF               	movf	indf2,w,c
  9996  001CA4  6E01               	movwf	MFRC522_Wr@value^0,c
  9997  001CA6  0E09               	movlw	9
  9998  001CA8  EC0D  F019         	call	_MFRC522_Wr
  9999  001CAC                     
 10000                           ;rc522.c: 443:     }
 10001  001CAC  4A1D               	infsnz	MFRC522_ToCard@i^0,f,c
 10002  001CAE  2A1E               	incf	(MFRC522_ToCard@i+1)^0,f,c
 10003  001CB0                     l4241:
 10004  001CB0  500F               	movf	MFRC522_ToCard@sendLen^0,w,c
 10005  001CB2  6E14               	movwf	??_MFRC522_ToCard^0,c
 10006  001CB4  6A15               	clrf	(??_MFRC522_ToCard+1)^0,c
 10007  001CB6  5014               	movf	??_MFRC522_ToCard^0,w,c
 10008  001CB8  5C1D               	subwf	MFRC522_ToCard@i^0,w,c
 10009  001CBA  5015               	movf	(??_MFRC522_ToCard+1)^0,w,c
 10010  001CBC  581E               	subwfb	(MFRC522_ToCard@i+1)^0,w,c
 10011  001CBE  A0D8               	btfss	status,0,c
 10012  001CC0  EF64  F00E         	goto	u3791
 10013  001CC4  EF66  F00E         	goto	u3790
 10014  001CC8                     u3791:
 10015  001CC8  EF4B  F00E         	goto	l4237
 10016  001CCC                     u3790:
 10017  001CCC                     
 10018                           ;rc522.c: 444:     MFRC522_Wr(0x01, command);
 10019  001CCC  C01C  F001         	movff	MFRC522_ToCard@command,MFRC522_Wr@value
 10020  001CD0  0E01               	movlw	1
 10021  001CD2  EC0D  F019         	call	_MFRC522_Wr
 10022  001CD6                     
 10023                           ;rc522.c: 445:     if(command == 0x0C)
 10024  001CD6  0E0C               	movlw	12
 10025  001CD8  181C               	xorwf	MFRC522_ToCard@command^0,w,c
 10026  001CDA  A4D8               	btfss	status,2,c
 10027  001CDC  EF72  F00E         	goto	u3801
 10028  001CE0  EF74  F00E         	goto	u3800
 10029  001CE4                     u3801:
 10030  001CE4  EF79  F00E         	goto	l4249
 10031  001CE8                     u3800:
 10032  001CE8                     
 10033                           ;rc522.c: 446:     {;rc522.c: 447:         MFRC522_Set_Bit(0x0D, 0x80);
 10034  001CE8  0E80               	movlw	128
 10035  001CEA  6E0A               	movwf	MFRC522_Set_Bit@mask^0,c
 10036  001CEC  0E0D               	movlw	13
 10037  001CEE  EC6D  F01D         	call	_MFRC522_Set_Bit
 10038  001CF2                     l4249:
 10039                           
 10040                           ;rc522.c: 449:     i = 0xFFFF;
 10041  001CF2  681D               	setf	MFRC522_ToCard@i^0,c
 10042  001CF4  681E               	setf	(MFRC522_ToCard@i+1)^0,c
 10043  001CF6                     l392:
 10044                           
 10045                           ;rc522.c: 451:     {;rc522.c: 452:         n = MFRC522_Rd(0x04);
 10046  001CF6  0E04               	movlw	4
 10047  001CF8  EC82  F014         	call	_MFRC522_Rd
 10048  001CFC  6E1F               	movwf	MFRC522_ToCard@n^0,c
 10049  001CFE                     
 10050                           ;rc522.c: 453:         i--;
 10051  001CFE  061D               	decf	MFRC522_ToCard@i^0,f,c
 10052  001D00  A0D8               	btfss	status,0,c
 10053  001D02  061E               	decf	(MFRC522_ToCard@i+1)^0,f,c
 10054  001D04                     
 10055                           ;rc522.c: 454:     }while(i && !(n & 0x01) && !(n & waitIRq));
 10056  001D04  501D               	movf	MFRC522_ToCard@i^0,w,c
 10057  001D06  101E               	iorwf	(MFRC522_ToCard@i+1)^0,w,c
 10058  001D08  B4D8               	btfsc	status,2,c
 10059  001D0A  EF89  F00E         	goto	u3811
 10060  001D0E  EF8B  F00E         	goto	u3810
 10061  001D12                     u3811:
 10062  001D12  EF9C  F00E         	goto	l4259
 10063  001D16                     u3810:
 10064  001D16  B01F               	btfsc	MFRC522_ToCard@n^0,0,c
 10065  001D18  EF90  F00E         	goto	u3821
 10066  001D1C  EF92  F00E         	goto	u3820
 10067  001D20                     u3821:
 10068  001D20  EF9C  F00E         	goto	l4259
 10069  001D24                     u3820:
 10070  001D24  501F               	movf	MFRC522_ToCard@n^0,w,c
 10071  001D26  1418               	andwf	MFRC522_ToCard@waitIRq^0,w,c
 10072  001D28  0900               	iorlw	0
 10073  001D2A  B4D8               	btfsc	status,2,c
 10074  001D2C  EF9A  F00E         	goto	u3831
 10075  001D30  EF9C  F00E         	goto	u3830
 10076  001D34                     u3831:
 10077  001D34  EF7B  F00E         	goto	l392
 10078  001D38                     u3830:
 10079  001D38                     l4259:
 10080                           
 10081                           ;rc522.c: 456:     MFRC522_Clear_Bit(0x0D, 0x80);
 10082  001D38  0E80               	movlw	128
 10083  001D3A  6E0A               	movwf	MFRC522_Clear_Bit@mask^0,c
 10084  001D3C  0E0D               	movlw	13
 10085  001D3E  EC3C  F01D         	call	_MFRC522_Clear_Bit
 10086  001D42                     
 10087                           ;rc522.c: 457:     if(i != 0)
 10088  001D42  501D               	movf	MFRC522_ToCard@i^0,w,c
 10089  001D44  101E               	iorwf	(MFRC522_ToCard@i+1)^0,w,c
 10090  001D46  B4D8               	btfsc	status,2,c
 10091  001D48  EFA8  F00E         	goto	u3841
 10092  001D4C  EFAA  F00E         	goto	u3840
 10093  001D50                     u3841:
 10094  001D50  EF4B  F00F         	goto	l396
 10095  001D54                     u3840:
 10096  001D54                     
 10097                           ;rc522.c: 458:     {;rc522.c: 459:         if(!(MFRC522_Rd(0x06) & 0x1B))
 10098  001D54  0E06               	movlw	6
 10099  001D56  EC82  F014         	call	_MFRC522_Rd
 10100  001D5A  6E14               	movwf	??_MFRC522_ToCard^0,c
 10101  001D5C  0E1B               	movlw	27
 10102  001D5E  1614               	andwf	??_MFRC522_ToCard^0,f,c
 10103  001D60  A4D8               	btfss	status,2,c
 10104  001D62  EFB5  F00E         	goto	u3851
 10105  001D66  EFB7  F00E         	goto	u3850
 10106  001D6A                     u3851:
 10107  001D6A  EF49  F00F         	goto	l4297
 10108  001D6E                     u3850:
 10109  001D6E                     
 10110                           ;rc522.c: 460:         {;rc522.c: 461:             _status = 0;
 10111  001D6E  0E00               	movlw	0
 10112  001D70  6E19               	movwf	MFRC522_ToCard@_status^0,c
 10113  001D72                     
 10114                           ;rc522.c: 462:             if(n & irqEn & 0x01)
 10115  001D72  501F               	movf	MFRC522_ToCard@n^0,w,c
 10116  001D74  141B               	andwf	MFRC522_ToCard@irqEn^0,w,c
 10117  001D76  6E14               	movwf	??_MFRC522_ToCard^0,c
 10118  001D78  A014               	btfss	??_MFRC522_ToCard^0,0,c
 10119  001D7A  EFC1  F00E         	goto	u3861
 10120  001D7E  EFC3  F00E         	goto	u3860
 10121  001D82                     u3861:
 10122  001D82  EFC5  F00E         	goto	l4271
 10123  001D86                     u3860:
 10124  001D86                     
 10125                           ;rc522.c: 463:             {;rc522.c: 464:                 _status = 1;
 10126  001D86  0E01               	movlw	1
 10127  001D88  6E19               	movwf	MFRC522_ToCard@_status^0,c
 10128  001D8A                     l4271:
 10129                           
 10130                           ;rc522.c: 466:             if(command == 0x0C)
 10131  001D8A  0E0C               	movlw	12
 10132  001D8C  181C               	xorwf	MFRC522_ToCard@command^0,w,c
 10133  001D8E  A4D8               	btfss	status,2,c
 10134  001D90  EFCC  F00E         	goto	u3871
 10135  001D94  EFCE  F00E         	goto	u3870
 10136  001D98                     u3871:
 10137  001D98  EF4B  F00F         	goto	l396
 10138  001D9C                     u3870:
 10139  001D9C                     
 10140                           ;rc522.c: 467:             {;rc522.c: 468:                 n = MFRC522_Rd(0x0A);
 10141  001D9C  0E0A               	movlw	10
 10142  001D9E  EC82  F014         	call	_MFRC522_Rd
 10143  001DA2  6E1F               	movwf	MFRC522_ToCard@n^0,c
 10144                           
 10145                           ;rc522.c: 469:                 lastBits = MFRC522_Rd(0x0C) & 0x07;
 10146  001DA4  0E0C               	movlw	12
 10147  001DA6  EC82  F014         	call	_MFRC522_Rd
 10148  001DAA  0B07               	andlw	7
 10149  001DAC  6E1A               	movwf	MFRC522_ToCard@lastBits^0,c
 10150  001DAE                     
 10151                           ;rc522.c: 470:                 if(lastBits)
 10152  001DAE  501A               	movf	MFRC522_ToCard@lastBits^0,w,c
 10153  001DB0  B4D8               	btfsc	status,2,c
 10154  001DB2  EFDD  F00E         	goto	u3881
 10155  001DB6  EFDF  F00E         	goto	u3880
 10156  001DBA                     u3881:
 10157  001DBA  EF01  F00F         	goto	l4279
 10158  001DBE                     u3880:
 10159  001DBE                     
 10160                           ;rc522.c: 471:                 {;rc522.c: 472:                     *backLen = (n-1) * 8 
      +                          + lastBits;
 10161  001DBE  0EF8               	movlw	248
 10162  001DC0  6E14               	movwf	??_MFRC522_ToCard^0,c
 10163  001DC2  0EFF               	movlw	255
 10164  001DC4  6E15               	movwf	(??_MFRC522_ToCard+1)^0,c
 10165  001DC6  501A               	movf	MFRC522_ToCard@lastBits^0,w,c
 10166  001DC8  C01F  F016         	movff	MFRC522_ToCard@n,??_MFRC522_ToCard+2
 10167  001DCC  6A17               	clrf	(??_MFRC522_ToCard+3)^0,c
 10168  001DCE  90D8               	bcf	status,0,c
 10169  001DD0  3616               	rlcf	(??_MFRC522_ToCard+2)^0,f,c
 10170  001DD2  3617               	rlcf	(??_MFRC522_ToCard+3)^0,f,c
 10171  001DD4  90D8               	bcf	status,0,c
 10172  001DD6  3616               	rlcf	(??_MFRC522_ToCard+2)^0,f,c
 10173  001DD8  3617               	rlcf	(??_MFRC522_ToCard+3)^0,f,c
 10174  001DDA  90D8               	bcf	status,0,c
 10175  001DDC  3616               	rlcf	(??_MFRC522_ToCard+2)^0,f,c
 10176  001DDE  3617               	rlcf	(??_MFRC522_ToCard+3)^0,f,c
 10177  001DE0  2616               	addwf	(??_MFRC522_ToCard+2)^0,f,c
 10178  001DE2  0E00               	movlw	0
 10179  001DE4  2217               	addwfc	(??_MFRC522_ToCard+3)^0,f,c
 10180  001DE6  5014               	movf	??_MFRC522_ToCard^0,w,c
 10181  001DE8  2616               	addwf	(??_MFRC522_ToCard+2)^0,f,c
 10182  001DEA  5015               	movf	(??_MFRC522_ToCard+1)^0,w,c
 10183  001DEC  2217               	addwfc	(??_MFRC522_ToCard+3)^0,f,c
 10184  001DEE  C012  FFD9         	movff	MFRC522_ToCard@backLen,fsr2l
 10185  001DF2  C013  FFDA         	movff	MFRC522_ToCard@backLen+1,fsr2h
 10186  001DF6  C016  FFDE         	movff	??_MFRC522_ToCard+2,postinc2
 10187  001DFA  C017  FFDD         	movff	??_MFRC522_ToCard+3,postdec2
 10188                           
 10189                           ;rc522.c: 473:                 }
 10190  001DFE  EF0B  F00F         	goto	l4281
 10191  001E02                     l4279:
 10192                           
 10193                           ;rc522.c: 475:                 {;rc522.c: 476:                     *backLen = n * 8;
 10194  001E02  501F               	movf	MFRC522_ToCard@n^0,w,c
 10195  001E04  0D08               	mullw	8
 10196  001E06  C012  FFD9         	movff	MFRC522_ToCard@backLen,fsr2l
 10197  001E0A  C013  FFDA         	movff	MFRC522_ToCard@backLen+1,fsr2h
 10198  001E0E  CFF3 FFDE          	movff	prodl,postinc2
 10199  001E12  CFF4 FFDD          	movff	prodh,postdec2
 10200  001E16                     l4281:
 10201                           
 10202                           ;rc522.c: 478:                 if(n == 0)
 10203  001E16  501F               	movf	MFRC522_ToCard@n^0,w,c
 10204  001E18  A4D8               	btfss	status,2,c
 10205  001E1A  EF11  F00F         	goto	u3891
 10206  001E1E  EF13  F00F         	goto	u3890
 10207  001E22                     u3891:
 10208  001E22  EF15  F00F         	goto	l4285
 10209  001E26                     u3890:
 10210  001E26                     
 10211                           ;rc522.c: 479:                 {;rc522.c: 480:                     n = 1;
 10212  001E26  0E01               	movlw	1
 10213  001E28  6E1F               	movwf	MFRC522_ToCard@n^0,c
 10214  001E2A                     l4285:
 10215                           
 10216                           ;rc522.c: 482:                 if(n > 16)
 10217  001E2A  0E10               	movlw	16
 10218  001E2C  641F               	cpfsgt	MFRC522_ToCard@n^0,c
 10219  001E2E  EF1B  F00F         	goto	u3901
 10220  001E32  EF1D  F00F         	goto	u3900
 10221  001E36                     u3901:
 10222  001E36  EF1F  F00F         	goto	l403
 10223  001E3A                     u3900:
 10224  001E3A                     
 10225                           ;rc522.c: 483:                 {;rc522.c: 484:                     n = 16;
 10226  001E3A  0E10               	movlw	16
 10227  001E3C  6E1F               	movwf	MFRC522_ToCard@n^0,c
 10228  001E3E                     l403:
 10229                           
 10230                           ;rc522.c: 486:                 for(i=0; i<n; i++)
 10231  001E3E  0E00               	movlw	0
 10232  001E40  6E1E               	movwf	(MFRC522_ToCard@i+1)^0,c
 10233  001E42  0E00               	movlw	0
 10234  001E44  6E1D               	movwf	MFRC522_ToCard@i^0,c
 10235  001E46  EF31  F00F         	goto	l4293
 10236  001E4A                     l4289:
 10237                           
 10238                           ;rc522.c: 487:                 {;rc522.c: 488:                     backData[i] = MFRC522
      +                          _Rd(0x09);
 10239  001E4A  501D               	movf	MFRC522_ToCard@i^0,w,c
 10240  001E4C  2410               	addwf	MFRC522_ToCard@backData^0,w,c
 10241  001E4E  6ED9               	movwf	fsr2l,c
 10242  001E50  501E               	movf	(MFRC522_ToCard@i+1)^0,w,c
 10243  001E52  2011               	addwfc	(MFRC522_ToCard@backData+1)^0,w,c
 10244  001E54  6EDA               	movwf	fsr2h,c
 10245  001E56  0E09               	movlw	9
 10246  001E58  EC82  F014         	call	_MFRC522_Rd
 10247  001E5C  6EDF               	movwf	indf2,c
 10248  001E5E                     
 10249                           ;rc522.c: 489:                 }
 10250  001E5E  4A1D               	infsnz	MFRC522_ToCard@i^0,f,c
 10251  001E60  2A1E               	incf	(MFRC522_ToCard@i+1)^0,f,c
 10252  001E62                     l4293:
 10253  001E62  501F               	movf	MFRC522_ToCard@n^0,w,c
 10254  001E64  6E14               	movwf	??_MFRC522_ToCard^0,c
 10255  001E66  6A15               	clrf	(??_MFRC522_ToCard+1)^0,c
 10256  001E68  5014               	movf	??_MFRC522_ToCard^0,w,c
 10257  001E6A  5C1D               	subwf	MFRC522_ToCard@i^0,w,c
 10258  001E6C  5015               	movf	(??_MFRC522_ToCard+1)^0,w,c
 10259  001E6E  581E               	subwfb	(MFRC522_ToCard@i+1)^0,w,c
 10260  001E70  A0D8               	btfss	status,0,c
 10261  001E72  EF3D  F00F         	goto	u3911
 10262  001E76  EF3F  F00F         	goto	u3910
 10263  001E7A                     u3911:
 10264  001E7A  EF25  F00F         	goto	l4289
 10265  001E7E                     u3910:
 10266  001E7E                     
 10267                           ;rc522.c: 490:                 backData[i] = 0;
 10268  001E7E  501D               	movf	MFRC522_ToCard@i^0,w,c
 10269  001E80  2410               	addwf	MFRC522_ToCard@backData^0,w,c
 10270  001E82  6ED9               	movwf	fsr2l,c
 10271  001E84  501E               	movf	(MFRC522_ToCard@i+1)^0,w,c
 10272  001E86  2011               	addwfc	(MFRC522_ToCard@backData+1)^0,w,c
 10273  001E88  6EDA               	movwf	fsr2h,c
 10274  001E8A  0E00               	movlw	0
 10275  001E8C  6EDF               	movwf	indf2,c
 10276  001E8E  EF4B  F00F         	goto	l396
 10277  001E92                     l4297:
 10278                           
 10279                           ;rc522.c: 494:         {;rc522.c: 495:             _status = 2;
 10280  001E92  0E02               	movlw	2
 10281  001E94  6E19               	movwf	MFRC522_ToCard@_status^0,c
 10282  001E96                     l396:
 10283                           
 10284                           ;rc522.c: 498:     return _status;
 10285  001E96  5019               	movf	MFRC522_ToCard@_status^0,w,c
 10286  001E98  0012               	return		;funcret
 10287  001E9A                     __end_of_MFRC522_ToCard:
 10288                           	callstack 0
 10289                           
 10290 ;; *************** function _MFRC522_CRC *****************
 10291 ;; Defined at:
 10292 ;;		line 827 in file "rc522.c"
 10293 ;; Parameters:    Size  Location     Type
 10294 ;;  dataIn          2   12[COMRAM] PTR unsigned char 
 10295 ;;		 -> MFRC522_Halt@buff(4), MFRC522_SelectTag@buffer(9), 
 10296 ;;  length          1   14[COMRAM] unsigned char 
 10297 ;;  dataOut         2   15[COMRAM] PTR unsigned char 
 10298 ;;		 -> MFRC522_Halt@buff(4), MFRC522_SelectTag@buffer(9), 
 10299 ;; Auto vars:     Size  Location     Type
 10300 ;;  i               1   18[COMRAM] unsigned char 
 10301 ;;  n               1   17[COMRAM] unsigned char 
 10302 ;; Return value:  Size  Location     Type
 10303 ;;                  1    wreg      void 
 10304 ;; Registers used:
 10305 ;;		wreg, fsr2l, fsr2h, status,2, status,0, cstack
 10306 ;; Tracked objects:
 10307 ;;		On entry : 0/0
 10308 ;;		On exit  : 0/0
 10309 ;;		Unchanged: 0/0
 10310 ;; Data sizes:     COMRAM   BANK0   BANK1   BANK2   BANK3   BANK4   BANK5   BANK6   BANK7
 10311 ;;      Params:         5       0       0       0       0       0       0       0       0
 10312 ;;      Locals:         2       0       0       0       0       0       0       0       0
 10313 ;;      Temps:          0       0       0       0       0       0       0       0       0
 10314 ;;      Totals:         7       0       0       0       0       0       0       0       0
 10315 ;;Total ram usage:        7 bytes
 10316 ;; Hardware stack levels used: 1
 10317 ;; Hardware stack levels required when called: 2
 10318 ;; This function calls:
 10319 ;;		_MFRC522_Clear_Bit
 10320 ;;		_MFRC522_Rd
 10321 ;;		_MFRC522_Set_Bit
 10322 ;;		_MFRC522_Wr
 10323 ;; This function is called by:
 10324 ;;		_MFRC522_Halt
 10325 ;;		_MFRC522_SelectTag
 10326 ;; This function uses a non-reentrant model
 10327 ;;
 10328                           
 10329                           	psect	text62
 10330  002F16                     __ptext62:
 10331                           	callstack 0
 10332  002F16                     _MFRC522_CRC:
 10333                           	callstack 27
 10334  002F16                     
 10335                           ;rc522.c: 827: void MFRC522_CRC(char *dataIn, char length, char *dataOut);rc522.c: 828: 
      +                          {;rc522.c: 829:     char i, n;;rc522.c: 830:     MFRC522_Clear_Bit(0x05, 0x04);
 10336  002F16  0E04               	movlw	4
 10337  002F18  6E0A               	movwf	MFRC522_Clear_Bit@mask^0,c
 10338  002F1A  0E05               	movlw	5
 10339  002F1C  EC3C  F01D         	call	_MFRC522_Clear_Bit
 10340                           
 10341                           ;rc522.c: 831:     MFRC522_Set_Bit(0x0A, 0x80);
 10342  002F20  0E80               	movlw	128
 10343  002F22  6E0A               	movwf	MFRC522_Set_Bit@mask^0,c
 10344  002F24  0E0A               	movlw	10
 10345  002F26  EC6D  F01D         	call	_MFRC522_Set_Bit
 10346  002F2A                     
 10347                           ;rc522.c: 832:     for(i=0; i<length; i++)
 10348  002F2A  0E00               	movlw	0
 10349  002F2C  6E13               	movwf	MFRC522_CRC@i^0,c
 10350  002F2E  EFA5  F017         	goto	l4819
 10351  002F32                     l4813:
 10352                           
 10353                           ;rc522.c: 833:     {;rc522.c: 834:         MFRC522_Wr(0x09, *dataIn++);
 10354  002F32  C00D  FFD9         	movff	MFRC522_CRC@dataIn,fsr2l
 10355  002F36  C00E  FFDA         	movff	MFRC522_CRC@dataIn+1,fsr2h
 10356  002F3A  50DF               	movf	indf2,w,c
 10357  002F3C  6E01               	movwf	MFRC522_Wr@value^0,c
 10358  002F3E  0E09               	movlw	9
 10359  002F40  EC0D  F019         	call	_MFRC522_Wr
 10360  002F44  4A0D               	infsnz	MFRC522_CRC@dataIn^0,f,c
 10361  002F46  2A0E               	incf	(MFRC522_CRC@dataIn+1)^0,f,c
 10362  002F48                     
 10363                           ;rc522.c: 835:     }
 10364  002F48  2A13               	incf	MFRC522_CRC@i^0,f,c
 10365  002F4A                     l4819:
 10366  002F4A  500F               	movf	MFRC522_CRC@length^0,w,c
 10367  002F4C  5C13               	subwf	MFRC522_CRC@i^0,w,c
 10368  002F4E  A0D8               	btfss	status,0,c
 10369  002F50  EFAC  F017         	goto	u4521
 10370  002F54  EFAE  F017         	goto	u4520
 10371  002F58                     u4521:
 10372  002F58  EF99  F017         	goto	l4813
 10373  002F5C                     u4520:
 10374  002F5C                     
 10375                           ;rc522.c: 836:     MFRC522_Wr(0x01, 0x03);
 10376  002F5C  0E03               	movlw	3
 10377  002F5E  6E01               	movwf	MFRC522_Wr@value^0,c
 10378  002F60  0E01               	movlw	1
 10379  002F62  EC0D  F019         	call	_MFRC522_Wr
 10380  002F66                     
 10381                           ;rc522.c: 837:     i = 0xFF;
 10382  002F66  6813               	setf	MFRC522_CRC@i^0,c
 10383  002F68                     l522:
 10384                           
 10385                           ;rc522.c: 839:     {;rc522.c: 840:         n = MFRC522_Rd( 0x05 );
 10386  002F68  0E05               	movlw	5
 10387  002F6A  EC82  F014         	call	_MFRC522_Rd
 10388  002F6E  6E12               	movwf	MFRC522_CRC@n^0,c
 10389  002F70                     
 10390                           ;rc522.c: 841:         i--;
 10391  002F70  0613               	decf	MFRC522_CRC@i^0,f,c
 10392  002F72                     
 10393                           ;rc522.c: 842:     }
 10394  002F72  5013               	movf	MFRC522_CRC@i^0,w,c
 10395  002F74  B4D8               	btfsc	status,2,c
 10396  002F76  EFBF  F017         	goto	u4531
 10397  002F7A  EFC1  F017         	goto	u4530
 10398  002F7E                     u4531:
 10399  002F7E  EFC8  F017         	goto	l4831
 10400  002F82                     u4530:
 10401  002F82  A412               	btfss	MFRC522_CRC@n^0,2,c
 10402  002F84  EFC6  F017         	goto	u4541
 10403  002F88  EFC8  F017         	goto	u4540
 10404  002F8C                     u4541:
 10405  002F8C  EFB4  F017         	goto	l522
 10406  002F90                     u4540:
 10407  002F90                     l4831:
 10408                           
 10409                           ;rc522.c: 844:     dataOut[0] = MFRC522_Rd(0x22);
 10410  002F90  0E22               	movlw	34
 10411  002F92  EC82  F014         	call	_MFRC522_Rd
 10412  002F96  C010  FFD9         	movff	MFRC522_CRC@dataOut,fsr2l
 10413  002F9A  C011  FFDA         	movff	MFRC522_CRC@dataOut+1,fsr2h
 10414  002F9E  6EDF               	movwf	indf2,c
 10415                           
 10416                           ;rc522.c: 845:     dataOut[1] = MFRC522_Rd(0x21);
 10417  002FA0  EE20 F001          	lfsr	2,1
 10418  002FA4  5010               	movf	MFRC522_CRC@dataOut^0,w,c
 10419  002FA6  26D9               	addwf	fsr2l,f,c
 10420  002FA8  5011               	movf	(MFRC522_CRC@dataOut+1)^0,w,c
 10421  002FAA  22DA               	addwfc	fsr2h,f,c
 10422  002FAC  0E21               	movlw	33
 10423  002FAE  EC82  F014         	call	_MFRC522_Rd
 10424  002FB2  6EDF               	movwf	indf2,c
 10425  002FB4  0012               	return		;funcret
 10426  002FB6                     __end_of_MFRC522_CRC:
 10427                           	callstack 0
 10428                           
 10429 ;; *************** function _MFRC522_Set_Bit *****************
 10430 ;; Defined at:
 10431 ;;		line 239 in file "rc522.c"
 10432 ;; Parameters:    Size  Location     Type
 10433 ;;  addr            1    wreg     unsigned char 
 10434 ;;  mask            1    9[COMRAM] unsigned char 
 10435 ;; Auto vars:     Size  Location     Type
 10436 ;;  addr            1   11[COMRAM] unsigned char 
 10437 ;;  tmp             1   10[COMRAM] unsigned char 
 10438 ;; Return value:  Size  Location     Type
 10439 ;;                  1    wreg      void 
 10440 ;; Registers used:
 10441 ;;		wreg, status,2, status,0, cstack
 10442 ;; Tracked objects:
 10443 ;;		On entry : 0/0
 10444 ;;		On exit  : 0/0
 10445 ;;		Unchanged: 0/0
 10446 ;; Data sizes:     COMRAM   BANK0   BANK1   BANK2   BANK3   BANK4   BANK5   BANK6   BANK7
 10447 ;;      Params:         1       0       0       0       0       0       0       0       0
 10448 ;;      Locals:         2       0       0       0       0       0       0       0       0
 10449 ;;      Temps:          0       0       0       0       0       0       0       0       0
 10450 ;;      Totals:         3       0       0       0       0       0       0       0       0
 10451 ;;Total ram usage:        3 bytes
 10452 ;; Hardware stack levels used: 1
 10453 ;; Hardware stack levels required when called: 1
 10454 ;; This function calls:
 10455 ;;		_MFRC522_Rd
 10456 ;;		_MFRC522_Wr
 10457 ;; This function is called by:
 10458 ;;		_MFRC522_AntennaOn
 10459 ;;		_MFRC522_ToCard
 10460 ;;		_MFRC522_CRC
 10461 ;; This function uses a non-reentrant model
 10462 ;;
 10463                           
 10464                           	psect	text63
 10465  003ADA                     __ptext63:
 10466                           	callstack 0
 10467  003ADA                     _MFRC522_Set_Bit:
 10468                           	callstack 26
 10469                           
 10470                           ;incstack = 0
 10471                           ;MFRC522_Set_Bit@addr stored from wreg
 10472  003ADA  6E0C               	movwf	MFRC522_Set_Bit@addr^0,c
 10473  003ADC                     
 10474                           ;rc522.c: 242:     tmp = MFRC522_Rd(addr);
 10475  003ADC  500C               	movf	MFRC522_Set_Bit@addr^0,w,c
 10476  003ADE  EC82  F014         	call	_MFRC522_Rd
 10477  003AE2  6E0B               	movwf	MFRC522_Set_Bit@tmp^0,c
 10478  003AE4                     
 10479                           ;rc522.c: 243:     MFRC522_Wr(addr, tmp | mask);
 10480  003AE4  500B               	movf	MFRC522_Set_Bit@tmp^0,w,c
 10481  003AE6  100A               	iorwf	MFRC522_Set_Bit@mask^0,w,c
 10482  003AE8  6E01               	movwf	MFRC522_Wr@value^0,c
 10483  003AEA  500C               	movf	MFRC522_Set_Bit@addr^0,w,c
 10484  003AEC  EC0D  F019         	call	_MFRC522_Wr
 10485  003AF0  0012               	return		;funcret
 10486  003AF2                     __end_of_MFRC522_Set_Bit:
 10487                           	callstack 0
 10488                           
 10489 ;; *************** function _MFRC522_Clear_Bit *****************
 10490 ;; Defined at:
 10491 ;;		line 210 in file "rc522.c"
 10492 ;; Parameters:    Size  Location     Type
 10493 ;;  addr            1    wreg     unsigned char 
 10494 ;;  mask            1    9[COMRAM] unsigned char 
 10495 ;; Auto vars:     Size  Location     Type
 10496 ;;  addr            1   11[COMRAM] unsigned char 
 10497 ;;  tmp             1   10[COMRAM] unsigned char 
 10498 ;; Return value:  Size  Location     Type
 10499 ;;                  1    wreg      void 
 10500 ;; Registers used:
 10501 ;;		wreg, status,2, status,0, cstack
 10502 ;; Tracked objects:
 10503 ;;		On entry : 0/0
 10504 ;;		On exit  : 0/0
 10505 ;;		Unchanged: 0/0
 10506 ;; Data sizes:     COMRAM   BANK0   BANK1   BANK2   BANK3   BANK4   BANK5   BANK6   BANK7
 10507 ;;      Params:         1       0       0       0       0       0       0       0       0
 10508 ;;      Locals:         2       0       0       0       0       0       0       0       0
 10509 ;;      Temps:          0       0       0       0       0       0       0       0       0
 10510 ;;      Totals:         3       0       0       0       0       0       0       0       0
 10511 ;;Total ram usage:        3 bytes
 10512 ;; Hardware stack levels used: 1
 10513 ;; Hardware stack levels required when called: 1
 10514 ;; This function calls:
 10515 ;;		_MFRC522_Rd
 10516 ;;		_MFRC522_Wr
 10517 ;; This function is called by:
 10518 ;;		_MFRC522_AntennaOff
 10519 ;;		_MFRC522_ToCard
 10520 ;;		_MFRC522_CRC
 10521 ;;		_MFRC522_Halt
 10522 ;;		_MFRC522_AntiColl
 10523 ;; This function uses a non-reentrant model
 10524 ;;
 10525                           
 10526                           	psect	text64
 10527  003A78                     __ptext64:
 10528                           	callstack 0
 10529  003A78                     _MFRC522_Clear_Bit:
 10530                           	callstack 26
 10531                           
 10532                           ;incstack = 0
 10533                           ;MFRC522_Clear_Bit@addr stored from wreg
 10534  003A78  6E0C               	movwf	MFRC522_Clear_Bit@addr^0,c
 10535  003A7A                     
 10536                           ;rc522.c: 213:     tmp = MFRC522_Rd(addr) ;
 10537  003A7A  500C               	movf	MFRC522_Clear_Bit@addr^0,w,c
 10538  003A7C  EC82  F014         	call	_MFRC522_Rd
 10539  003A80  6E0B               	movwf	MFRC522_Clear_Bit@tmp^0,c
 10540  003A82                     
 10541                           ;rc522.c: 214:     MFRC522_Wr(addr, tmp&~mask);
 10542  003A82  500A               	movf	MFRC522_Clear_Bit@mask^0,w,c
 10543  003A84  0AFF               	xorlw	255
 10544  003A86  140B               	andwf	MFRC522_Clear_Bit@tmp^0,w,c
 10545  003A88  6E01               	movwf	MFRC522_Wr@value^0,c
 10546  003A8A  500C               	movf	MFRC522_Clear_Bit@addr^0,w,c
 10547  003A8C  EC0D  F019         	call	_MFRC522_Wr
 10548  003A90  0012               	return		;funcret
 10549  003A92                     __end_of_MFRC522_Clear_Bit:
 10550                           	callstack 0
 10551                           
 10552 ;; *************** function _MFRC522_Wr *****************
 10553 ;; Defined at:
 10554 ;;		line 110 in file "rc522.c"
 10555 ;; Parameters:    Size  Location     Type
 10556 ;;  address         1    wreg     unsigned char 
 10557 ;;  value           1    0[COMRAM] unsigned char 
 10558 ;; Auto vars:     Size  Location     Type
 10559 ;;  address         1    2[COMRAM] unsigned char 
 10560 ;;  i               1    4[COMRAM] unsigned char 
 10561 ;;  ucAddr          1    3[COMRAM] unsigned char 
 10562 ;; Return value:  Size  Location     Type
 10563 ;;                  1    wreg      void 
 10564 ;; Registers used:
 10565 ;;		wreg, status,2, status,0
 10566 ;; Tracked objects:
 10567 ;;		On entry : 0/0
 10568 ;;		On exit  : 0/0
 10569 ;;		Unchanged: 0/0
 10570 ;; Data sizes:     COMRAM   BANK0   BANK1   BANK2   BANK3   BANK4   BANK5   BANK6   BANK7
 10571 ;;      Params:         1       0       0       0       0       0       0       0       0
 10572 ;;      Locals:         3       0       0       0       0       0       0       0       0
 10573 ;;      Temps:          1       0       0       0       0       0       0       0       0
 10574 ;;      Totals:         5       0       0       0       0       0       0       0       0
 10575 ;;Total ram usage:        5 bytes
 10576 ;; Hardware stack levels used: 1
 10577 ;; This function calls:
 10578 ;;		Nothing
 10579 ;; This function is called by:
 10580 ;;		_MFRC522_Clear_Bit
 10581 ;;		_MFRC522_Set_Bit
 10582 ;;		_MFRC522_Reset
 10583 ;;		_MFRC522_Init
 10584 ;;		_MFRC522_ToCard
 10585 ;;		_MFRC522_Request
 10586 ;;		_MFRC522_CRC
 10587 ;;		_MFRC522_AntiColl
 10588 ;; This function uses a non-reentrant model
 10589 ;;
 10590                           
 10591                           	psect	text65
 10592  00321A                     __ptext65:
 10593                           	callstack 0
 10594  00321A                     _MFRC522_Wr:
 10595                           	callstack 28
 10596                           
 10597                           ;incstack = 0
 10598                           ;MFRC522_Wr@address stored from wreg
 10599  00321A  6E03               	movwf	MFRC522_Wr@address^0,c
 10600  00321C                     
 10601                           ;rc522.c: 110: void MFRC522_Wr(unsigned char address, unsigned char value);rc522.c: 111:
      +                           {;rc522.c: 112:     unsigned char i, ucAddr;;rc522.c: 113:     LATDbits.LD1 = 0;
 10602  00321C  928C               	bcf	140,1,c	;volatile
 10603                           
 10604                           ;rc522.c: 114:     LATAbits.LA3 = 0;
 10605  00321E  9689               	bcf	137,3,c	;volatile
 10606  003220                     
 10607                           ;rc522.c: 115:     ucAddr = ((address << 1) & 0x7E);
 10608  003220  5003               	movf	MFRC522_Wr@address^0,w,c
 10609  003222  2403               	addwf	MFRC522_Wr@address^0,w,c
 10610  003224  0B7E               	andlw	126
 10611  003226  6E04               	movwf	MFRC522_Wr@ucAddr^0,c
 10612  003228                     
 10613                           ;rc522.c: 117:     for(i=8; i>0; i--)
 10614  003228  0E08               	movlw	8
 10615  00322A  6E05               	movwf	MFRC522_Wr@i^0,c
 10616  00322C                     l3885:
 10617                           
 10618                           ;rc522.c: 118:     {;rc522.c: 119:         LATDbits.LD3 = ((ucAddr&0x80) == 0x80);
 10619  00322C  BE04               	btfsc	MFRC522_Wr@ucAddr^0,7,c
 10620  00322E  EF1B  F019         	goto	u3281
 10621  003232  EF1F  F019         	goto	u3280
 10622  003236                     u3281:
 10623  003236  6A02               	clrf	??_MFRC522_Wr^0,c
 10624  003238  2A02               	incf	??_MFRC522_Wr^0,f,c
 10625  00323A  EF20  F019         	goto	u3298
 10626  00323E                     u3280:
 10627  00323E  6A02               	clrf	??_MFRC522_Wr^0,c
 10628  003240                     u3298:
 10629  003240  4602               	rlncf	??_MFRC522_Wr^0,f,c
 10630  003242  4602               	rlncf	??_MFRC522_Wr^0,f,c
 10631  003244  4602               	rlncf	??_MFRC522_Wr^0,f,c
 10632  003246  508C               	movf	140,w,c	;volatile
 10633  003248  1802               	xorwf	??_MFRC522_Wr^0,w,c
 10634  00324A  0BF7               	andlw	-9
 10635  00324C  1802               	xorwf	??_MFRC522_Wr^0,w,c
 10636  00324E  6E8C               	movwf	140,c	;volatile
 10637  003250                     
 10638                           ;rc522.c: 120:         LATDbits.LD1 = 1;
 10639  003250  828C               	bsf	140,1,c	;volatile
 10640                           
 10641                           ;rc522.c: 121:         ucAddr <<= 1;
 10642  003252  90D8               	bcf	status,0,c
 10643  003254  3604               	rlcf	MFRC522_Wr@ucAddr^0,f,c
 10644  003256                     
 10645                           ;rc522.c: 122:         LATDbits.LD1 = 0;
 10646  003256  928C               	bcf	140,1,c	;volatile
 10647  003258                     
 10648                           ;rc522.c: 123:     }
 10649  003258  0605               	decf	MFRC522_Wr@i^0,f,c
 10650  00325A  5005               	movf	MFRC522_Wr@i^0,w,c
 10651  00325C  A4D8               	btfss	status,2,c
 10652  00325E  EF33  F019         	goto	u3301
 10653  003262  EF35  F019         	goto	u3300
 10654  003266                     u3301:
 10655  003266  EF16  F019         	goto	l3885
 10656  00326A                     u3300:
 10657  00326A                     
 10658                           ;rc522.c: 124:     for(i=8; i>0; i--)
 10659  00326A  0E08               	movlw	8
 10660  00326C  6E05               	movwf	MFRC522_Wr@i^0,c
 10661  00326E                     l3899:
 10662                           
 10663                           ;rc522.c: 125:     {;rc522.c: 126:         LATDbits.LD3 = ((value&0x80) == 0x80);
 10664  00326E  BE01               	btfsc	MFRC522_Wr@value^0,7,c
 10665  003270  EF3C  F019         	goto	u3311
 10666  003274  EF40  F019         	goto	u3310
 10667  003278                     u3311:
 10668  003278  6A02               	clrf	??_MFRC522_Wr^0,c
 10669  00327A  2A02               	incf	??_MFRC522_Wr^0,f,c
 10670  00327C  EF41  F019         	goto	u3328
 10671  003280                     u3310:
 10672  003280  6A02               	clrf	??_MFRC522_Wr^0,c
 10673  003282                     u3328:
 10674  003282  4602               	rlncf	??_MFRC522_Wr^0,f,c
 10675  003284  4602               	rlncf	??_MFRC522_Wr^0,f,c
 10676  003286  4602               	rlncf	??_MFRC522_Wr^0,f,c
 10677  003288  508C               	movf	140,w,c	;volatile
 10678  00328A  1802               	xorwf	??_MFRC522_Wr^0,w,c
 10679  00328C  0BF7               	andlw	-9
 10680  00328E  1802               	xorwf	??_MFRC522_Wr^0,w,c
 10681  003290  6E8C               	movwf	140,c	;volatile
 10682  003292                     
 10683                           ;rc522.c: 127:         LATDbits.LD1 = 1;
 10684  003292  828C               	bsf	140,1,c	;volatile
 10685                           
 10686                           ;rc522.c: 128:         value <<= 1;
 10687  003294  90D8               	bcf	status,0,c
 10688  003296  3601               	rlcf	MFRC522_Wr@value^0,f,c
 10689  003298                     
 10690                           ;rc522.c: 129:         LATDbits.LD1 = 0;
 10691  003298  928C               	bcf	140,1,c	;volatile
 10692  00329A                     
 10693                           ;rc522.c: 130:     }
 10694  00329A  0605               	decf	MFRC522_Wr@i^0,f,c
 10695  00329C  5005               	movf	MFRC522_Wr@i^0,w,c
 10696  00329E  A4D8               	btfss	status,2,c
 10697  0032A0  EF54  F019         	goto	u3331
 10698  0032A4  EF56  F019         	goto	u3330
 10699  0032A8                     u3331:
 10700  0032A8  EF37  F019         	goto	l3899
 10701  0032AC                     u3330:
 10702  0032AC                     
 10703                           ;rc522.c: 131:     LATAbits.LA3 = 1;
 10704  0032AC  8689               	bsf	137,3,c	;volatile
 10705                           
 10706                           ;rc522.c: 132:     LATDbits.LD1 = 1;
 10707  0032AE  828C               	bsf	140,1,c	;volatile
 10708  0032B0  0012               	return		;funcret
 10709  0032B2                     __end_of_MFRC522_Wr:
 10710                           	callstack 0
 10711                           
 10712 ;; *************** function _MFRC522_Rd *****************
 10713 ;; Defined at:
 10714 ;;		line 2 in file "rc522.c"
 10715 ;; Parameters:    Size  Location     Type
 10716 ;;  address         1    wreg     unsigned char 
 10717 ;; Auto vars:     Size  Location     Type
 10718 ;;  address         1    2[COMRAM] unsigned char 
 10719 ;;  i               2    7[COMRAM] unsigned int 
 10720 ;;  ucResult        2    5[COMRAM] unsigned int 
 10721 ;;  ucAddr          2    3[COMRAM] unsigned int 
 10722 ;; Return value:  Size  Location     Type
 10723 ;;                  1    wreg      unsigned char 
 10724 ;; Registers used:
 10725 ;;		wreg, status,2, status,0
 10726 ;; Tracked objects:
 10727 ;;		On entry : 0/0
 10728 ;;		On exit  : 0/0
 10729 ;;		Unchanged: 0/0
 10730 ;; Data sizes:     COMRAM   BANK0   BANK1   BANK2   BANK3   BANK4   BANK5   BANK6   BANK7
 10731 ;;      Params:         0       0       0       0       0       0       0       0       0
 10732 ;;      Locals:         7       0       0       0       0       0       0       0       0
 10733 ;;      Temps:          2       0       0       0       0       0       0       0       0
 10734 ;;      Totals:         9       0       0       0       0       0       0       0       0
 10735 ;;Total ram usage:        9 bytes
 10736 ;; Hardware stack levels used: 1
 10737 ;; This function calls:
 10738 ;;		Nothing
 10739 ;; This function is called by:
 10740 ;;		_MFRC522_Clear_Bit
 10741 ;;		_MFRC522_Set_Bit
 10742 ;;		_MFRC522_AntennaOn
 10743 ;;		_MFRC522_ToCard
 10744 ;;		_MFRC522_CRC
 10745 ;; This function uses a non-reentrant model
 10746 ;;
 10747                           
 10748                           	psect	text66
 10749  002904                     __ptext66:
 10750                           	callstack 0
 10751  002904                     _MFRC522_Rd:
 10752                           	callstack 26
 10753                           
 10754                           ;incstack = 0
 10755                           ;MFRC522_Rd@address stored from wreg
 10756  002904  6E03               	movwf	MFRC522_Rd@address^0,c
 10757  002906                     
 10758                           ;rc522.c: 2: unsigned char MFRC522_Rd(unsigned char address);rc522.c: 3: {;rc522.c: 4:  
      +                             unsigned int i, ucAddr;;rc522.c: 5:     unsigned int ucResult = 0;
 10759  002906  0E00               	movlw	0
 10760  002908  6E07               	movwf	(MFRC522_Rd@ucResult+1)^0,c
 10761  00290A  0E00               	movlw	0
 10762  00290C  6E06               	movwf	MFRC522_Rd@ucResult^0,c
 10763  00290E                     
 10764                           ;rc522.c: 6:     LATDbits.LD1 = 0;
 10765  00290E  928C               	bcf	140,1,c	;volatile
 10766  002910                     
 10767                           ;rc522.c: 7:     LATAbits.LA3 = 0;
 10768  002910  9689               	bcf	137,3,c	;volatile
 10769  002912                     
 10770                           ;rc522.c: 8:     ucAddr = ((address << 1) & 0x7E) | 0x80;
 10771  002912  5003               	movf	MFRC522_Rd@address^0,w,c
 10772  002914  2403               	addwf	MFRC522_Rd@address^0,w,c
 10773  002916  0B7E               	andlw	126
 10774  002918  6E01               	movwf	??_MFRC522_Rd^0,c
 10775  00291A  6A02               	clrf	(??_MFRC522_Rd+1)^0,c
 10776  00291C  0E80               	movlw	128
 10777  00291E  1001               	iorwf	??_MFRC522_Rd^0,w,c
 10778  002920  6E04               	movwf	MFRC522_Rd@ucAddr^0,c
 10779  002922  5002               	movf	(??_MFRC522_Rd+1)^0,w,c
 10780  002924  6E05               	movwf	(MFRC522_Rd@ucAddr+1)^0,c
 10781  002926                     
 10782                           ;rc522.c: 10:     for(i=8; i>0; i--)
 10783  002926  0E00               	movlw	0
 10784  002928  6E09               	movwf	(MFRC522_Rd@i+1)^0,c
 10785  00292A  0E08               	movlw	8
 10786  00292C  6E08               	movwf	MFRC522_Rd@i^0,c
 10787  00292E                     l3763:
 10788                           
 10789                           ;rc522.c: 11:     {;rc522.c: 12:         LATDbits.LD3 = ((ucAddr & 0x80) == 0x80);
 10790  00292E  BE04               	btfsc	MFRC522_Rd@ucAddr^0,7,c
 10791  002930  EF9C  F014         	goto	u3131
 10792  002934  EFA0  F014         	goto	u3130
 10793  002938                     u3131:
 10794  002938  6A01               	clrf	??_MFRC522_Rd^0,c
 10795  00293A  2A01               	incf	??_MFRC522_Rd^0,f,c
 10796  00293C  EFA1  F014         	goto	u3148
 10797  002940                     u3130:
 10798  002940  6A01               	clrf	??_MFRC522_Rd^0,c
 10799  002942                     u3148:
 10800  002942  4601               	rlncf	??_MFRC522_Rd^0,f,c
 10801  002944  4601               	rlncf	??_MFRC522_Rd^0,f,c
 10802  002946  4601               	rlncf	??_MFRC522_Rd^0,f,c
 10803  002948  508C               	movf	140,w,c	;volatile
 10804  00294A  1801               	xorwf	??_MFRC522_Rd^0,w,c
 10805  00294C  0BF7               	andlw	-9
 10806  00294E  1801               	xorwf	??_MFRC522_Rd^0,w,c
 10807  002950  6E8C               	movwf	140,c	;volatile
 10808  002952                     
 10809                           ;rc522.c: 13:         LATDbits.LD1 = 1;
 10810  002952  828C               	bsf	140,1,c	;volatile
 10811  002954                     
 10812                           ;rc522.c: 14:         ucAddr <<= 1;
 10813  002954  90D8               	bcf	status,0,c
 10814  002956  3604               	rlcf	MFRC522_Rd@ucAddr^0,f,c
 10815  002958  3605               	rlcf	(MFRC522_Rd@ucAddr+1)^0,f,c
 10816  00295A                     
 10817                           ;rc522.c: 15:         LATDbits.LD1 = 0;
 10818  00295A  928C               	bcf	140,1,c	;volatile
 10819  00295C                     
 10820                           ;rc522.c: 16:     }
 10821  00295C  0608               	decf	MFRC522_Rd@i^0,f,c
 10822  00295E  A0D8               	btfss	status,0,c
 10823  002960  0609               	decf	(MFRC522_Rd@i+1)^0,f,c
 10824  002962  5008               	movf	MFRC522_Rd@i^0,w,c
 10825  002964  1009               	iorwf	(MFRC522_Rd@i+1)^0,w,c
 10826  002966  A4D8               	btfss	status,2,c
 10827  002968  EFB8  F014         	goto	u3151
 10828  00296C  EFBA  F014         	goto	u3150
 10829  002970                     u3151:
 10830  002970  EF97  F014         	goto	l3763
 10831  002974                     u3150:
 10832  002974                     
 10833                           ;rc522.c: 17:     for(i=8; i>0; i--)
 10834  002974  0E00               	movlw	0
 10835  002976  6E09               	movwf	(MFRC522_Rd@i+1)^0,c
 10836  002978  0E08               	movlw	8
 10837  00297A  6E08               	movwf	MFRC522_Rd@i^0,c
 10838  00297C                     l275:
 10839                           
 10840                           ;rc522.c: 18:     {;rc522.c: 19:         LATDbits.LD1 = 1;
 10841  00297C  828C               	bsf	140,1,c	;volatile
 10842  00297E                     
 10843                           ;rc522.c: 20:         ucResult <<= 1;
 10844  00297E  90D8               	bcf	status,0,c
 10845  002980  3606               	rlcf	MFRC522_Rd@ucResult^0,f,c
 10846  002982  3607               	rlcf	(MFRC522_Rd@ucResult+1)^0,f,c
 10847  002984                     
 10848                           ;rc522.c: 21:         ucResult |= (short)PORTDbits.RD2;
 10849  002984  B483               	btfsc	131,2,c	;volatile
 10850  002986  EFC7  F014         	goto	u3161
 10851  00298A  EFCB  F014         	goto	u3160
 10852  00298E                     u3161:
 10853  00298E  6A01               	clrf	??_MFRC522_Rd^0,c
 10854  002990  2A01               	incf	??_MFRC522_Rd^0,f,c
 10855  002992  EFCC  F014         	goto	u3168
 10856  002996                     u3160:
 10857  002996  6A01               	clrf	??_MFRC522_Rd^0,c
 10858  002998                     u3168:
 10859  002998  5001               	movf	??_MFRC522_Rd^0,w,c
 10860  00299A  1206               	iorwf	MFRC522_Rd@ucResult^0,f,c
 10861  00299C                     
 10862                           ;rc522.c: 22:         LATDbits.LD1 = 0;
 10863  00299C  928C               	bcf	140,1,c	;volatile
 10864  00299E                     
 10865                           ;rc522.c: 23:     }
 10866  00299E  0608               	decf	MFRC522_Rd@i^0,f,c
 10867  0029A0  A0D8               	btfss	status,0,c
 10868  0029A2  0609               	decf	(MFRC522_Rd@i+1)^0,f,c
 10869  0029A4  5008               	movf	MFRC522_Rd@i^0,w,c
 10870  0029A6  1009               	iorwf	(MFRC522_Rd@i+1)^0,w,c
 10871  0029A8  A4D8               	btfss	status,2,c
 10872  0029AA  EFD9  F014         	goto	u3171
 10873  0029AE  EFDB  F014         	goto	u3170
 10874  0029B2                     u3171:
 10875  0029B2  EFBE  F014         	goto	l275
 10876  0029B6                     u3170:
 10877  0029B6                     
 10878                           ;rc522.c: 24:     LATAbits.LA3 = 1;
 10879  0029B6  8689               	bsf	137,3,c	;volatile
 10880                           
 10881                           ;rc522.c: 25:     LATDbits.LD1 = 1;
 10882  0029B8  828C               	bsf	140,1,c	;volatile
 10883  0029BA                     
 10884                           ;rc522.c: 26:     return ucResult;
 10885  0029BA  5006               	movf	MFRC522_Rd@ucResult^0,w,c
 10886  0029BC  0012               	return		;funcret
 10887  0029BE                     __end_of_MFRC522_Rd:
 10888                           	callstack 0
 10889                           
 10890 ;; *************** function _LCD_Print *****************
 10891 ;; Defined at:
 10892 ;;		line 109 in file "I2C.c"
 10893 ;; Parameters:    Size  Location     Type
 10894 ;;  LCD_Str         2    4[COMRAM] PTR unsigned char 
 10895 ;;		 -> STR_10(5), STR_7(5), STR_4(5), data_buffer(20), 
 10896 ;;		 -> STR_1(10), 
 10897 ;; Auto vars:     Size  Location     Type
 10898 ;;  i               1    9[COMRAM] unsigned char 
 10899 ;; Return value:  Size  Location     Type
 10900 ;;                  1    wreg      void 
 10901 ;; Registers used:
 10902 ;;		wreg, fsr1l, fsr1h, status,2, status,0, tblptrl, tblptrh, tblptru, cstack
 10903 ;; Tracked objects:
 10904 ;;		On entry : 0/0
 10905 ;;		On exit  : 0/0
 10906 ;;		Unchanged: 0/0
 10907 ;; Data sizes:     COMRAM   BANK0   BANK1   BANK2   BANK3   BANK4   BANK5   BANK6   BANK7
 10908 ;;      Params:         2       0       0       0       0       0       0       0       0
 10909 ;;      Locals:         1       0       0       0       0       0       0       0       0
 10910 ;;      Temps:          3       0       0       0       0       0       0       0       0
 10911 ;;      Totals:         6       0       0       0       0       0       0       0       0
 10912 ;;Total ram usage:        6 bytes
 10913 ;; Hardware stack levels used: 1
 10914 ;; Hardware stack levels required when called: 3
 10915 ;; This function calls:
 10916 ;;		_LCD_Write_Nibble
 10917 ;; This function is called by:
 10918 ;;		_main
 10919 ;; This function uses a non-reentrant model
 10920 ;;
 10921                           
 10922                           	psect	text67
 10923  0029BE                     __ptext67:
 10924                           	callstack 0
 10925  0029BE                     _LCD_Print:
 10926                           	callstack 27
 10927  0029BE                     
 10928                           ;I2C.c: 109: void LCD_Print(char* LCD_Str);I2C.c: 110: {;I2C.c: 111:   uint8_t i = 0;
 10929  0029BE  0E00               	movlw	0
 10930  0029C0  6E0A               	movwf	LCD_Print@i^0,c
 10931  0029C2                     
 10932                           ;I2C.c: 112:   RS = 1;
 10933  0029C2  0100               	movlb	0	; () banked
 10934  0029C4  81F3               	bsf	(_RS/(0+8))& (0+255),_RS& (0+7),b
 10935                           
 10936                           ;I2C.c: 113:   while(LCD_Str[i] != '\0')
 10937  0029C6  EF1B  F015         	goto	l5417
 10938  0029CA                     l5413:
 10939                           
 10940                           ;I2C.c: 114:   {;I2C.c: 115:     LCD_Write_Nibble(LCD_Str[i] & 0xF0);
 10941  0029CA  500A               	movf	LCD_Print@i^0,w,c
 10942  0029CC  2405               	addwf	LCD_Print@LCD_Str^0,w,c
 10943  0029CE  6E07               	movwf	??_LCD_Print^0,c
 10944  0029D0  0E00               	movlw	0
 10945  0029D2  2006               	addwfc	(LCD_Print@LCD_Str+1)^0,w,c
 10946  0029D4  6E08               	movwf	(??_LCD_Print+1)^0,c
 10947  0029D6  C007  FFF6         	movff	??_LCD_Print,tblptrl
 10948  0029DA  C008  FFF7         	movff	??_LCD_Print+1,tblptrh
 10949  0029DE  6AF8               	clrf	tblptru,c
 10950  0029E0  0E07               	movlw	(high __ramtop+-1)
 10951  0029E2  64F7               	cpfsgt	tblptrh,c
 10952  0029E4  D003               	bra	u5457
 10953  0029E6  0008               	tblrd		*
 10954  0029E8  50F5               	movf	tablat,w,c
 10955  0029EA  D005               	bra	u5450
 10956  0029EC                     u5457:
 10957  0029EC  CFF6 FFE1          	movff	tblptrl,fsr1l
 10958  0029F0  CFF7 FFE2          	movff	tblptrh,fsr1h
 10959  0029F4  50E7               	movf	indf1,w,c
 10960  0029F6                     u5450:
 10961  0029F6  0BF0               	andlw	240
 10962  0029F8  EC7F  F01C         	call	_LCD_Write_Nibble
 10963                           
 10964                           ;I2C.c: 116:     LCD_Write_Nibble( (LCD_Str[i++] << 4) & 0xF0 );
 10965  0029FC  500A               	movf	LCD_Print@i^0,w,c
 10966  0029FE  2405               	addwf	LCD_Print@LCD_Str^0,w,c
 10967  002A00  6E07               	movwf	??_LCD_Print^0,c
 10968  002A02  0E00               	movlw	0
 10969  002A04  2006               	addwfc	(LCD_Print@LCD_Str+1)^0,w,c
 10970  002A06  6E08               	movwf	(??_LCD_Print+1)^0,c
 10971  002A08  C007  FFF6         	movff	??_LCD_Print,tblptrl
 10972  002A0C  C008  FFF7         	movff	??_LCD_Print+1,tblptrh
 10973  002A10  6AF8               	clrf	tblptru,c
 10974  002A12  0E07               	movlw	(high __ramtop+-1)
 10975  002A14  64F7               	cpfsgt	tblptrh,c
 10976  002A16  D003               	bra	u5467
 10977  002A18  0008               	tblrd		*
 10978  002A1A  50F5               	movf	tablat,w,c
 10979  002A1C  D005               	bra	u5460
 10980  002A1E                     u5467:
 10981  002A1E  CFF6 FFE1          	movff	tblptrl,fsr1l
 10982  002A22  CFF7 FFE2          	movff	tblptrh,fsr1h
 10983  002A26  50E7               	movf	indf1,w,c
 10984  002A28                     u5460:
 10985  002A28  6E09               	movwf	(??_LCD_Print+2)^0,c
 10986  002A2A  3809               	swapf	(??_LCD_Print+2)^0,w,c
 10987  002A2C  0BF0               	andlw	240
 10988  002A2E  0BF0               	andlw	240
 10989  002A30  EC7F  F01C         	call	_LCD_Write_Nibble
 10990  002A34  2A0A               	incf	LCD_Print@i^0,f,c
 10991  002A36                     l5417:
 10992                           
 10993                           ;I2C.c: 113:   while(LCD_Str[i] != '\0')
 10994  002A36  500A               	movf	LCD_Print@i^0,w,c
 10995  002A38  2405               	addwf	LCD_Print@LCD_Str^0,w,c
 10996  002A3A  6E07               	movwf	??_LCD_Print^0,c
 10997  002A3C  0E00               	movlw	0
 10998  002A3E  2006               	addwfc	(LCD_Print@LCD_Str+1)^0,w,c
 10999  002A40  6E08               	movwf	(??_LCD_Print+1)^0,c
 11000  002A42  C007  FFF6         	movff	??_LCD_Print,tblptrl
 11001  002A46  C008  FFF7         	movff	??_LCD_Print+1,tblptrh
 11002  002A4A  6AF8               	clrf	tblptru,c
 11003  002A4C  0E07               	movlw	(high __ramtop+-1)
 11004  002A4E  64F7               	cpfsgt	tblptrh,c
 11005  002A50  D003               	bra	u5477
 11006  002A52  0008               	tblrd		*
 11007  002A54  50F5               	movf	tablat,w,c
 11008  002A56  D005               	bra	u5470
 11009  002A58                     u5477:
 11010  002A58  CFF6 FFE1          	movff	tblptrl,fsr1l
 11011  002A5C  CFF7 FFE2          	movff	tblptrh,fsr1h
 11012  002A60  50E7               	movf	indf1,w,c
 11013  002A62                     u5470:
 11014  002A62  0900               	iorlw	0
 11015  002A64  A4D8               	btfss	status,2,c
 11016  002A66  EF37  F015         	goto	u5481
 11017  002A6A  EF39  F015         	goto	u5480
 11018  002A6E                     u5481:
 11019  002A6E  EFE5  F014         	goto	l5413
 11020  002A72                     u5480:
 11021  002A72  0012               	return		;funcret
 11022  002A74                     __end_of_LCD_Print:
 11023                           	callstack 0
 11024                           
 11025 ;; *************** function _LCD_Goto *****************
 11026 ;; Defined at:
 11027 ;;		line 83 in file "I2C.c"
 11028 ;; Parameters:    Size  Location     Type
 11029 ;;  col             1    wreg     unsigned char 
 11030 ;;  row             1    6[COMRAM] unsigned char 
 11031 ;; Auto vars:     Size  Location     Type
 11032 ;;  col             1    9[COMRAM] unsigned char 
 11033 ;; Return value:  Size  Location     Type
 11034 ;;                  1    wreg      void 
 11035 ;; Registers used:
 11036 ;;		wreg, status,2, status,0, cstack
 11037 ;; Tracked objects:
 11038 ;;		On entry : 0/0
 11039 ;;		On exit  : 0/0
 11040 ;;		Unchanged: 0/0
 11041 ;; Data sizes:     COMRAM   BANK0   BANK1   BANK2   BANK3   BANK4   BANK5   BANK6   BANK7
 11042 ;;      Params:         1       0       0       0       0       0       0       0       0
 11043 ;;      Locals:         1       0       0       0       0       0       0       0       0
 11044 ;;      Temps:          2       0       0       0       0       0       0       0       0
 11045 ;;      Totals:         4       0       0       0       0       0       0       0       0
 11046 ;;Total ram usage:        4 bytes
 11047 ;; Hardware stack levels used: 1
 11048 ;; Hardware stack levels required when called: 4
 11049 ;; This function calls:
 11050 ;;		_LCD_Cmd
 11051 ;; This function is called by:
 11052 ;;		_main
 11053 ;; This function uses a non-reentrant model
 11054 ;;
 11055                           
 11056                           	psect	text68
 11057  003322                     __ptext68:
 11058                           	callstack 0
 11059  003322                     _LCD_Goto:
 11060                           	callstack 26
 11061                           
 11062                           ;incstack = 0
 11063                           ;LCD_Goto@col stored from wreg
 11064  003322  6E0A               	movwf	LCD_Goto@col^0,c
 11065  003324                     
 11066                           ;I2C.c: 83: void LCD_Goto(uint8_t col, uint8_t row);I2C.c: 84: {;I2C.c: 85:   switch(row
      +                          )
 11067  003324  EFAC  F019         	goto	l5403
 11068  003328                     l5395:
 11069                           
 11070                           ;I2C.c: 88:       LCD_Cmd(0xC0 + col - 1);
 11071  003328  500A               	movf	LCD_Goto@col^0,w,c
 11072  00332A  0FBF               	addlw	191
 11073  00332C  ECBF  F01B         	call	_LCD_Cmd
 11074                           
 11075                           ;I2C.c: 89:       break;
 11076  003330  EFC5  F019         	goto	l240
 11077  003334                     l5397:
 11078                           
 11079                           ;I2C.c: 91:       LCD_Cmd(0x94 + col - 1);
 11080  003334  500A               	movf	LCD_Goto@col^0,w,c
 11081  003336  0F93               	addlw	147
 11082  003338  ECBF  F01B         	call	_LCD_Cmd
 11083                           
 11084                           ;I2C.c: 92:       break;
 11085  00333C  EFC5  F019         	goto	l240
 11086  003340                     l5399:
 11087                           
 11088                           ;I2C.c: 94:       LCD_Cmd(0xD4 + col - 1);
 11089  003340  500A               	movf	LCD_Goto@col^0,w,c
 11090  003342  0FD3               	addlw	211
 11091  003344  ECBF  F01B         	call	_LCD_Cmd
 11092                           
 11093                           ;I2C.c: 95:     break;
 11094  003348  EFC5  F019         	goto	l240
 11095  00334C                     l5401:
 11096                           
 11097                           ;I2C.c: 97:       LCD_Cmd(0x80 + col - 1);
 11098  00334C  500A               	movf	LCD_Goto@col^0,w,c
 11099  00334E  0F7F               	addlw	127
 11100  003350  ECBF  F01B         	call	_LCD_Cmd
 11101                           
 11102                           ;I2C.c: 98:   }
 11103  003354  EFC5  F019         	goto	l240
 11104  003358                     l5403:
 11105  003358  5007               	movf	LCD_Goto@row^0,w,c
 11106  00335A  6E08               	movwf	??_LCD_Goto^0,c
 11107  00335C  6A09               	clrf	(??_LCD_Goto+1)^0,c
 11108                           
 11109                           ; Switch on 2 bytes has been partitioned into a top level switch of size 1, and 1 sub-sw
      +                          itches
 11110                           ; Switch size 1, requested type "simple"
 11111                           ; Number of cases is 1, Range of values is 0 to 0
 11112                           ; switch strategies available:
 11113                           ; Name         Instructions Cycles
 11114                           ; simple_byte            4     3 (average)
 11115                           ;	Chosen strategy is simple_byte
 11116  00335E  5009               	movf	(??_LCD_Goto+1)^0,w,c
 11117  003360  0A00               	xorlw	0	; case 0
 11118  003362  B4D8               	btfsc	status,2,c
 11119  003364  EFB6  F019         	goto	l5945
 11120  003368  EFA6  F019         	goto	l5401
 11121  00336C                     l5945:
 11122                           
 11123                           ; Switch size 1, requested type "simple"
 11124                           ; Number of cases is 3, Range of values is 2 to 4
 11125                           ; switch strategies available:
 11126                           ; Name         Instructions Cycles
 11127                           ; simple_byte           10     6 (average)
 11128                           ;	Chosen strategy is simple_byte
 11129  00336C  5008               	movf	??_LCD_Goto^0,w,c
 11130  00336E  0A02               	xorlw	2	; case 2
 11131  003370  B4D8               	btfsc	status,2,c
 11132  003372  EF94  F019         	goto	l5395
 11133  003376  0A01               	xorlw	1	; case 3
 11134  003378  B4D8               	btfsc	status,2,c
 11135  00337A  EF9A  F019         	goto	l5397
 11136  00337E  0A07               	xorlw	7	; case 4
 11137  003380  B4D8               	btfsc	status,2,c
 11138  003382  EFA0  F019         	goto	l5399
 11139  003386  EFA6  F019         	goto	l5401
 11140  00338A                     l240:
 11141  00338A  0012               	return		;funcret
 11142  00338C                     __end_of_LCD_Goto:
 11143                           	callstack 0
 11144                           
 11145 ;; *************** function _LCD_Begin *****************
 11146 ;; Defined at:
 11147 ;;		line 120 in file "I2C.c"
 11148 ;; Parameters:    Size  Location     Type
 11149 ;;  _i2c_addr       1    wreg     unsigned char 
 11150 ;; Auto vars:     Size  Location     Type
 11151 ;;  _i2c_addr       1    8[COMRAM] unsigned char 
 11152 ;; Return value:  Size  Location     Type
 11153 ;;                  1    wreg      void 
 11154 ;; Registers used:
 11155 ;;		wreg, status,2, status,0, cstack
 11156 ;; Tracked objects:
 11157 ;;		On entry : 0/0
 11158 ;;		On exit  : 0/0
 11159 ;;		Unchanged: 0/0
 11160 ;; Data sizes:     COMRAM   BANK0   BANK1   BANK2   BANK3   BANK4   BANK5   BANK6   BANK7
 11161 ;;      Params:         0       0       0       0       0       0       0       0       0
 11162 ;;      Locals:         1       0       0       0       0       0       0       0       0
 11163 ;;      Temps:          2       0       0       0       0       0       0       0       0
 11164 ;;      Totals:         3       0       0       0       0       0       0       0       0
 11165 ;;Total ram usage:        3 bytes
 11166 ;; Hardware stack levels used: 1
 11167 ;; Hardware stack levels required when called: 4
 11168 ;; This function calls:
 11169 ;;		_Expander_Write
 11170 ;;		_LCD_Cmd
 11171 ;; This function is called by:
 11172 ;;		_main
 11173 ;; This function uses a non-reentrant model
 11174 ;;
 11175                           
 11176                           	psect	text69
 11177  002458                     __ptext69:
 11178                           	callstack 0
 11179  002458                     _LCD_Begin:
 11180                           	callstack 26
 11181                           
 11182                           ;incstack = 0
 11183                           ;LCD_Begin@_i2c_addr stored from wreg
 11184  002458  6E09               	movwf	LCD_Begin@_i2c_addr^0,c
 11185  00245A                     
 11186                           ;I2C.c: 120: void LCD_Begin(uint8_t _i2c_addr);I2C.c: 121: {;I2C.c: 122:   i2c_addr = _i
      +                          2c_addr;
 11187  00245A  C009  F0F2         	movff	LCD_Begin@_i2c_addr,_i2c_addr
 11188  00245E                     
 11189                           ;I2C.c: 123:   Expander_Write(0);
 11190  00245E  0E00               	movlw	0
 11191  002460  EC06  F01D         	call	_Expander_Write
 11192  002464                     
 11193                           ;I2C.c: 125:   _delay((unsigned long)((40)*(27000000/4000.0)));
 11194  002464  0E02               	movlw	2
 11195  002466  6E08               	movwf	(??_LCD_Begin+1)^0,c
 11196  002468  0E5F               	movlw	95
 11197  00246A  6E07               	movwf	??_LCD_Begin^0,c
 11198  00246C  0EA3               	movlw	163
 11199  00246E                     u5887:
 11200  00246E  2EE8               	decfsz	wreg,f,c
 11201  002470  D7FE               	bra	u5887
 11202  002472  2E07               	decfsz	??_LCD_Begin^0,f,c
 11203  002474  D7FC               	bra	u5887
 11204  002476  2E08               	decfsz	(??_LCD_Begin+1)^0,f,c
 11205  002478  D7FA               	bra	u5887
 11206  00247A  F000               	nop	
 11207                           
 11208                           ;I2C.c: 126:   LCD_Cmd(3);
 11209  00247C  0E03               	movlw	3
 11210  00247E  ECBF  F01B         	call	_LCD_Cmd
 11211  002482                     
 11212                           ;I2C.c: 127:   _delay((unsigned long)((5)*(27000000/4000.0)));
 11213  002482  0E2C               	movlw	44
 11214  002484  6E07               	movwf	??_LCD_Begin^0,c
 11215  002486  0ED4               	movlw	212
 11216  002488                     u5897:
 11217  002488  2EE8               	decfsz	wreg,f,c
 11218  00248A  D7FE               	bra	u5897
 11219  00248C  2E07               	decfsz	??_LCD_Begin^0,f,c
 11220  00248E  D7FC               	bra	u5897
 11221  002490                     
 11222                           ;I2C.c: 128:   LCD_Cmd(3);
 11223  002490  0E03               	movlw	3
 11224  002492  ECBF  F01B         	call	_LCD_Cmd
 11225                           
 11226                           ;I2C.c: 129:   _delay((unsigned long)((5)*(27000000/4000.0)));
 11227  002496  0E2C               	movlw	44
 11228  002498  6E07               	movwf	??_LCD_Begin^0,c
 11229  00249A  0ED4               	movlw	212
 11230  00249C                     u5907:
 11231  00249C  2EE8               	decfsz	wreg,f,c
 11232  00249E  D7FE               	bra	u5907
 11233  0024A0  2E07               	decfsz	??_LCD_Begin^0,f,c
 11234  0024A2  D7FC               	bra	u5907
 11235  0024A4                     
 11236                           ;I2C.c: 130:   LCD_Cmd(3);
 11237  0024A4  0E03               	movlw	3
 11238  0024A6  ECBF  F01B         	call	_LCD_Cmd
 11239  0024AA                     
 11240                           ;I2C.c: 131:   _delay((unsigned long)((5)*(27000000/4000.0)));
 11241  0024AA  0E2C               	movlw	44
 11242  0024AC  6E07               	movwf	??_LCD_Begin^0,c
 11243  0024AE  0ED4               	movlw	212
 11244  0024B0                     u5917:
 11245  0024B0  2EE8               	decfsz	wreg,f,c
 11246  0024B2  D7FE               	bra	u5917
 11247  0024B4  2E07               	decfsz	??_LCD_Begin^0,f,c
 11248  0024B6  D7FC               	bra	u5917
 11249                           
 11250                           ;I2C.c: 132:   LCD_Cmd(0x02);
 11251  0024B8  0E02               	movlw	2
 11252  0024BA  ECBF  F01B         	call	_LCD_Cmd
 11253  0024BE                     
 11254                           ;I2C.c: 133:   _delay((unsigned long)((5)*(27000000/4000.0)));
 11255  0024BE  0E2C               	movlw	44
 11256  0024C0  6E07               	movwf	??_LCD_Begin^0,c
 11257  0024C2  0ED4               	movlw	212
 11258  0024C4                     u5927:
 11259  0024C4  2EE8               	decfsz	wreg,f,c
 11260  0024C6  D7FE               	bra	u5927
 11261  0024C8  2E07               	decfsz	??_LCD_Begin^0,f,c
 11262  0024CA  D7FC               	bra	u5927
 11263  0024CC                     
 11264                           ;I2C.c: 134:   LCD_Cmd(0x20 | (2 << 2));
 11265  0024CC  0E28               	movlw	40
 11266  0024CE  ECBF  F01B         	call	_LCD_Cmd
 11267                           
 11268                           ;I2C.c: 135:   _delay((unsigned long)((50)*(27000000/4000.0)));
 11269  0024D2  0E02               	movlw	2
 11270  0024D4  6E08               	movwf	(??_LCD_Begin+1)^0,c
 11271  0024D6  0EB7               	movlw	183
 11272  0024D8  6E07               	movwf	??_LCD_Begin^0,c
 11273  0024DA  0E4C               	movlw	76
 11274  0024DC                     u5937:
 11275  0024DC  2EE8               	decfsz	wreg,f,c
 11276  0024DE  D7FE               	bra	u5937
 11277  0024E0  2E07               	decfsz	??_LCD_Begin^0,f,c
 11278  0024E2  D7FC               	bra	u5937
 11279  0024E4  2E08               	decfsz	(??_LCD_Begin+1)^0,f,c
 11280  0024E6  D7FA               	bra	u5937
 11281  0024E8  D000               	nop2	
 11282  0024EA                     
 11283                           ;I2C.c: 136:   LCD_Cmd(0x0C);
 11284  0024EA  0E0C               	movlw	12
 11285  0024EC  ECBF  F01B         	call	_LCD_Cmd
 11286  0024F0                     
 11287                           ;I2C.c: 137:   _delay((unsigned long)((50)*(27000000/4000.0)));
 11288  0024F0  0E02               	movlw	2
 11289  0024F2  6E08               	movwf	(??_LCD_Begin+1)^0,c
 11290  0024F4  0EB7               	movlw	183
 11291  0024F6  6E07               	movwf	??_LCD_Begin^0,c
 11292  0024F8  0E4C               	movlw	76
 11293  0024FA                     u5947:
 11294  0024FA  2EE8               	decfsz	wreg,f,c
 11295  0024FC  D7FE               	bra	u5947
 11296  0024FE  2E07               	decfsz	??_LCD_Begin^0,f,c
 11297  002500  D7FC               	bra	u5947
 11298  002502  2E08               	decfsz	(??_LCD_Begin+1)^0,f,c
 11299  002504  D7FA               	bra	u5947
 11300  002506  D000               	nop2	
 11301                           
 11302                           ;I2C.c: 138:   LCD_Cmd(0x01);
 11303  002508  0E01               	movlw	1
 11304  00250A  ECBF  F01B         	call	_LCD_Cmd
 11305  00250E                     
 11306                           ;I2C.c: 139:   _delay((unsigned long)((50)*(27000000/4000.0)));
 11307  00250E  0E02               	movlw	2
 11308  002510  6E08               	movwf	(??_LCD_Begin+1)^0,c
 11309  002512  0EB7               	movlw	183
 11310  002514  6E07               	movwf	??_LCD_Begin^0,c
 11311  002516  0E4C               	movlw	76
 11312  002518                     u5957:
 11313  002518  2EE8               	decfsz	wreg,f,c
 11314  00251A  D7FE               	bra	u5957
 11315  00251C  2E07               	decfsz	??_LCD_Begin^0,f,c
 11316  00251E  D7FC               	bra	u5957
 11317  002520  2E08               	decfsz	(??_LCD_Begin+1)^0,f,c
 11318  002522  D7FA               	bra	u5957
 11319  002524  D000               	nop2	
 11320  002526                     
 11321                           ;I2C.c: 140:   LCD_Cmd(0x04 | 0x02);
 11322  002526  0E06               	movlw	6
 11323  002528  ECBF  F01B         	call	_LCD_Cmd
 11324                           
 11325                           ;I2C.c: 141:   _delay((unsigned long)((50)*(27000000/4000.0)));
 11326  00252C  0E02               	movlw	2
 11327  00252E  6E08               	movwf	(??_LCD_Begin+1)^0,c
 11328  002530  0EB7               	movlw	183
 11329  002532  6E07               	movwf	??_LCD_Begin^0,c
 11330  002534  0E4C               	movlw	76
 11331  002536                     u5967:
 11332  002536  2EE8               	decfsz	wreg,f,c
 11333  002538  D7FE               	bra	u5967
 11334  00253A  2E07               	decfsz	??_LCD_Begin^0,f,c
 11335  00253C  D7FC               	bra	u5967
 11336  00253E  2E08               	decfsz	(??_LCD_Begin+1)^0,f,c
 11337  002540  D7FA               	bra	u5967
 11338  002542  D000               	nop2	
 11339  002544  0012               	return		;funcret
 11340  002546                     __end_of_LCD_Begin:
 11341                           	callstack 0
 11342                           
 11343 ;; *************** function _LCD_Cmd *****************
 11344 ;; Defined at:
 11345 ;;		line 74 in file "I2C.c"
 11346 ;; Parameters:    Size  Location     Type
 11347 ;;  Command         1    wreg     unsigned char 
 11348 ;; Auto vars:     Size  Location     Type
 11349 ;;  Command         1    5[COMRAM] unsigned char 
 11350 ;; Return value:  Size  Location     Type
 11351 ;;                  1    wreg      void 
 11352 ;; Registers used:
 11353 ;;		wreg, status,2, status,0, cstack
 11354 ;; Tracked objects:
 11355 ;;		On entry : 0/0
 11356 ;;		On exit  : 0/0
 11357 ;;		Unchanged: 0/0
 11358 ;; Data sizes:     COMRAM   BANK0   BANK1   BANK2   BANK3   BANK4   BANK5   BANK6   BANK7
 11359 ;;      Params:         0       0       0       0       0       0       0       0       0
 11360 ;;      Locals:         1       0       0       0       0       0       0       0       0
 11361 ;;      Temps:          1       0       0       0       0       0       0       0       0
 11362 ;;      Totals:         2       0       0       0       0       0       0       0       0
 11363 ;;Total ram usage:        2 bytes
 11364 ;; Hardware stack levels used: 1
 11365 ;; Hardware stack levels required when called: 3
 11366 ;; This function calls:
 11367 ;;		_LCD_Write_Nibble
 11368 ;; This function is called by:
 11369 ;;		_main
 11370 ;;		_LCD_Goto
 11371 ;;		_LCD_Begin
 11372 ;; This function uses a non-reentrant model
 11373 ;;
 11374                           
 11375                           	psect	text70
 11376  00377E                     __ptext70:
 11377                           	callstack 0
 11378  00377E                     _LCD_Cmd:
 11379                           	callstack 26
 11380                           
 11381                           ;incstack = 0
 11382                           ;LCD_Cmd@Command stored from wreg
 11383  00377E  6E06               	movwf	LCD_Cmd@Command^0,c
 11384  003780                     
 11385                           ;I2C.c: 74: void LCD_Cmd(uint8_t Command);I2C.c: 75: {;I2C.c: 76:   RS = 0;
 11386  003780  0100               	movlb	0	; () banked
 11387  003782  91F3               	bcf	(_RS/(0+8))& (0+255),_RS& (0+7),b
 11388  003784                     
 11389                           ; BSR set to: 0
 11390                           ;I2C.c: 77:   LCD_Write_Nibble(Command & 0xF0);
 11391  003784  5006               	movf	LCD_Cmd@Command^0,w,c
 11392  003786  0BF0               	andlw	240
 11393  003788  EC7F  F01C         	call	_LCD_Write_Nibble
 11394                           
 11395                           ;I2C.c: 78:   LCD_Write_Nibble((Command << 4) & 0xF0);
 11396  00378C  3806               	swapf	LCD_Cmd@Command^0,w,c
 11397  00378E  0BF0               	andlw	240
 11398  003790  0BF0               	andlw	240
 11399  003792  EC7F  F01C         	call	_LCD_Write_Nibble
 11400  003796                     
 11401                           ;I2C.c: 79:   if((Command == 0x01) || (Command == 0x02))
 11402  003796  0406               	decf	LCD_Cmd@Command^0,w,c
 11403  003798  B4D8               	btfsc	status,2,c
 11404  00379A  EFD1  F01B         	goto	u4221
 11405  00379E  EFD3  F01B         	goto	u4220
 11406  0037A2                     u4221:
 11407  0037A2  EFDC  F01B         	goto	l4523
 11408  0037A6                     u4220:
 11409  0037A6  0E02               	movlw	2
 11410  0037A8  1806               	xorwf	LCD_Cmd@Command^0,w,c
 11411  0037AA  A4D8               	btfss	status,2,c
 11412  0037AC  EFDA  F01B         	goto	u4231
 11413  0037B0  EFDC  F01B         	goto	u4230
 11414  0037B4                     u4231:
 11415  0037B4  EFE4  F01B         	goto	l231
 11416  0037B8                     u4230:
 11417  0037B8                     l4523:
 11418                           
 11419                           ;I2C.c: 80:     _delay((unsigned long)((2)*(27000000/4000.0)));
 11420  0037B8  0E12               	movlw	18
 11421  0037BA  6E05               	movwf	??_LCD_Cmd^0,c
 11422  0037BC  0E87               	movlw	135
 11423  0037BE                     u5977:
 11424  0037BE  2EE8               	decfsz	wreg,f,c
 11425  0037C0  D7FE               	bra	u5977
 11426  0037C2  2E05               	decfsz	??_LCD_Cmd^0,f,c
 11427  0037C4  D7FC               	bra	u5977
 11428  0037C6  F000               	nop	
 11429  0037C8                     l231:
 11430  0037C8  0012               	return		;funcret
 11431  0037CA                     __end_of_LCD_Cmd:
 11432                           	callstack 0
 11433                           
 11434 ;; *************** function _LCD_Write_Nibble *****************
 11435 ;; Defined at:
 11436 ;;		line 63 in file "I2C.c"
 11437 ;; Parameters:    Size  Location     Type
 11438 ;;  n               1    wreg     unsigned char 
 11439 ;; Auto vars:     Size  Location     Type
 11440 ;;  n               1    3[COMRAM] unsigned char 
 11441 ;; Return value:  Size  Location     Type
 11442 ;;                  1    wreg      void 
 11443 ;; Registers used:
 11444 ;;		wreg, status,2, status,0, cstack
 11445 ;; Tracked objects:
 11446 ;;		On entry : 0/0
 11447 ;;		On exit  : 0/0
 11448 ;;		Unchanged: 0/0
 11449 ;; Data sizes:     COMRAM   BANK0   BANK1   BANK2   BANK3   BANK4   BANK5   BANK6   BANK7
 11450 ;;      Params:         0       0       0       0       0       0       0       0       0
 11451 ;;      Locals:         1       0       0       0       0       0       0       0       0
 11452 ;;      Temps:          0       0       0       0       0       0       0       0       0
 11453 ;;      Totals:         1       0       0       0       0       0       0       0       0
 11454 ;;Total ram usage:        1 bytes
 11455 ;; Hardware stack levels used: 1
 11456 ;; Hardware stack levels required when called: 2
 11457 ;; This function calls:
 11458 ;;		_Expander_Write
 11459 ;; This function is called by:
 11460 ;;		_LCD_Cmd
 11461 ;;		_LCD_Print
 11462 ;;		_LCD_PutC
 11463 ;; This function uses a non-reentrant model
 11464 ;;
 11465                           
 11466                           	psect	text71
 11467  0038FE                     __ptext71:
 11468                           	callstack 0
 11469  0038FE                     _LCD_Write_Nibble:
 11470                           	callstack 27
 11471                           
 11472                           ;incstack = 0
 11473                           ;LCD_Write_Nibble@n stored from wreg
 11474  0038FE  6E04               	movwf	LCD_Write_Nibble@n^0,c
 11475  003900                     
 11476                           ;I2C.c: 63: void LCD_Write_Nibble(uint8_t n);I2C.c: 64: {;I2C.c: 65:   n |= RS;
 11477  003900  0E00               	movlw	0
 11478  003902  0100               	movlb	0	; () banked
 11479  003904  B1F3               	btfsc	(_RS/(0+8))& (0+255),_RS& (0+7),b
 11480  003906  0E01               	movlw	1
 11481  003908  1204               	iorwf	LCD_Write_Nibble@n^0,f,c
 11482  00390A                     
 11483                           ; BSR set to: 0
 11484                           ;I2C.c: 66:   Expander_Write(n & 0xFB);
 11485  00390A  5004               	movf	LCD_Write_Nibble@n^0,w,c
 11486  00390C  0BFB               	andlw	251
 11487  00390E  EC06  F01D         	call	_Expander_Write
 11488  003912                     
 11489                           ;I2C.c: 67:   _delay((unsigned long)((1)*(27000000/4000000.0)));
 11490  003912  D000               	nop2		;2 cycle nop
 11491  003914  D000               	nop2		;2 cycle nop
 11492  003916  D000               	nop2		;2 cycle nop
 11493  003918                     
 11494                           ;I2C.c: 68:   Expander_Write(n | 0x04);
 11495  003918  5004               	movf	LCD_Write_Nibble@n^0,w,c
 11496  00391A  0904               	iorlw	4
 11497  00391C  EC06  F01D         	call	_Expander_Write
 11498  003920                     
 11499                           ;I2C.c: 69:   _delay((unsigned long)((1)*(27000000/4000000.0)));
 11500  003920  D000               	nop2		;2 cycle nop
 11501  003922  D000               	nop2		;2 cycle nop
 11502  003924  D000               	nop2		;2 cycle nop
 11503  003926                     
 11504                           ;I2C.c: 70:   Expander_Write(n & 0xFB);
 11505  003926  5004               	movf	LCD_Write_Nibble@n^0,w,c
 11506  003928  0BFB               	andlw	251
 11507  00392A  EC06  F01D         	call	_Expander_Write
 11508  00392E                     
 11509                           ;I2C.c: 71:   _delay((unsigned long)((100)*(27000000/4000000.0)));
 11510  00392E  0EE1               	movlw	225
 11511  003930                     u5987:
 11512  003930  2EE8               	decfsz	wreg,f,c
 11513  003932  D7FE               	bra	u5987
 11514  003934  0012               	return		;funcret
 11515  003936                     __end_of_LCD_Write_Nibble:
 11516                           	callstack 0
 11517                           
 11518 ;; *************** function _Expander_Write *****************
 11519 ;; Defined at:
 11520 ;;		line 55 in file "I2C.c"
 11521 ;; Parameters:    Size  Location     Type
 11522 ;;  value           1    wreg     unsigned char 
 11523 ;; Auto vars:     Size  Location     Type
 11524 ;;  value           1    2[COMRAM] unsigned char 
 11525 ;; Return value:  Size  Location     Type
 11526 ;;                  1    wreg      void 
 11527 ;; Registers used:
 11528 ;;		wreg, status,2, status,0, cstack
 11529 ;; Tracked objects:
 11530 ;;		On entry : 0/0
 11531 ;;		On exit  : 0/0
 11532 ;;		Unchanged: 0/0
 11533 ;; Data sizes:     COMRAM   BANK0   BANK1   BANK2   BANK3   BANK4   BANK5   BANK6   BANK7
 11534 ;;      Params:         0       0       0       0       0       0       0       0       0
 11535 ;;      Locals:         1       0       0       0       0       0       0       0       0
 11536 ;;      Temps:          0       0       0       0       0       0       0       0       0
 11537 ;;      Totals:         1       0       0       0       0       0       0       0       0
 11538 ;;Total ram usage:        1 bytes
 11539 ;; Hardware stack levels used: 1
 11540 ;; Hardware stack levels required when called: 1
 11541 ;; This function calls:
 11542 ;;		_I2CLCD_Start
 11543 ;;		_I2CLCD_Stop
 11544 ;;		_I2CLCD_Write
 11545 ;; This function is called by:
 11546 ;;		_LCD_Write_Nibble
 11547 ;;		_LCD_Begin
 11548 ;;		_Backlight
 11549 ;;		_noBacklight
 11550 ;; This function uses a non-reentrant model
 11551 ;;
 11552                           
 11553                           	psect	text72
 11554  003A0C                     __ptext72:
 11555                           	callstack 0
 11556  003A0C                     _Expander_Write:
 11557                           	callstack 27
 11558                           
 11559                           ;incstack = 0
 11560                           ;Expander_Write@value stored from wreg
 11561  003A0C  6E03               	movwf	Expander_Write@value^0,c
 11562  003A0E                     
 11563                           ;I2C.c: 55: void Expander_Write(uint8_t value);I2C.c: 56: {;I2C.c: 57:   I2CLCD_Start();
 11564  003A0E  ECC5  F01C         	call	_I2CLCD_Start	;wreg free
 11565                           
 11566                           ;I2C.c: 58:   I2CLCD_Write(i2c_addr);
 11567  003A12  0100               	movlb	0	; () banked
 11568  003A14  51F2               	movf	_i2c_addr& (0+255),w,b
 11569  003A16  EC9B  F01C         	call	_I2CLCD_Write
 11570                           
 11571                           ;I2C.c: 59:   I2CLCD_Write(value | backlight_val);
 11572  003A1A  5003               	movf	Expander_Write@value^0,w,c
 11573  003A1C  0100               	movlb	0	; () banked
 11574  003A1E  11F4               	iorwf	_backlight_val& (0+255),w,b
 11575  003A20  EC9B  F01C         	call	_I2CLCD_Write
 11576                           
 11577                           ;I2C.c: 60:   I2CLCD_Stop();
 11578  003A24  ECB1  F01C         	call	_I2CLCD_Stop	;wreg free
 11579  003A28  0012               	return		;funcret
 11580  003A2A                     __end_of_Expander_Write:
 11581                           	callstack 0
 11582                           
 11583 ;; *************** function _I2CLCD_Write *****************
 11584 ;; Defined at:
 11585 ;;		line 27 in file "I2C.c"
 11586 ;; Parameters:    Size  Location     Type
 11587 ;;  i2c_data        1    wreg     unsigned char 
 11588 ;; Auto vars:     Size  Location     Type
 11589 ;;  i2c_data        1    1[COMRAM] unsigned char 
 11590 ;; Return value:  Size  Location     Type
 11591 ;;                  1    wreg      void 
 11592 ;; Registers used:
 11593 ;;		wreg, status,2, status,0
 11594 ;; Tracked objects:
 11595 ;;		On entry : 0/0
 11596 ;;		On exit  : 0/0
 11597 ;;		Unchanged: 0/0
 11598 ;; Data sizes:     COMRAM   BANK0   BANK1   BANK2   BANK3   BANK4   BANK5   BANK6   BANK7
 11599 ;;      Params:         0       0       0       0       0       0       0       0       0
 11600 ;;      Locals:         1       0       0       0       0       0       0       0       0
 11601 ;;      Temps:          1       0       0       0       0       0       0       0       0
 11602 ;;      Totals:         2       0       0       0       0       0       0       0       0
 11603 ;;Total ram usage:        2 bytes
 11604 ;; Hardware stack levels used: 1
 11605 ;; This function calls:
 11606 ;;		Nothing
 11607 ;; This function is called by:
 11608 ;;		_Expander_Write
 11609 ;; This function uses a non-reentrant model
 11610 ;;
 11611                           
 11612                           	psect	text73
 11613  003936                     __ptext73:
 11614                           	callstack 0
 11615  003936                     _I2CLCD_Write:
 11616                           	callstack 27
 11617                           
 11618                           ;incstack = 0
 11619                           ;I2CLCD_Write@i2c_data stored from wreg
 11620  003936  6E02               	movwf	I2CLCD_Write@i2c_data^0,c
 11621  003938                     l198:
 11622  003938  B4C7               	btfsc	199,2,c	;volatile
 11623  00393A  EFA1  F01C         	goto	u3111
 11624  00393E  EFA3  F01C         	goto	u3110
 11625  003942                     u3111:
 11626  003942  EF9C  F01C         	goto	l198
 11627  003946                     u3110:
 11628  003946  CFC5 F001          	movff	4037,??_I2CLCD_Write	;volatile
 11629  00394A  0E1F               	movlw	31
 11630  00394C  1601               	andwf	??_I2CLCD_Write^0,f,c
 11631  00394E  A4D8               	btfss	status,2,c
 11632  003950  EFAC  F01C         	goto	u3121
 11633  003954  EFAE  F01C         	goto	u3120
 11634  003958                     u3121:
 11635  003958  EF9C  F01C         	goto	l198
 11636  00395C                     u3120:
 11637  00395C                     
 11638                           ;I2C.c: 30:   SSPBUF = i2c_data;
 11639  00395C  C002  FFC9         	movff	I2CLCD_Write@i2c_data,4041	;volatile
 11640  003960  0012               	return		;funcret
 11641  003962                     __end_of_I2CLCD_Write:
 11642                           	callstack 0
 11643                           
 11644 ;; *************** function _I2CLCD_Stop *****************
 11645 ;; Defined at:
 11646 ;;		line 21 in file "I2C.c"
 11647 ;; Parameters:    Size  Location     Type
 11648 ;;		None
 11649 ;; Auto vars:     Size  Location     Type
 11650 ;;		None
 11651 ;; Return value:  Size  Location     Type
 11652 ;;                  1    wreg      void 
 11653 ;; Registers used:
 11654 ;;		wreg, status,2, status,0
 11655 ;; Tracked objects:
 11656 ;;		On entry : 0/0
 11657 ;;		On exit  : 0/0
 11658 ;;		Unchanged: 0/0
 11659 ;; Data sizes:     COMRAM   BANK0   BANK1   BANK2   BANK3   BANK4   BANK5   BANK6   BANK7
 11660 ;;      Params:         0       0       0       0       0       0       0       0       0
 11661 ;;      Locals:         0       0       0       0       0       0       0       0       0
 11662 ;;      Temps:          1       0       0       0       0       0       0       0       0
 11663 ;;      Totals:         1       0       0       0       0       0       0       0       0
 11664 ;;Total ram usage:        1 bytes
 11665 ;; Hardware stack levels used: 1
 11666 ;; This function calls:
 11667 ;;		Nothing
 11668 ;; This function is called by:
 11669 ;;		_Expander_Write
 11670 ;; This function uses a non-reentrant model
 11671 ;;
 11672                           
 11673                           	psect	text74
 11674  003962                     __ptext74:
 11675                           	callstack 0
 11676  003962                     _I2CLCD_Stop:
 11677                           	callstack 27
 11678  003962                     l192:
 11679  003962  B4C7               	btfsc	199,2,c	;volatile
 11680  003964  EFB6  F01C         	goto	u3091
 11681  003968  EFB8  F01C         	goto	u3090
 11682  00396C                     u3091:
 11683  00396C  EFB1  F01C         	goto	l192
 11684  003970                     u3090:
 11685  003970  CFC5 F001          	movff	4037,??_I2CLCD_Stop	;volatile
 11686  003974  0E1F               	movlw	31
 11687  003976  1601               	andwf	??_I2CLCD_Stop^0,f,c
 11688  003978  A4D8               	btfss	status,2,c
 11689  00397A  EFC1  F01C         	goto	u3101
 11690  00397E  EFC3  F01C         	goto	u3100
 11691  003982                     u3101:
 11692  003982  EFB1  F01C         	goto	l192
 11693  003986                     u3100:
 11694  003986                     
 11695                           ;I2C.c: 24:   PEN = 1;
 11696  003986  84C5               	bsf	4037,2,c	;volatile
 11697  003988  0012               	return		;funcret
 11698  00398A                     __end_of_I2CLCD_Stop:
 11699                           	callstack 0
 11700                           
 11701 ;; *************** function _I2CLCD_Start *****************
 11702 ;; Defined at:
 11703 ;;		line 15 in file "I2C.c"
 11704 ;; Parameters:    Size  Location     Type
 11705 ;;		None
 11706 ;; Auto vars:     Size  Location     Type
 11707 ;;		None
 11708 ;; Return value:  Size  Location     Type
 11709 ;;                  1    wreg      void 
 11710 ;; Registers used:
 11711 ;;		wreg, status,2, status,0
 11712 ;; Tracked objects:
 11713 ;;		On entry : 0/0
 11714 ;;		On exit  : 0/0
 11715 ;;		Unchanged: 0/0
 11716 ;; Data sizes:     COMRAM   BANK0   BANK1   BANK2   BANK3   BANK4   BANK5   BANK6   BANK7
 11717 ;;      Params:         0       0       0       0       0       0       0       0       0
 11718 ;;      Locals:         0       0       0       0       0       0       0       0       0
 11719 ;;      Temps:          1       0       0       0       0       0       0       0       0
 11720 ;;      Totals:         1       0       0       0       0       0       0       0       0
 11721 ;;Total ram usage:        1 bytes
 11722 ;; Hardware stack levels used: 1
 11723 ;; This function calls:
 11724 ;;		Nothing
 11725 ;; This function is called by:
 11726 ;;		_Expander_Write
 11727 ;; This function uses a non-reentrant model
 11728 ;;
 11729                           
 11730                           	psect	text75
 11731  00398A                     __ptext75:
 11732                           	callstack 0
 11733  00398A                     _I2CLCD_Start:
 11734                           	callstack 27
 11735  00398A                     l186:
 11736  00398A  B4C7               	btfsc	199,2,c	;volatile
 11737  00398C  EFCA  F01C         	goto	u3071
 11738  003990  EFCC  F01C         	goto	u3070
 11739  003994                     u3071:
 11740  003994  EFC5  F01C         	goto	l186
 11741  003998                     u3070:
 11742  003998  CFC5 F001          	movff	4037,??_I2CLCD_Start	;volatile
 11743  00399C  0E1F               	movlw	31
 11744  00399E  1601               	andwf	??_I2CLCD_Start^0,f,c
 11745  0039A0  A4D8               	btfss	status,2,c
 11746  0039A2  EFD5  F01C         	goto	u3081
 11747  0039A6  EFD7  F01C         	goto	u3080
 11748  0039AA                     u3081:
 11749  0039AA  EFC5  F01C         	goto	l186
 11750  0039AE                     u3080:
 11751  0039AE                     
 11752                           ;I2C.c: 18:   SEN = 1;
 11753  0039AE  80C5               	bsf	4037,0,c	;volatile
 11754  0039B0  0012               	return		;funcret
 11755  0039B2                     __end_of_I2CLCD_Start:
 11756                           	callstack 0
 11757                           
 11758 ;; *************** function _I2CLCD_Init *****************
 11759 ;; Defined at:
 11760 ;;		line 7 in file "I2C.c"
 11761 ;; Parameters:    Size  Location     Type
 11762 ;;  i2c_clk_freq    4   13[COMRAM] unsigned long 
 11763 ;; Auto vars:     Size  Location     Type
 11764 ;;		None
 11765 ;; Return value:  Size  Location     Type
 11766 ;;                  1    wreg      void 
 11767 ;; Registers used:
 11768 ;;		wreg, status,2, status,0, cstack
 11769 ;; Tracked objects:
 11770 ;;		On entry : 0/0
 11771 ;;		On exit  : 0/0
 11772 ;;		Unchanged: 0/0
 11773 ;; Data sizes:     COMRAM   BANK0   BANK1   BANK2   BANK3   BANK4   BANK5   BANK6   BANK7
 11774 ;;      Params:         4       0       0       0       0       0       0       0       0
 11775 ;;      Locals:         0       0       0       0       0       0       0       0       0
 11776 ;;      Temps:          4       0       0       0       0       0       0       0       0
 11777 ;;      Totals:         8       0       0       0       0       0       0       0       0
 11778 ;;Total ram usage:        8 bytes
 11779 ;; Hardware stack levels used: 1
 11780 ;; Hardware stack levels required when called: 1
 11781 ;; This function calls:
 11782 ;;		___lldiv
 11783 ;; This function is called by:
 11784 ;;		_main
 11785 ;; This function uses a non-reentrant model
 11786 ;;
 11787                           
 11788                           	psect	text76
 11789  003686                     __ptext76:
 11790                           	callstack 0
 11791  003686                     _I2CLCD_Init:
 11792                           	callstack 29
 11793  003686                     
 11794                           ;I2C.c: 7: void I2CLCD_Init(uint32_t i2c_clk_freq);I2C.c: 8: {;I2C.c: 9:   SSPCON1 = 0x2
      +                          8;
 11795  003686  0E28               	movlw	40
 11796  003688  6EC6               	movwf	198,c	;volatile
 11797                           
 11798                           ;I2C.c: 10:   SSPCON2 = 0x00;
 11799  00368A  0E00               	movlw	0
 11800  00368C  6EC5               	movwf	197,c	;volatile
 11801  00368E                     
 11802                           ;I2C.c: 11:   SSPADD = (27000000/(4 * i2c_clk_freq)) - 1;
 11803  00368E  0EC0               	movlw	192
 11804  003690  6E01               	movwf	___lldiv@dividend^0,c
 11805  003692  0EFC               	movlw	252
 11806  003694  6E02               	movwf	(___lldiv@dividend+1)^0,c
 11807  003696  0E9B               	movlw	155
 11808  003698  6E03               	movwf	(___lldiv@dividend+2)^0,c
 11809  00369A  0E01               	movlw	1
 11810  00369C  6E04               	movwf	(___lldiv@dividend+3)^0,c
 11811  00369E  C00E  F012         	movff	I2CLCD_Init@i2c_clk_freq,??_I2CLCD_Init
 11812  0036A2  C00F  F013         	movff	I2CLCD_Init@i2c_clk_freq+1,??_I2CLCD_Init+1
 11813  0036A6  C010  F014         	movff	I2CLCD_Init@i2c_clk_freq+2,??_I2CLCD_Init+2
 11814  0036AA  C011  F015         	movff	I2CLCD_Init@i2c_clk_freq+3,??_I2CLCD_Init+3
 11815  0036AE  0E02               	movlw	2
 11816  0036B0                     u5445:
 11817  0036B0  90D8               	bcf	status,0,c
 11818  0036B2  3612               	rlcf	??_I2CLCD_Init^0,f,c
 11819  0036B4  3613               	rlcf	(??_I2CLCD_Init+1)^0,f,c
 11820  0036B6  3614               	rlcf	(??_I2CLCD_Init+2)^0,f,c
 11821  0036B8  3615               	rlcf	(??_I2CLCD_Init+3)^0,f,c
 11822  0036BA  2EE8               	decfsz	wreg,f,c
 11823  0036BC  EF58  F01B         	goto	u5445
 11824  0036C0  C012  F005         	movff	??_I2CLCD_Init,___lldiv@divisor
 11825  0036C4  C013  F006         	movff	??_I2CLCD_Init+1,___lldiv@divisor+1
 11826  0036C8  C014  F007         	movff	??_I2CLCD_Init+2,___lldiv@divisor+2
 11827  0036CC  C015  F008         	movff	??_I2CLCD_Init+3,___lldiv@divisor+3
 11828  0036D0  EC48  F016         	call	___lldiv	;wreg free
 11829  0036D4  0401               	decf	?___lldiv^0,w,c
 11830  0036D6  6EC8               	movwf	200,c	;volatile
 11831  0036D8                     
 11832                           ;I2C.c: 12:   SSPSTAT = 0;
 11833  0036D8  0E00               	movlw	0
 11834  0036DA  6EC7               	movwf	199,c	;volatile
 11835  0036DC  0012               	return		;funcret
 11836  0036DE                     __end_of_I2CLCD_Init:
 11837                           	callstack 0
 11838                           
 11839 ;; *************** function ___lldiv *****************
 11840 ;; Defined at:
 11841 ;;		line 7 in file "D:\Program Files\Microchip\xc8\v2.36\pic\sources\c99\common\__lldiv.c"
 11842 ;; Parameters:    Size  Location     Type
 11843 ;;  dividend        4    0[COMRAM] unsigned long 
 11844 ;;  divisor         4    4[COMRAM] unsigned long 
 11845 ;; Auto vars:     Size  Location     Type
 11846 ;;  quotient        4    8[COMRAM] unsigned long 
 11847 ;;  counter         1   12[COMRAM] unsigned char 
 11848 ;; Return value:  Size  Location     Type
 11849 ;;                  4    0[COMRAM] unsigned long 
 11850 ;; Registers used:
 11851 ;;		wreg, status,2, status,0
 11852 ;; Tracked objects:
 11853 ;;		On entry : 0/0
 11854 ;;		On exit  : 0/0
 11855 ;;		Unchanged: 0/0
 11856 ;; Data sizes:     COMRAM   BANK0   BANK1   BANK2   BANK3   BANK4   BANK5   BANK6   BANK7
 11857 ;;      Params:         8       0       0       0       0       0       0       0       0
 11858 ;;      Locals:         5       0       0       0       0       0       0       0       0
 11859 ;;      Temps:          0       0       0       0       0       0       0       0       0
 11860 ;;      Totals:        13       0       0       0       0       0       0       0       0
 11861 ;;Total ram usage:       13 bytes
 11862 ;; Hardware stack levels used: 1
 11863 ;; This function calls:
 11864 ;;		Nothing
 11865 ;; This function is called by:
 11866 ;;		_I2CLCD_Init
 11867 ;; This function uses a non-reentrant model
 11868 ;;
 11869                           
 11870                           	psect	text77
 11871  002C90                     __ptext77:
 11872                           	callstack 0
 11873  002C90                     ___lldiv:
 11874                           	callstack 29
 11875  002C90  0E00               	movlw	0
 11876  002C92  6E09               	movwf	___lldiv@quotient^0,c
 11877  002C94  0E00               	movlw	0
 11878  002C96  6E0A               	movwf	(___lldiv@quotient+1)^0,c
 11879  002C98  0E00               	movlw	0
 11880  002C9A  6E0B               	movwf	(___lldiv@quotient+2)^0,c
 11881  002C9C  0E00               	movlw	0
 11882  002C9E  6E0C               	movwf	(___lldiv@quotient+3)^0,c
 11883  002CA0  5005               	movf	___lldiv@divisor^0,w,c
 11884  002CA2  1006               	iorwf	(___lldiv@divisor+1)^0,w,c
 11885  002CA4  1007               	iorwf	(___lldiv@divisor+2)^0,w,c
 11886  002CA6  1008               	iorwf	(___lldiv@divisor+3)^0,w,c
 11887  002CA8  B4D8               	btfsc	status,2,c
 11888  002CAA  EF59  F016         	goto	u4611
 11889  002CAE  EF5B  F016         	goto	u4610
 11890  002CB2                     u4611:
 11891  002CB2  EF91  F016         	goto	l700
 11892  002CB6                     u4610:
 11893  002CB6  0E01               	movlw	1
 11894  002CB8  6E0D               	movwf	___lldiv@counter^0,c
 11895  002CBA  EF65  F016         	goto	l4889
 11896  002CBE                     l4887:
 11897  002CBE  90D8               	bcf	status,0,c
 11898  002CC0  3605               	rlcf	___lldiv@divisor^0,f,c
 11899  002CC2  3606               	rlcf	(___lldiv@divisor+1)^0,f,c
 11900  002CC4  3607               	rlcf	(___lldiv@divisor+2)^0,f,c
 11901  002CC6  3608               	rlcf	(___lldiv@divisor+3)^0,f,c
 11902  002CC8  2A0D               	incf	___lldiv@counter^0,f,c
 11903  002CCA                     l4889:
 11904  002CCA  AE08               	btfss	(___lldiv@divisor+3)^0,7,c
 11905  002CCC  EF6A  F016         	goto	u4621
 11906  002CD0  EF6C  F016         	goto	u4620
 11907  002CD4                     u4621:
 11908  002CD4  EF5F  F016         	goto	l4887
 11909  002CD8                     u4620:
 11910  002CD8                     l4891:
 11911  002CD8  90D8               	bcf	status,0,c
 11912  002CDA  3609               	rlcf	___lldiv@quotient^0,f,c
 11913  002CDC  360A               	rlcf	(___lldiv@quotient+1)^0,f,c
 11914  002CDE  360B               	rlcf	(___lldiv@quotient+2)^0,f,c
 11915  002CE0  360C               	rlcf	(___lldiv@quotient+3)^0,f,c
 11916  002CE2  5005               	movf	___lldiv@divisor^0,w,c
 11917  002CE4  5C01               	subwf	___lldiv@dividend^0,w,c
 11918  002CE6  5006               	movf	(___lldiv@divisor+1)^0,w,c
 11919  002CE8  5802               	subwfb	(___lldiv@dividend+1)^0,w,c
 11920  002CEA  5007               	movf	(___lldiv@divisor+2)^0,w,c
 11921  002CEC  5803               	subwfb	(___lldiv@dividend+2)^0,w,c
 11922  002CEE  5008               	movf	(___lldiv@divisor+3)^0,w,c
 11923  002CF0  5804               	subwfb	(___lldiv@dividend+3)^0,w,c
 11924  002CF2  A0D8               	btfss	status,0,c
 11925  002CF4  EF7E  F016         	goto	u4631
 11926  002CF8  EF80  F016         	goto	u4630
 11927  002CFC                     u4631:
 11928  002CFC  EF89  F016         	goto	l4899
 11929  002D00                     u4630:
 11930  002D00  5005               	movf	___lldiv@divisor^0,w,c
 11931  002D02  5E01               	subwf	___lldiv@dividend^0,f,c
 11932  002D04  5006               	movf	(___lldiv@divisor+1)^0,w,c
 11933  002D06  5A02               	subwfb	(___lldiv@dividend+1)^0,f,c
 11934  002D08  5007               	movf	(___lldiv@divisor+2)^0,w,c
 11935  002D0A  5A03               	subwfb	(___lldiv@dividend+2)^0,f,c
 11936  002D0C  5008               	movf	(___lldiv@divisor+3)^0,w,c
 11937  002D0E  5A04               	subwfb	(___lldiv@dividend+3)^0,f,c
 11938  002D10  8009               	bsf	___lldiv@quotient^0,0,c
 11939  002D12                     l4899:
 11940  002D12  90D8               	bcf	status,0,c
 11941  002D14  3208               	rrcf	(___lldiv@divisor+3)^0,f,c
 11942  002D16  3207               	rrcf	(___lldiv@divisor+2)^0,f,c
 11943  002D18  3206               	rrcf	(___lldiv@divisor+1)^0,f,c
 11944  002D1A  3205               	rrcf	___lldiv@divisor^0,f,c
 11945  002D1C  2E0D               	decfsz	___lldiv@counter^0,f,c
 11946  002D1E  EF6C  F016         	goto	l4891
 11947  002D22                     l700:
 11948  002D22  C009  F001         	movff	___lldiv@quotient,?___lldiv
 11949  002D26  C00A  F002         	movff	___lldiv@quotient+1,?___lldiv+1
 11950  002D2A  C00B  F003         	movff	___lldiv@quotient+2,?___lldiv+2
 11951  002D2E  C00C  F004         	movff	___lldiv@quotient+3,?___lldiv+3
 11952  002D32  0012               	return		;funcret
 11953  002D34                     __end_of___lldiv:
 11954                           	callstack 0
 11955                           
 11956                           	psect	rparam
 11957  0000                     
 11958                           	psect	idloc
 11959                           
 11960                           ;Config register IDLOC0 @ 0x200000
 11961                           ;	unspecified, using default values
 11962  200000                     	org	2097152
 11963  200000  FF                 	db	255
 11964                           
 11965                           ;Config register IDLOC1 @ 0x200001
 11966                           ;	unspecified, using default values
 11967  200001                     	org	2097153
 11968  200001  FF                 	db	255
 11969                           
 11970                           ;Config register IDLOC2 @ 0x200002
 11971                           ;	unspecified, using default values
 11972  200002                     	org	2097154
 11973  200002  FF                 	db	255
 11974                           
 11975                           ;Config register IDLOC3 @ 0x200003
 11976                           ;	unspecified, using default values
 11977  200003                     	org	2097155
 11978  200003  FF                 	db	255
 11979                           
 11980                           ;Config register IDLOC4 @ 0x200004
 11981                           ;	unspecified, using default values
 11982  200004                     	org	2097156
 11983  200004  FF                 	db	255
 11984                           
 11985                           ;Config register IDLOC5 @ 0x200005
 11986                           ;	unspecified, using default values
 11987  200005                     	org	2097157
 11988  200005  FF                 	db	255
 11989                           
 11990                           ;Config register IDLOC6 @ 0x200006
 11991                           ;	unspecified, using default values
 11992  200006                     	org	2097158
 11993  200006  FF                 	db	255
 11994                           
 11995                           ;Config register IDLOC7 @ 0x200007
 11996                           ;	unspecified, using default values
 11997  200007                     	org	2097159
 11998  200007  FF                 	db	255
 11999                           
 12000                           	psect	config
 12001                           
 12002                           ;Config register CONFIG1L @ 0x300000
 12003                           ;	PLL Prescaler Selection bits
 12004                           ;	PLLDIV = 1, No prescale (4 MHz oscillator input drives PLL directly)
 12005                           ;	System Clock Postscaler Selection bits
 12006                           ;	CPUDIV = OSC1_PLL2, [Primary Oscillator Src: /1][96 MHz PLL Src: /2]
 12007                           ;	USB Clock Selection bit (used in Full-Speed USB mode only; UCFG:FSEN = 1)
 12008                           ;	USBDIV = 1, USB clock source comes directly from the primary oscillator block with no 
      +                          postscale
 12009  300000                     	org	3145728
 12010  300000  00                 	db	0
 12011                           
 12012                           ;Config register CONFIG1H @ 0x300001
 12013                           ;	Oscillator Selection bits
 12014                           ;	FOSC = HS, HS oscillator (HS)
 12015                           ;	Fail-Safe Clock Monitor Enable bit
 12016                           ;	FCMEN = OFF, Fail-Safe Clock Monitor disabled
 12017                           ;	Internal/External Oscillator Switchover bit
 12018                           ;	IESO = OFF, Oscillator Switchover mode disabled
 12019  300001                     	org	3145729
 12020  300001  0C                 	db	12
 12021                           
 12022                           ;Config register CONFIG2L @ 0x300002
 12023                           ;	Power-up Timer Enable bit
 12024                           ;	PWRT = ON, PWRT enabled
 12025                           ;	Brown-out Reset Enable bits
 12026                           ;	BOR = ON, Brown-out Reset enabled in hardware only (SBOREN is disabled)
 12027                           ;	Brown-out Reset Voltage bits
 12028                           ;	BORV = 3, Minimum setting 2.05V
 12029                           ;	USB Voltage Regulator Enable bit
 12030                           ;	VREGEN = OFF, USB voltage regulator disabled
 12031  300002                     	org	3145730
 12032  300002  1E                 	db	30
 12033                           
 12034                           ;Config register CONFIG2H @ 0x300003
 12035                           ;	Watchdog Timer Enable bit
 12036                           ;	WDT = OFF, WDT disabled (control is placed on the SWDTEN bit)
 12037                           ;	Watchdog Timer Postscale Select bits
 12038                           ;	WDTPS = 32768, 1:32768
 12039  300003                     	org	3145731
 12040  300003  1E                 	db	30
 12041                           
 12042                           ; Padding undefined space
 12043  300004                     	org	3145732
 12044  300004  FF                 	db	255
 12045                           
 12046                           ;Config register CONFIG3H @ 0x300005
 12047                           ;	CCP2 MUX bit
 12048                           ;	CCP2MX = ON, CCP2 input/output is multiplexed with RC1
 12049                           ;	PORTB A/D Enable bit
 12050                           ;	PBADEN = OFF, PORTB<4:0> pins are configured as digital I/O on Reset
 12051                           ;	Low-Power Timer 1 Oscillator Enable bit
 12052                           ;	LPT1OSC = OFF, Timer1 configured for higher power operation
 12053                           ;	MCLR Pin Enable bit
 12054                           ;	MCLRE = ON, MCLR pin enabled; RE3 input pin disabled
 12055  300005                     	org	3145733
 12056  300005  81                 	db	129
 12057                           
 12058                           ;Config register CONFIG4L @ 0x300006
 12059                           ;	Stack Full/Underflow Reset Enable bit
 12060                           ;	STVREN = ON, Stack full/underflow will cause Reset
 12061                           ;	Single-Supply ICSP Enable bit
 12062                           ;	LVP = OFF, Single-Supply ICSP disabled
 12063                           ;	Dedicated In-Circuit Debug/Programming Port (ICPORT) Enable bit
 12064                           ;	ICPRT = OFF, ICPORT disabled
 12065                           ;	Extended Instruction Set Enable bit
 12066                           ;	XINST = OFF, Instruction set extension and Indexed Addressing mode disabled (Legacy mo
      +                          de)
 12067                           ;	Background Debugger Enable bit
 12068                           ;	DEBUG = 0x1, unprogrammed default
 12069  300006                     	org	3145734
 12070  300006  81                 	db	129
 12071                           
 12072                           ; Padding undefined space
 12073  300007                     	org	3145735
 12074  300007  FF                 	db	255
 12075                           
 12076                           ;Config register CONFIG5L @ 0x300008
 12077                           ;	Code Protection bit
 12078                           ;	CP0 = OFF, Block 0 (000800-001FFFh) is not code-protected
 12079                           ;	Code Protection bit
 12080                           ;	CP1 = OFF, Block 1 (002000-003FFFh) is not code-protected
 12081                           ;	Code Protection bit
 12082                           ;	CP2 = OFF, Block 2 (004000-005FFFh) is not code-protected
 12083                           ;	Code Protection bit
 12084                           ;	CP3 = OFF, Block 3 (006000-007FFFh) is not code-protected
 12085  300008                     	org	3145736
 12086  300008  0F                 	db	15
 12087                           
 12088                           ;Config register CONFIG5H @ 0x300009
 12089                           ;	Boot Block Code Protection bit
 12090                           ;	CPB = OFF, Boot block (000000-0007FFh) is not code-protected
 12091                           ;	Data EEPROM Code Protection bit
 12092                           ;	CPD = OFF, Data EEPROM is not code-protected
 12093  300009                     	org	3145737
 12094  300009  C0                 	db	192
 12095                           
 12096                           ;Config register CONFIG6L @ 0x30000A
 12097                           ;	Write Protection bit
 12098                           ;	WRT0 = OFF, Block 0 (000800-001FFFh) is not write-protected
 12099                           ;	Write Protection bit
 12100                           ;	WRT1 = OFF, Block 1 (002000-003FFFh) is not write-protected
 12101                           ;	Write Protection bit
 12102                           ;	WRT2 = OFF, Block 2 (004000-005FFFh) is not write-protected
 12103                           ;	Write Protection bit
 12104                           ;	WRT3 = OFF, Block 3 (006000-007FFFh) is not write-protected
 12105  30000A                     	org	3145738
 12106  30000A  0F                 	db	15
 12107                           
 12108                           ;Config register CONFIG6H @ 0x30000B
 12109                           ;	Configuration Register Write Protection bit
 12110                           ;	WRTC = OFF, Configuration registers (300000-3000FFh) are not write-protected
 12111                           ;	Boot Block Write Protection bit
 12112                           ;	WRTB = OFF, Boot block (000000-0007FFh) is not write-protected
 12113                           ;	Data EEPROM Write Protection bit
 12114                           ;	WRTD = OFF, Data EEPROM is not write-protected
 12115  30000B                     	org	3145739
 12116  30000B  E0                 	db	224
 12117                           
 12118                           ;Config register CONFIG7L @ 0x30000C
 12119                           ;	Table Read Protection bit
 12120                           ;	EBTR0 = OFF, Block 0 (000800-001FFFh) is not protected from table reads executed in ot
      +                          her blocks
 12121                           ;	Table Read Protection bit
 12122                           ;	EBTR1 = OFF, Block 1 (002000-003FFFh) is not protected from table reads executed in ot
      +                          her blocks
 12123                           ;	Table Read Protection bit
 12124                           ;	EBTR2 = OFF, Block 2 (004000-005FFFh) is not protected from table reads executed in ot
      +                          her blocks
 12125                           ;	Table Read Protection bit
 12126                           ;	EBTR3 = OFF, Block 3 (006000-007FFFh) is not protected from table reads executed in ot
      +                          her blocks
 12127  30000C                     	org	3145740
 12128  30000C  0F                 	db	15
 12129                           
 12130                           ;Config register CONFIG7H @ 0x30000D
 12131                           ;	Boot Block Table Read Protection bit
 12132                           ;	EBTRB = OFF, Boot block (000000-0007FFh) is not protected from table reads executed in
      +                           other blocks
 12133  30000D                     	org	3145741
 12134  30000D  40                 	db	64
 12135                           tosu	equ	0xFFF
 12136                           tosh	equ	0xFFE
 12137                           tosl	equ	0xFFD
 12138                           stkptr	equ	0xFFC
 12139                           pclatu	equ	0xFFB
 12140                           pclath	equ	0xFFA
 12141                           pcl	equ	0xFF9
 12142                           tblptru	equ	0xFF8
 12143                           tblptrh	equ	0xFF7
 12144                           tblptrl	equ	0xFF6
 12145                           tablat	equ	0xFF5
 12146                           prodh	equ	0xFF4
 12147                           prodl	equ	0xFF3
 12148                           indf0	equ	0xFEF
 12149                           postinc0	equ	0xFEE
 12150                           postdec0	equ	0xFED
 12151                           preinc0	equ	0xFEC
 12152                           plusw0	equ	0xFEB
 12153                           fsr0h	equ	0xFEA
 12154                           fsr0l	equ	0xFE9
 12155                           wreg	equ	0xFE8
 12156                           indf1	equ	0xFE7
 12157                           postinc1	equ	0xFE6
 12158                           postdec1	equ	0xFE5
 12159                           preinc1	equ	0xFE4
 12160                           plusw1	equ	0xFE3
 12161                           fsr1h	equ	0xFE2
 12162                           fsr1l	equ	0xFE1
 12163                           bsr	equ	0xFE0
 12164                           indf2	equ	0xFDF
 12165                           postinc2	equ	0xFDE
 12166                           postdec2	equ	0xFDD
 12167                           preinc2	equ	0xFDC
 12168                           plusw2	equ	0xFDB
 12169                           fsr2h	equ	0xFDA
 12170                           fsr2l	equ	0xFD9
 12171                           status	equ	0xFD8

Data Sizes:
    Strings     37
    Constant    0
    Data        21
    BSS         148
    Persistent  1
    Stack       0

Auto Spaces:
    Space          Size  Autos    Used
    COMRAM           95     95      95
    BANK0           160     18     149
    BANK1           256      0      40
    BANK2           256      0       0
    BANK3           256      0       0
    BANK4           256      0       0
    BANK5           256      0       0
    BANK6           256      0       0
    BANK7           256      0       0

Pointer List with Targets:

    strlen@s	PTR const unsigned char  size(2) Largest target is 32
		 -> dbuf(BANK0[32]), STR_8(CODE[3]), STR_5(CODE[3]), data_buffer(BANK0[20]), 
		 -> STR_2(CODE[3]), UID_3(BANK0[20]), UID_2(BANK0[20]), UID_1(BANK0[20]), 

    strlen@a	PTR const unsigned char  size(2) Largest target is 32
		 -> dbuf(BANK0[32]), STR_8(CODE[3]), STR_5(CODE[3]), data_buffer(BANK0[20]), 
		 -> STR_2(CODE[3]), UID_3(BANK0[20]), UID_2(BANK0[20]), UID_1(BANK0[20]), 

    fputs@s	PTR const unsigned char  size(2) Largest target is 32
		 -> dbuf(BANK0[32]), 

    fputs@fp	PTR struct _IO_FILE size(2) Largest target is 11
		 -> sprintf@f(BANK0[11]), 

    fputc@fp...source	PTR const unsigned char  size(2) Largest target is 0

    fputc@fp...buffer	PTR unsigned char  size(2) Largest target is 0

    fputc@fp	PTR struct _IO_FILE size(2) Largest target is 11
		 -> sprintf@f(BANK0[11]), 

    vfprintf@ap	PTR PTR void  size(2) Largest target is 2
		 -> sprintf@ap(BANK0[2]), 

    vfprintf@fp	PTR struct _IO_FILE size(2) Largest target is 11
		 -> sprintf@f(BANK0[11]), 

    vfprintf@fmt	PTR const unsigned char  size(2) Largest target is 3
		 -> STR_9(CODE[3]), STR_6(CODE[3]), STR_3(CODE[3]), 

    vfprintf@cfmt	PTR unsigned char  size(2) Largest target is 3
		 -> STR_9(CODE[3]), STR_6(CODE[3]), STR_3(CODE[3]), 

    vfpfcnvrt@fp	PTR struct _IO_FILE size(2) Largest target is 11
		 -> sprintf@f(BANK0[11]), 

    vfpfcnvrt@ap	PTR PTR void  size(2) Largest target is 2
		 -> sprintf@ap(BANK0[2]), 

    vfpfcnvrt@fmt	PTR PTR unsigned char  size(2) Largest target is 2
		 -> vfprintf@cfmt(COMRAM[2]), 

    xtoa@fp	PTR struct _IO_FILE size(2) Largest target is 11
		 -> sprintf@f(BANK0[11]), 

    pad@fp	PTR struct _IO_FILE size(2) Largest target is 11
		 -> sprintf@f(BANK0[11]), 

    pad@buf	PTR unsigned char  size(2) Largest target is 32
		 -> dbuf(BANK0[32]), 

    sprintf@fmt	PTR const unsigned char  size(2) Largest target is 3
		 -> STR_9(CODE[3]), STR_6(CODE[3]), STR_3(CODE[3]), 

    sprintf@s	PTR unsigned char  size(2) Largest target is 20
		 -> data_buffer(BANK0[20]), 

    sprintf@ap	PTR void [1] size(2) Largest target is 2
		 -> ?_sprintf(COMRAM[2]), 

    S1384$source	PTR const unsigned char  size(2) Largest target is 0

    f...source	PTR const unsigned char  size(2) Largest target is 0

    S1384$buffer	PTR unsigned char  size(2) Largest target is 0

    f...buffer	PTR unsigned char  size(2) Largest target is 0

    MFRC522_ReadCardSerial3@str	PTR unsigned char  size(2) Largest target is 20
		 -> UID_3(BANK0[20]), 

    MFRC522_ReadCardSerial2@str	PTR unsigned char  size(2) Largest target is 20
		 -> UID_2(BANK0[20]), 

    MFRC522_ReadCardSerial@str	PTR unsigned char  size(2) Largest target is 20
		 -> UID_1(BANK0[20]), 

    MFRC522_IsCard3@TagType	PTR unsigned char  size(2) Largest target is 1
		 -> TagType3(BANK0[1]), 

    MFRC522_IsCard2@TagType	PTR unsigned char  size(2) Largest target is 1
		 -> TagType2(BANK0[1]), 

    MFRC522_IsCard@TagType	PTR unsigned char  size(2) Largest target is 1
		 -> TagType1(BANK0[1]), 

    MFRC522_AntiColl3@serNum	PTR unsigned char  size(2) Largest target is 20
		 -> UID_3(BANK0[20]), 

    MFRC522_AntiColl2@serNum	PTR unsigned char  size(2) Largest target is 20
		 -> UID_2(BANK0[20]), 

    MFRC522_AntiColl@serNum	PTR unsigned char  size(2) Largest target is 20
		 -> UID_1(BANK0[20]), 

    MFRC522_CRC3@dataOut	PTR unsigned char  size(2) Largest target is 9
		 -> MFRC522_Halt3@buff(COMRAM[4]), MFRC522_SelectTag3@buffer(COMRAM[9]), 

    MFRC522_CRC3@dataIn	PTR unsigned char  size(2) Largest target is 9
		 -> MFRC522_Halt3@buff(COMRAM[4]), MFRC522_SelectTag3@buffer(COMRAM[9]), 

    MFRC522_CRC2@dataOut	PTR unsigned char  size(2) Largest target is 9
		 -> MFRC522_Halt2@buff(COMRAM[4]), MFRC522_SelectTag2@buffer(COMRAM[9]), 

    MFRC522_CRC2@dataIn	PTR unsigned char  size(2) Largest target is 9
		 -> MFRC522_Halt2@buff(COMRAM[4]), MFRC522_SelectTag2@buffer(COMRAM[9]), 

    MFRC522_CRC@dataOut	PTR unsigned char  size(2) Largest target is 9
		 -> MFRC522_Halt@buff(COMRAM[4]), MFRC522_SelectTag@buffer(COMRAM[9]), 

    MFRC522_CRC@dataIn	PTR unsigned char  size(2) Largest target is 9
		 -> MFRC522_Halt@buff(COMRAM[4]), MFRC522_SelectTag@buffer(COMRAM[9]), 

    MFRC522_Request3@TagType	PTR unsigned char  size(2) Largest target is 1
		 -> TagType3(BANK0[1]), 

    MFRC522_Request2@TagType	PTR unsigned char  size(2) Largest target is 1
		 -> TagType2(BANK0[1]), 

    MFRC522_Request@TagType	PTR unsigned char  size(2) Largest target is 1
		 -> TagType1(BANK0[1]), 

    MFRC522_ToCard3@backData	PTR unsigned char  size(2) Largest target is 20
		 -> MFRC522_Halt3@buff(COMRAM[4]), MFRC522_SelectTag3@buffer(COMRAM[9]), UID_3(BANK0[20]), TagType3(BANK0[1]), 

    MFRC522_ToCard3@backLen	PTR unsigned int  size(2) Largest target is 2
		 -> MFRC522_AntiColl3@unLen(COMRAM[2]), MFRC522_Halt3@unLen(COMRAM[2]), MFRC522_SelectTag3@recvBits(COMRAM[2]), MFRC522_Request3@backBits(COMRAM[2]), 

    MFRC522_ToCard3@sendData	PTR unsigned char  size(2) Largest target is 20
		 -> MFRC522_Halt3@buff(COMRAM[4]), MFRC522_SelectTag3@buffer(COMRAM[9]), UID_3(BANK0[20]), TagType3(BANK0[1]), 

    MFRC522_ToCard2@backData	PTR unsigned char  size(2) Largest target is 20
		 -> MFRC522_Halt2@buff(COMRAM[4]), MFRC522_SelectTag2@buffer(COMRAM[9]), UID_2(BANK0[20]), TagType2(BANK0[1]), 

    MFRC522_ToCard2@backLen	PTR unsigned int  size(2) Largest target is 2
		 -> MFRC522_AntiColl2@unLen(COMRAM[2]), MFRC522_Halt2@unLen(COMRAM[2]), MFRC522_SelectTag2@recvBits(COMRAM[2]), MFRC522_Request2@backBits(COMRAM[2]), 

    MFRC522_ToCard2@sendData	PTR unsigned char  size(2) Largest target is 20
		 -> MFRC522_Halt2@buff(COMRAM[4]), MFRC522_SelectTag2@buffer(COMRAM[9]), UID_2(BANK0[20]), TagType2(BANK0[1]), 

    MFRC522_ToCard@backData	PTR unsigned char  size(2) Largest target is 20
		 -> MFRC522_Halt@buff(COMRAM[4]), MFRC522_SelectTag@buffer(COMRAM[9]), UID_1(BANK0[20]), TagType1(BANK0[1]), 

    MFRC522_ToCard@backLen	PTR unsigned int  size(2) Largest target is 2
		 -> MFRC522_AntiColl@unLen(COMRAM[2]), MFRC522_Halt@unLen(COMRAM[2]), MFRC522_SelectTag@recvBits(COMRAM[2]), MFRC522_Request@backBits(COMRAM[2]), 

    MFRC522_ToCard@sendData	PTR unsigned char  size(2) Largest target is 20
		 -> MFRC522_Halt@buff(COMRAM[4]), MFRC522_SelectTag@buffer(COMRAM[9]), UID_1(BANK0[20]), TagType1(BANK0[1]), 

    LCD_Print@LCD_Str	PTR unsigned char  size(2) Largest target is 20
		 -> STR_10(CODE[5]), STR_7(CODE[5]), STR_4(CODE[5]), data_buffer(BANK0[20]), 
		 -> STR_1(CODE[10]), 

    USART_TxChar@out	PTR unsigned char  size(2) Largest target is 20
		 -> STR_8(CODE[3]), STR_5(CODE[3]), data_buffer(BANK0[20]), STR_2(CODE[3]), 


Critical Paths under _main in COMRAM

    _main->_sprintf
    _sprintf->_vfprintf
    _vfprintf->_vfpfcnvrt
    _vfpfcnvrt->_xtoa
    _xtoa->_pad
    _toupper->_islower
    _pad->_fputs
    _fputs->_fputc
    _USART_TxChar->_strlen
    _USART_Init->___fladd
    ___fldiv->___xxtofl
    ___fladd->___fldiv
    _MFRC522_ReadCardSerial3->_MFRC522_AntiColl3
    _MFRC522_AntiColl3->_MFRC522_ToCard3
    _MFRC522_ReadCardSerial2->_MFRC522_AntiColl2
    _MFRC522_AntiColl2->_MFRC522_ToCard2
    _MFRC522_ReadCardSerial->_MFRC522_AntiColl
    _MFRC522_AntiColl->_MFRC522_ToCard
    _MFRC522_IsCard3->_MFRC522_Request3
    _MFRC522_Request3->_MFRC522_ToCard3
    _MFRC522_IsCard2->_MFRC522_Request2
    _MFRC522_Request2->_MFRC522_ToCard2
    _MFRC522_IsCard->_MFRC522_Request
    _MFRC522_Request->_MFRC522_ToCard
    _MFRC522_Reset->_MFRC522_Wr
    _MFRC522_Reset->_MFRC522_Wr2
    _MFRC522_Reset->_MFRC522_Wr3
    _MFRC522_Reset->_MFRC522_Wr4
    _MFRC522_AntennaOn4->_MFRC522_Set_Bit4
    _MFRC522_Set_Bit4->_MFRC522_Rd4
    _MFRC522_AntennaOn3->_MFRC522_Set_Bit3
    _MFRC522_AntennaOn2->_MFRC522_Set_Bit2
    _MFRC522_AntennaOn->_MFRC522_Set_Bit
    _MFRC522_AntennaOff4->_MFRC522_Clear_Bit4
    _MFRC522_Clear_Bit4->_MFRC522_Rd4
    _MFRC522_AntennaOff3->_MFRC522_Clear_Bit3
    _MFRC522_AntennaOff2->_MFRC522_Clear_Bit2
    _MFRC522_AntennaOff->_MFRC522_Clear_Bit
    _MFRC522_Halt3->_MFRC522_ToCard3
    _MFRC522_ToCard3->_MFRC522_Clear_Bit3
    _MFRC522_ToCard3->_MFRC522_Set_Bit3
    _MFRC522_CRC3->_MFRC522_Clear_Bit3
    _MFRC522_CRC3->_MFRC522_Set_Bit3
    _MFRC522_Set_Bit3->_MFRC522_Rd3
    _MFRC522_Clear_Bit3->_MFRC522_Rd3
    _MFRC522_Halt2->_MFRC522_ToCard2
    _MFRC522_ToCard2->_MFRC522_Clear_Bit2
    _MFRC522_ToCard2->_MFRC522_Set_Bit2
    _MFRC522_CRC2->_MFRC522_Clear_Bit2
    _MFRC522_CRC2->_MFRC522_Set_Bit2
    _MFRC522_Set_Bit2->_MFRC522_Rd2
    _MFRC522_Clear_Bit2->_MFRC522_Rd2
    _MFRC522_Halt->_MFRC522_ToCard
    _MFRC522_ToCard->_MFRC522_Clear_Bit
    _MFRC522_ToCard->_MFRC522_Set_Bit
    _MFRC522_CRC->_MFRC522_Clear_Bit
    _MFRC522_CRC->_MFRC522_Set_Bit
    _MFRC522_Set_Bit->_MFRC522_Rd
    _MFRC522_Clear_Bit->_MFRC522_Rd
    _LCD_Print->_LCD_Write_Nibble
    _LCD_Goto->_LCD_Cmd
    _LCD_Begin->_LCD_Cmd
    _LCD_Cmd->_LCD_Write_Nibble
    _LCD_Write_Nibble->_Expander_Write
    _Expander_Write->_I2CLCD_Write
    _I2CLCD_Init->___lldiv

Critical Paths under _main in BANK0

    _main->_sprintf

Critical Paths under _main in BANK1

    None.

Critical Paths under _main in BANK2

    None.

Critical Paths under _main in BANK3

    None.

Critical Paths under _main in BANK4

    None.

Critical Paths under _main in BANK5

    None.

Critical Paths under _main in BANK6

    None.

Critical Paths under _main in BANK7

    None.

Call Graph Tables:

 ---------------------------------------------------------------------------------
 (Depth) Function   	        Calls       Base Space   Used Autos Params    Refs
 ---------------------------------------------------------------------------------
 (0) _main                                                 5     5      0  195697
                                             13 BANK0      5     5      0
                        _I2CLCD_Init
                          _LCD_Begin
                            _LCD_Cmd
                           _LCD_Goto
                          _LCD_Print
                   _MFRC522_AntiColl
                  _MFRC522_AntiColl2
                  _MFRC522_AntiColl3
                       _MFRC522_Halt
                      _MFRC522_Halt2
                      _MFRC522_Halt3
                       _MFRC522_Init
                     _MFRC522_IsCard
                    _MFRC522_IsCard2
                    _MFRC522_IsCard3
             _MFRC522_ReadCardSerial
            _MFRC522_ReadCardSerial2
            _MFRC522_ReadCardSerial3
                         _USART_Init
                       _USART_TxChar
                            _sprintf
                             _strlen
 ---------------------------------------------------------------------------------
 (1) _sprintf                                             21    15      6    6943
                                             89 COMRAM     6     0      6
                                              0 BANK0     13    13      0
                           _vfprintf
 ---------------------------------------------------------------------------------
 (2) _vfprintf                                             8     2      6    6288
                                             81 COMRAM     8     2      6
                          _vfpfcnvrt
 ---------------------------------------------------------------------------------
 (3) _vfpfcnvrt                                           44    38      6    5933
                                             62 COMRAM    19    13      6
                              _fputc
                               _xtoa
 ---------------------------------------------------------------------------------
 (4) _xtoa                                                35    24     11    4495
                                             27 COMRAM    35    24     11
                            _isalpha
                            _isupper
                                _pad
                            _toupper
 ---------------------------------------------------------------------------------
 (5) _toupper                                              6     4      2     388
                                              6 COMRAM     6     4      2
                            _islower
 ---------------------------------------------------------------------------------
 (6) _islower                                              6     4      2     161
                                              0 COMRAM     6     4      2
 ---------------------------------------------------------------------------------
 (5) _pad                                                 11     5      6    3013
                                             16 COMRAM    11     5      6
                              _fputc
                              _fputs
                             _strlen
 ---------------------------------------------------------------------------------
 (6) _fputs                                                7     3      4    1235
                                              9 COMRAM     7     3      4
                              _fputc
 ---------------------------------------------------------------------------------
 (7) _fputc                                                9     5      4     834
                                              0 COMRAM     9     5      4
                              _putch
 ---------------------------------------------------------------------------------
 (8) _putch                                                1     1      0       0
 ---------------------------------------------------------------------------------
 (5) _isupper                                              6     4      2     161
                                              0 COMRAM     6     4      2
 ---------------------------------------------------------------------------------
 (5) _isalpha                                              6     4      2     161
                                              0 COMRAM     6     4      2
 ---------------------------------------------------------------------------------
 (1) _USART_TxChar                                         5     3      2    1016
                                              4 COMRAM     5     3      2
                             _strlen
 ---------------------------------------------------------------------------------
 (1) _strlen                                               4     2      2     470
                                              0 COMRAM     4     2      2
 ---------------------------------------------------------------------------------
 (1) _USART_Init                                           8     4      4    4611
                                             55 COMRAM     8     4      4
                            ___fladd
                            ___fldiv
                            ___fltol
                           ___xxtofl
 ---------------------------------------------------------------------------------
 (2) ___xxtofl                                            14    10      4     398
                                              0 COMRAM    14    10      4
 ---------------------------------------------------------------------------------
 (2) ___fltol                                             10     6      4     305
                                              0 COMRAM    10     6      4
 ---------------------------------------------------------------------------------
 (2) ___fldiv                                             25    17      8    1399
                                             14 COMRAM    25    17      8
                           ___xxtofl (ARG)
 ---------------------------------------------------------------------------------
 (2) ___fladd                                             16     8      8    2388
                                             39 COMRAM    16     8      8
                            ___fldiv (ARG)
                           ___xxtofl (ARG)
 ---------------------------------------------------------------------------------
 (1) _MFRC522_ReadCardSerial3                              3     1      2   12065
                                             39 COMRAM     2     0      2
                  _MFRC522_AntiColl3
 ---------------------------------------------------------------------------------
 (2) _MFRC522_AntiColl3                                    8     6      2   11922
                                             31 COMRAM     8     6      2
                 _MFRC522_Clear_Bit3
                    _MFRC522_ToCard3
                        _MFRC522_Wr3
 ---------------------------------------------------------------------------------
 (1) _MFRC522_ReadCardSerial2                              3     1      2   12065
                                             39 COMRAM     2     0      2
                  _MFRC522_AntiColl2
 ---------------------------------------------------------------------------------
 (2) _MFRC522_AntiColl2                                    8     6      2   11922
                                             31 COMRAM     8     6      2
                 _MFRC522_Clear_Bit2
                    _MFRC522_ToCard2
                        _MFRC522_Wr2
 ---------------------------------------------------------------------------------
 (1) _MFRC522_ReadCardSerial                               3     1      2   12065
                                             39 COMRAM     2     0      2
                   _MFRC522_AntiColl
 ---------------------------------------------------------------------------------
 (2) _MFRC522_AntiColl                                     8     6      2   11922
                                             31 COMRAM     8     6      2
                  _MFRC522_Clear_Bit
                     _MFRC522_ToCard
                         _MFRC522_Wr
 ---------------------------------------------------------------------------------
 (1) _MFRC522_IsCard3                                      2     0      2    9592
                                             37 COMRAM     2     0      2
                   _MFRC522_Request3
 ---------------------------------------------------------------------------------
 (2) _MFRC522_Request3                                     6     4      2    9494
                                             31 COMRAM     6     4      2
                    _MFRC522_ToCard3
                        _MFRC522_Wr3
 ---------------------------------------------------------------------------------
 (1) _MFRC522_IsCard2                                      2     0      2    9592
                                             37 COMRAM     2     0      2
                   _MFRC522_Request2
 ---------------------------------------------------------------------------------
 (2) _MFRC522_Request2                                     6     4      2    9494
                                             31 COMRAM     6     4      2
                    _MFRC522_ToCard2
                        _MFRC522_Wr2
 ---------------------------------------------------------------------------------
 (1) _MFRC522_IsCard                                       2     0      2    9592
                                             37 COMRAM     2     0      2
                    _MFRC522_Request
 ---------------------------------------------------------------------------------
 (2) _MFRC522_Request                                      6     4      2    9494
                                             31 COMRAM     6     4      2
                     _MFRC522_ToCard
                         _MFRC522_Wr
 ---------------------------------------------------------------------------------
 (1) _MFRC522_Init                                         0     0      0   29272
                 _MFRC522_AntennaOff
                _MFRC522_AntennaOff2
                _MFRC522_AntennaOff3
                _MFRC522_AntennaOff4
                  _MFRC522_AntennaOn
                 _MFRC522_AntennaOn2
                 _MFRC522_AntennaOn3
                 _MFRC522_AntennaOn4
                      _MFRC522_Reset
                         _MFRC522_Wr
                        _MFRC522_Wr2
                        _MFRC522_Wr3
                        _MFRC522_Wr4
 ---------------------------------------------------------------------------------
 (2) _MFRC522_Reset                                        0     0      0    5812
                         _MFRC522_Wr
                        _MFRC522_Wr2
                        _MFRC522_Wr3
                        _MFRC522_Wr4
 ---------------------------------------------------------------------------------
 (2) _MFRC522_AntennaOn4                                   1     1      0    2174
                        _MFRC522_Rd4
                   _MFRC522_Set_Bit4
 ---------------------------------------------------------------------------------
 (3) _MFRC522_Set_Bit4                                     3     2      1    2010
                                              9 COMRAM     3     2      1
                        _MFRC522_Rd4
                        _MFRC522_Wr4
 ---------------------------------------------------------------------------------
 (2) _MFRC522_AntennaOn3                                   1     1      0    2174
                        _MFRC522_Rd3
                   _MFRC522_Set_Bit3
 ---------------------------------------------------------------------------------
 (2) _MFRC522_AntennaOn2                                   1     1      0    2174
                        _MFRC522_Rd2
                   _MFRC522_Set_Bit2
 ---------------------------------------------------------------------------------
 (2) _MFRC522_AntennaOn                                    1     1      0    2174
                         _MFRC522_Rd
                    _MFRC522_Set_Bit
 ---------------------------------------------------------------------------------
 (2) _MFRC522_AntennaOff4                                  0     0      0    2238
                 _MFRC522_Clear_Bit4
 ---------------------------------------------------------------------------------
 (3) _MFRC522_Clear_Bit4                                   3     2      1    2238
                                              9 COMRAM     3     2      1
                        _MFRC522_Rd4
                        _MFRC522_Wr4
 ---------------------------------------------------------------------------------
 (2) _MFRC522_Wr4                                          5     4      1    1453
                                              0 COMRAM     5     4      1
 ---------------------------------------------------------------------------------
 (4) _MFRC522_Rd4                                          9     9      0     163
                                              0 COMRAM     9     9      0
 ---------------------------------------------------------------------------------
 (2) _MFRC522_AntennaOff3                                  0     0      0    2238
                 _MFRC522_Clear_Bit3
 ---------------------------------------------------------------------------------
 (2) _MFRC522_AntennaOff2                                  0     0      0    2238
                 _MFRC522_Clear_Bit2
 ---------------------------------------------------------------------------------
 (2) _MFRC522_AntennaOff                                   0     0      0    2238
                  _MFRC522_Clear_Bit
 ---------------------------------------------------------------------------------
 (1) _MFRC522_Halt3                                        6     6      0   16650
                                             31 COMRAM     6     6      0
                       _MFRC522_CRC3
                 _MFRC522_Clear_Bit3
                    _MFRC522_ToCard3
 ---------------------------------------------------------------------------------
 (3) _MFRC522_ToCard3                                     19    12      7    7783
                                             12 COMRAM    19    12      7
                 _MFRC522_Clear_Bit3
                        _MFRC522_Rd3
                   _MFRC522_Set_Bit3
                        _MFRC522_Wr3
 ---------------------------------------------------------------------------------
 (2) _MFRC522_CRC3                                         7     2      5    6480
                                             12 COMRAM     7     2      5
                 _MFRC522_Clear_Bit3
                        _MFRC522_Rd3
                   _MFRC522_Set_Bit3
                        _MFRC522_Wr3
 ---------------------------------------------------------------------------------
 (4) _MFRC522_Set_Bit3                                     3     2      1    2010
                                              9 COMRAM     3     2      1
                        _MFRC522_Rd3
                        _MFRC522_Wr3
 ---------------------------------------------------------------------------------
 (4) _MFRC522_Clear_Bit3                                   3     2      1    2238
                                              9 COMRAM     3     2      1
                        _MFRC522_Rd3
                        _MFRC522_Wr3
 ---------------------------------------------------------------------------------
 (3) _MFRC522_Wr3                                          5     4      1    1453
                                              0 COMRAM     5     4      1
 ---------------------------------------------------------------------------------
 (5) _MFRC522_Rd3                                          9     9      0     163
                                              0 COMRAM     9     9      0
 ---------------------------------------------------------------------------------
 (1) _MFRC522_Halt2                                        6     6      0   16650
                                             31 COMRAM     6     6      0
                       _MFRC522_CRC2
                 _MFRC522_Clear_Bit2
                    _MFRC522_ToCard2
 ---------------------------------------------------------------------------------
 (3) _MFRC522_ToCard2                                     19    12      7    7783
                                             12 COMRAM    19    12      7
                 _MFRC522_Clear_Bit2
                        _MFRC522_Rd2
                   _MFRC522_Set_Bit2
                        _MFRC522_Wr2
 ---------------------------------------------------------------------------------
 (2) _MFRC522_CRC2                                         7     2      5    6480
                                             12 COMRAM     7     2      5
                 _MFRC522_Clear_Bit2
                        _MFRC522_Rd2
                   _MFRC522_Set_Bit2
                        _MFRC522_Wr2
 ---------------------------------------------------------------------------------
 (4) _MFRC522_Set_Bit2                                     3     2      1    2010
                                              9 COMRAM     3     2      1
                        _MFRC522_Rd2
                        _MFRC522_Wr2
 ---------------------------------------------------------------------------------
 (4) _MFRC522_Clear_Bit2                                   3     2      1    2238
                                              9 COMRAM     3     2      1
                        _MFRC522_Rd2
                        _MFRC522_Wr2
 ---------------------------------------------------------------------------------
 (3) _MFRC522_Wr2                                          5     4      1    1453
                                              0 COMRAM     5     4      1
 ---------------------------------------------------------------------------------
 (5) _MFRC522_Rd2                                          9     9      0     163
                                              0 COMRAM     9     9      0
 ---------------------------------------------------------------------------------
 (1) _MFRC522_Halt                                         6     6      0   16650
                                             31 COMRAM     6     6      0
                        _MFRC522_CRC
                  _MFRC522_Clear_Bit
                     _MFRC522_ToCard
 ---------------------------------------------------------------------------------
 (3) _MFRC522_ToCard                                      19    12      7    7783
                                             12 COMRAM    19    12      7
                  _MFRC522_Clear_Bit
                         _MFRC522_Rd
                    _MFRC522_Set_Bit
                         _MFRC522_Wr
 ---------------------------------------------------------------------------------
 (2) _MFRC522_CRC                                          7     2      5    6480
                                             12 COMRAM     7     2      5
                  _MFRC522_Clear_Bit
                         _MFRC522_Rd
                    _MFRC522_Set_Bit
                         _MFRC522_Wr
 ---------------------------------------------------------------------------------
 (4) _MFRC522_Set_Bit                                      3     2      1    2010
                                              9 COMRAM     3     2      1
                         _MFRC522_Rd
                         _MFRC522_Wr
 ---------------------------------------------------------------------------------
 (4) _MFRC522_Clear_Bit                                    3     2      1    2238
                                              9 COMRAM     3     2      1
                         _MFRC522_Rd
                         _MFRC522_Wr
 ---------------------------------------------------------------------------------
 (3) _MFRC522_Wr                                           5     4      1    1453
                                              0 COMRAM     5     4      1
 ---------------------------------------------------------------------------------
 (5) _MFRC522_Rd                                           9     9      0     163
                                              0 COMRAM     9     9      0
 ---------------------------------------------------------------------------------
 (1) _LCD_Print                                            6     4      2     777
                                              4 COMRAM     6     4      2
                   _LCD_Write_Nibble
 ---------------------------------------------------------------------------------
 (1) _LCD_Goto                                             4     3      1     841
                                              6 COMRAM     4     3      1
                            _LCD_Cmd
 ---------------------------------------------------------------------------------
 (1) _LCD_Begin                                            3     3      0     265
                                              6 COMRAM     3     3      0
                     _Expander_Write
                            _LCD_Cmd
 ---------------------------------------------------------------------------------
 (2) _LCD_Cmd                                              2     2      0     199
                                              4 COMRAM     2     2      0
                   _LCD_Write_Nibble
 ---------------------------------------------------------------------------------
 (2) _LCD_Write_Nibble                                     1     1      0     111
                                              3 COMRAM     1     1      0
                     _Expander_Write
 ---------------------------------------------------------------------------------
 (3) _Expander_Write                                       1     1      0      44
                                              2 COMRAM     1     1      0
                       _I2CLCD_Start
                        _I2CLCD_Stop
                       _I2CLCD_Write
 ---------------------------------------------------------------------------------
 (4) _I2CLCD_Write                                         2     2      0      22
                                              0 COMRAM     2     2      0
 ---------------------------------------------------------------------------------
 (4) _I2CLCD_Stop                                          1     1      0       0
                                              0 COMRAM     1     1      0
 ---------------------------------------------------------------------------------
 (4) _I2CLCD_Start                                         1     1      0       0
                                              0 COMRAM     1     1      0
 ---------------------------------------------------------------------------------
 (1) _I2CLCD_Init                                          8     4      4     412
                                             13 COMRAM     8     4      4
                            ___lldiv
 ---------------------------------------------------------------------------------
 (2) ___lldiv                                             13     5      8     314
                                              0 COMRAM    13     5      8
 ---------------------------------------------------------------------------------
 Estimated maximum stack depth 8
 ---------------------------------------------------------------------------------

 Call Graph Graphs:

 _main (ROOT)
   _I2CLCD_Init
     ___lldiv
   _LCD_Begin
     _Expander_Write
       _I2CLCD_Start
       _I2CLCD_Stop
       _I2CLCD_Write
     _LCD_Cmd
       _LCD_Write_Nibble
         _Expander_Write
   _LCD_Cmd
   _LCD_Goto
     _LCD_Cmd
   _LCD_Print
     _LCD_Write_Nibble
   _MFRC522_AntiColl
     _MFRC522_Clear_Bit
       _MFRC522_Rd
       _MFRC522_Wr
     _MFRC522_ToCard
       _MFRC522_Clear_Bit
       _MFRC522_Rd
       _MFRC522_Set_Bit
         _MFRC522_Rd
         _MFRC522_Wr
       _MFRC522_Wr
     _MFRC522_Wr
   _MFRC522_AntiColl2
     _MFRC522_Clear_Bit2
       _MFRC522_Rd2
       _MFRC522_Wr2
     _MFRC522_ToCard2
       _MFRC522_Clear_Bit2
       _MFRC522_Rd2
       _MFRC522_Set_Bit2
         _MFRC522_Rd2
         _MFRC522_Wr2
       _MFRC522_Wr2
     _MFRC522_Wr2
   _MFRC522_AntiColl3
     _MFRC522_Clear_Bit3
       _MFRC522_Rd3
       _MFRC522_Wr3
     _MFRC522_ToCard3
       _MFRC522_Clear_Bit3
       _MFRC522_Rd3
       _MFRC522_Set_Bit3
         _MFRC522_Rd3
         _MFRC522_Wr3
       _MFRC522_Wr3
     _MFRC522_Wr3
   _MFRC522_Halt
     _MFRC522_CRC
       _MFRC522_Clear_Bit
       _MFRC522_Rd
       _MFRC522_Set_Bit
       _MFRC522_Wr
     _MFRC522_Clear_Bit
     _MFRC522_ToCard
   _MFRC522_Halt2
     _MFRC522_CRC2
       _MFRC522_Clear_Bit2
       _MFRC522_Rd2
       _MFRC522_Set_Bit2
       _MFRC522_Wr2
     _MFRC522_Clear_Bit2
     _MFRC522_ToCard2
   _MFRC522_Halt3
     _MFRC522_CRC3
       _MFRC522_Clear_Bit3
       _MFRC522_Rd3
       _MFRC522_Set_Bit3
       _MFRC522_Wr3
     _MFRC522_Clear_Bit3
     _MFRC522_ToCard3
   _MFRC522_Init
     _MFRC522_AntennaOff
       _MFRC522_Clear_Bit
     _MFRC522_AntennaOff2
       _MFRC522_Clear_Bit2
     _MFRC522_AntennaOff3
       _MFRC522_Clear_Bit3
     _MFRC522_AntennaOff4
       _MFRC522_Clear_Bit4
         _MFRC522_Rd4
         _MFRC522_Wr4
     _MFRC522_AntennaOn
       _MFRC522_Rd
       _MFRC522_Set_Bit
     _MFRC522_AntennaOn2
       _MFRC522_Rd2
       _MFRC522_Set_Bit2
     _MFRC522_AntennaOn3
       _MFRC522_Rd3
       _MFRC522_Set_Bit3
     _MFRC522_AntennaOn4
       _MFRC522_Rd4
       _MFRC522_Set_Bit4
         _MFRC522_Rd4
         _MFRC522_Wr4
     _MFRC522_Reset
       _MFRC522_Wr
       _MFRC522_Wr2
       _MFRC522_Wr3
       _MFRC522_Wr4
     _MFRC522_Wr
     _MFRC522_Wr2
     _MFRC522_Wr3
     _MFRC522_Wr4
   _MFRC522_IsCard
     _MFRC522_Request
       _MFRC522_ToCard
       _MFRC522_Wr
   _MFRC522_IsCard2
     _MFRC522_Request2
       _MFRC522_ToCard2
       _MFRC522_Wr2
   _MFRC522_IsCard3
     _MFRC522_Request3
       _MFRC522_ToCard3
       _MFRC522_Wr3
   _MFRC522_ReadCardSerial
     _MFRC522_AntiColl
   _MFRC522_ReadCardSerial2
     _MFRC522_AntiColl2
   _MFRC522_ReadCardSerial3
     _MFRC522_AntiColl3
   _USART_Init
     ___fladd
       ___fldiv (ARG)
         ___xxtofl (ARG)
       ___xxtofl (ARG)
     ___fldiv
     ___fltol
     ___xxtofl
   _USART_TxChar
     _strlen
   _sprintf
     _vfprintf
       _vfpfcnvrt
         _fputc
           _putch
         _xtoa
           _isalpha
           _isupper
           _pad
             _fputc
             _fputs
               _fputc
             _strlen
           _toupper
             _islower
   _strlen

 Address spaces:
Name               Size   Autos  Total    Cost      Usage
BIGRAM             7FF      0       0      31        0.0%
EEDATA             100      0       0       0        0.0%
BITBANK7           100      0       0      18        0.0%
BANK7              100      0       0      19        0.0%
BITBANK6           100      0       0      16        0.0%
BANK6              100      0       0      17        0.0%
BITBANK5           100      0       0      14        0.0%
BANK5              100      0       0      15        0.0%
BITBANK4           100      0       0      12        0.0%
BANK4              100      0       0      13        0.0%
BITBANK3           100      0       0      10        0.0%
BANK3              100      0       0      11        0.0%
BITBANK2           100      0       0       8        0.0%
BANK2              100      0       0       9        0.0%
BITBANK1           100      0       0       6        0.0%
BANK1              100      0      28       7       15.6%
BITBANK0            A0      0       1       4        0.6%
BANK0               A0     12      95       5       93.1%
BITCOMRAM           5F      0       0       0        0.0%
COMRAM              5F     5F      5F       1      100.0%
BITBIGSFRhhlhh      28      0       0      21        0.0%
BITBIGSFRllll       23      0       0      29        0.0%
BITBIGSFRhhll       15      0       0      22        0.0%
BITBIGSFRhhh         D      0       0      20        0.0%
BITBIGSFRhllh        C      0       0      23        0.0%
BITBIGSFRhlll        7      0       0      24        0.0%
BITBIGSFRlllh        5      0       0      28        0.0%
BITBIGSFRlhl         5      0       0      26        0.0%
BITBIGSFRllh         2      0       0      27        0.0%
BITBIGSFRlhh         1      0       0      25        0.0%
BIGSFR               0      0       0     200        0.0%
BITSFR               0      0       0     200        0.0%
SFR                  0      0       0     200        0.0%
STACK                0      0       0       2        0.0%
NULL                 0      0       0       0        0.0%
ABS                  0      0     11C      30        0.0%
DATA                 0      0     11C       3        0.0%
CODE                 0      0       0       0        0.0%


Microchip Technology PIC18 Macro Assembler V2.36 build 20220127204148 
Symbol Table                                                                                   Sat Apr 02 04:59:00 2022

             MFRC522_Rd4@address 0003                     ___fldiv@aexp 0027  
                   ___fldiv@bexp 0026                     ___fldiv@sign 001F  
                    MFRC522_Rd@i 0008                     MFRC522_CRC@i 0013  
                   MFRC522_CRC@n 0012                      MFRC522_Wr@i 0005  
                             _RS 0798                     MFRC522_Rd2@i 0008  
                   MFRC522_Rd3@i 0008                     MFRC522_Rd4@i 0008  
                  MFRC522_CRC2@i 0013                    MFRC522_CRC3@i 0013  
                  MFRC522_CRC2@n 0012                    MFRC522_CRC3@n 0012  
                   MFRC522_Wr2@i 0005                     MFRC522_Wr3@i 0005  
                   MFRC522_Wr4@i 0005                              l200 395C  
                            l201 3960                              l114 0E28  
                            l222 3A28                              l134 3050  
                            l231 37C8                              l311 3214  
                            l143 3320                              l240 338A  
                            l304 32AC                              l312 3218  
                            l225 3934                              l305 32B0  
                            l137 32B2                              l403 1E3E  
                            l252 2544                              l332 3A76  
                            l420 1A68                              l341 3AF0  
                            l325 30E4                              l501 3458  
                            l318 317C                              l326 30E8  
                            l350 3AA8                              l510 33F2  
                            l183 36DC                              l431 1BB0  
                            l319 3180                              l335 3A5C  
                            l192 3962                              l408 1E98  
                            l344 3AD8                              l424 1C08  
                            l504 345A                              l249 2A72  
                            l329 3A90                              l353 2DD4  
                            l186 398A                              l194 3986  
                            l522 2F68                              l282 28C2  
                            l290 2842                              l338 3A42  
                            l362 3B28                              l610 2BDA  
                            l195 3988                              l275 297C  
                            l283 28FC                              l291 2848  
                            l347 3AC0                              l371 3BA0  
                            l507 33F0                              l603 2C8E  
                            l700 2D22                              l188 39AE  
                            l276 29B6                              l284 2902  
                            l532 2EC8                              l436 1C0A  
                            l452 197A                              l356 3B4C  
                            l380 2350                              l189 39B0  
                            l277 29BC                              l365 3B16  
                            l613 2B24                              l198 3938  
                            l526 2FB4                              l542 2E28  
                            l374 3B94                              l606 2BD8  
                            l359 3B3A                              l392 1CF6  
                            l536 2F14                              l464 197C  
                            l448 17DA                              l368 3BAC  
                            l296 274E                              l289 2808  
                            l297 2788                              l377 3B88  
                            l633 3B6C                              l617 2B26  
                            l546 2E74                              l298 278E  
                            l707 2D32                              l459 1922  
                            l396 1E96                              l628 3B7C  
                            l653 39EC                              l590 362C  
                            l638 3B5C                              l495 34C0  
                            l648 3A0A                              l593 35D4  
                            l498 34C2                              l658 39CE  
                            l587 3684                              l599 2C8C  
                            l970 2456              MFRC522_Rd2@ucResult 0006  
                            _PEN 007E2A                              _SEN 007E28  
                            _pad 2610                              wreg 000FE8  
            MFRC522_Rd3@ucResult 0006                   ??_MFRC522_CRC2 0012  
                 ??_MFRC522_CRC3 0012                   ??_MFRC522_Halt 0020  
                 ??_MFRC522_Init 000D                  __end_of_LCD_Cmd 37CA  
            MFRC522_Rd4@ucResult 0006                     ___fltol@exp1 000A  
                           l1201 0A16                             l1210 0CE6  
                           l1202 0A04                             l1203 09CA  
                           l1218 0B30                             l1227 0C00  
                           l1331 221C                             l1411 168A  
                           l1228 0BEE                             l1260 126E  
                           l1420 2068                             l1413 16EE  
                           l1342 21B4                             l1430 388C  
                           l1255 144A                             l1335 2158  
                           l1351 372E                             l1328 20C0  
                           l1257 12AA                             l1266 12F0  
                           l1426 351C                             l4003 3852  
                           l1451 260E                             l4011 37CA  
                           l1427 3524                             l1268 1368  
                           l1436 38FC                             l4101 3A60  
                           l4021 26E0                             l1269 1356  
                           l4013 37F8                             l1462 3BAE  
                           l1382 2656                             l4103 3A60  
                           l4111 3A4E                             l4023 26E2  
                           l4007 37CA                             l1392 1484  
                           l4017 3A0E                             l4201 3912  
                           l4113 3ADC                             l4105 3A68  
                           l4121 3AC4                             l4041 272E  
                           l4033 2700                             l4025 26E4  
                           l5001 0A02                             l1385 2698  
                           l1473 3804                             l1482 38C4  
                           l1394 148C                             l4203 3918  
                           l4115 3ADC                             l4123 3ACC  
                           l4107 3A46                             l4051 2756  
                           l4043 2746                             l4035 2724  
                           l4027 26F8                             l4019 26D8  
                           l4211 3A2C                             l5011 0A58  
                           l5003 0A24                             l1459 3850  
                           l1387 26D4                             l4131 144C  
                           l1468 377C                             l1476 380C  
                           l4205 3920                             l4117 3AE4  
                           l4109 3A46                             l4125 3AAC  
                           l4053 276E                             l4037 2726  
                           l4061 3054                             l4213 3A2C  
                           l4221 3A9C                             l5101 0CD6  
                           l5021 0A92                             l5013 0A66  
                           l5005 0A34                             l4141 14AA  
                           l4133 145C                             l4207 3926  
                           l4231 1C36                             l4223 1C0E  
                           l4119 3AC4                             l4127 3AAC  
                           l4055 2770                             l4039 272C  
                           l4071 3064                             l4063 3058  
                           l4215 3A34                             l5031 0AFE  
                           l5023 0A94                             l5015 0A74  
                           l5111 10CE                             l4151 14E8  
                           l4143 14CA                             l4135 145E  
                           l4209 392E                             l4241 1CB0  
                           l4233 1C60                             l4225 1C1E  
                           l4321 1A1E                             l4313 19A8  
                           l4305 1980                             l4129 3AB4  
                           l4401 177A                             l4057 278C  
                           l4049 2750                             l4081 30A2  
                           l4073 3088                             l4065 3060  
                           l4217 3A94                             l5041 0B56  
                           l5033 0B00                             l5025 0A9E  
                           l5017 0A80                             l5009 0A48  
                           l5201 130E                             l5113 10DE  
                           l5121 1108                             l5105 10B2  
                           l4153 1504                             l4145 14D2  
                           l4137 1478                             l4251 1CFE  
                           l4243 1CCC                             l4235 1C8A  
                           l4227 1C2A                             l4331 1A64  
                           l4323 1A22                             l4315 19D2  
                           l4307 1990                             l4411 17CC  
                           l4403 1790                             l4091 30D2  
                           l4075 308E                             l4219 3A94  
                           l5051 0B84                             l5035 0B10  
                           l5019 0A84                             l5027 0AA4  
                           l5211 1378                             l5203 1312  
                           l5131 1134                             l5123 1118  
                           l5115 10EE                             l5107 10BE  
                           l4171 15A2                             l4155 1514  
                           l4147 14DA                             l4139 14A2  
                           l4261 1D42                             l4253 1D04  
                           l4245 1CD6                             l4237 1C96  
                           l4341 1AAA                             l4333 1A70  
                           l4325 1A3E                             l4317 19FC  
                           l4309 199C                             l4421 1808  
                           l4413 17D6                             l4405 1794  
                           l4093 30D4                             l4085 30A6  
                           l4077 3090                             l5053 0B92  
                           l5045 0B6A                             l5061 0BB0  
                           l5029 0ACA                             l5037 0B20  
                           l5221 13DA                             l5213 1384  
                           l5205 1320                             l5133 1144  
                           l5141 116E                             l5125 111E  
                           l5117 10FE                             l5109 10CC  
                           l5301 2102                             l3701 2546  
                           l4181 1646                             l4173 15A8  
                           l4165 154C                             l4149 14E0  
                           l4501 2018                             l4095 3A7A  
                           l4271 1D8A                             l4263 1D54  
                           l4255 1D16                             l4247 1CE8  
                           l4239 1CAC                             l4351 1AF8  
                           l4343 1AB4                             l4335 1A76  
                           l4327 1A48                             l4319 1A08  
                           l4431 1856                             l4423 181C  
                           l4415 17E2                             l4407 17B0  
                           l4087 30CA                             l4079 3092  
                           l5055 0B9A                             l5047 0B74  
                           l5039 0B46                             l5063 0BBE  
                           l5231 1438                             l5223 13F0  
                           l5215 1392                             l5207 134E  
                           l5151 11B0                             l5143 117E  
                           l5135 1154                             l5127 1124  
                           l5119 1100                             l5311 218A  
                           l5303 210E                             l3711 25C8  
                           l3703 2558                             l4191 16B0  
                           l4183 1660                             l4175 15AE  
                           l4167 157E                             l4159 1520  
                           l4503 2026                             l4521 37A6  
                           l5401 334C                             l4097 3A7A  
                           l4281 1E16                             l4273 1D9C  
                           l4265 1D6E                             l4257 1D24  
                           l4249 1CF2                             l4361 1B74  
                           l4353 1AFC                             l4345 1AC6  
                           l4337 1A88                             l4329 1A5A  
                           l4441 18A2                             l4433 186A  
                           l4425 1826                             l4417 17E8  
                           l4409 17BA                             l4089 30D0  
                           l4601 2ACC                             l5073 0C10  
                           l5081 0C66                             l5065 0BC2  
                           l5057 0B9E                             l5049 0B82  
                           l5233 143E                             l5225 140A  
                           l5217 13BC                             l5145 1194  
                           l5137 1164                             l5129 1132  
                           l5321 21C8                             l5313 2196  
                           l5305 2140                             l3721 3770  
                           l3705 256A                             l4193 16C6  
                           l4185 167A                             l4169 1592  
                           l4177 160C                             l4523 37B8  
                           l4515 3780                             l5403 3358  
                           l5411 29C2                             l4099 3A82  
                           l4291 1E5E                             l4283 1E26  
                           l4275 1DAE                             l4267 1D72  
                           l4259 1D38                             l3811 28A0  
                           l4371 1BBC                             l4363 1B88  
                           l4355 1B0E                             l4347 1AE0  
                           l4339 1A96                             l4451 191E  
                           l4443 18E6                             l4435 186E  
                           l4427 1838                             l4419 17FA  
                           l4531 2BF6                             l4611 2AF0  
                           l4603 2ADC                             l5091 0CB8  
                           l5083 0C76                             l5075 0C1C  
                           l5067 0BD0                             l5059 0BAE  
                           l5235 1440                             l5227 1426  
                           l5219 13C0                             l5171 1232  
                           l5163 11E8                             l5147 11A4  
                           l5155 11C4                             l5139 1166  
                           l5251 23A6                             l5243 2352  
                           l5323 21EC                             l5315 21A4  
                           l5307 2142                             l3715 3730  
                           l3707 2574                             l3731 3830  
                           l4187 169A                             l4179 1628  
                           l4507 2032                             l5341 3686  
                           l3741 3962                             l4197 3900  
                           l4517 3784                             l5413 29CA  
                           l3901 3292                             l4293 1E62  
                           l4285 1E2A                             l4277 1DBE  
                           l4269 1D86                             l3821 28C4  
                           l3813 28A2                             l3805 2874  
                           l4373 1BD0                             l4365 1B98  
                           l4357 1B20                             l4349 1AE4  
                           l5501 35DE                             l4453 192E  
                           l4445 18FA                             l4437 1880  
                           l4429 1852                             l4461 1976  
                           l4621 2D34                             l4533 2C06  
                           l4525 2BDC                             l4613 2AF2  
                           l5093 0CBE                             l5085 0C86  
                           l5077 0C2A                             l5069 0BE6  
                           l5229 142A                             l5181 1278  
                           l5173 123A                             l5165 1202  
                           l5157 11D4                             l5149 11AC  
                           l5253 23A8                             l5245 2368  
                           l5325 21FC                             l5317 21C2  
                           l5309 214E                             l3717 373C  
                           l3709 2592                             l3725 380E  
                           l3733 388E                             l4189 16A0  
                           l4509 2056                             l5333 34C4  
                           ?_pad 0011                             l5343 368E  
                           l3743 3970                             l4199 390A  
                           l4519 3796                             l5351 2464  
                           l5415 2A34                             l3751 290E  
                           l3903 3298                             l4295 1E7E  
                           l4287 1E3A                             l4279 1E02  
                           l3823 28CA                             l3815 28BA  
                           l3807 2898                             l3911 3188  
                           l4375 1BD4                             l4367 1B9C  
                           l4359 1B30                             l5503 35F6  
                           l4455 1942                             l4447 190A  
                           l4439 1892                             l4391 170E  
                           l5511 3586                             l4631 2D64  
                           l4623 2D4C                             l4551 2C6A  
                           l4535 2C10                             l4527 2BE0  
                           l4615 2B02                             l5095 0CC0  
                           l5087 0CA6                             l5079 0C64  
                           l5191 12D0                             l5183 1296  
                           l5175 124A                             l5167 1212  
                           l5159 11D4                             l5255 23B8  
                           l5327 220A                             l5319 21C4  
                           l3719 3740                             l3727 381A  
                           l4471 1EBE                             l5335 34CC  
                           l5345 36D8                             l3737 398A  
                           l3745 3938                             l5361 24BE  
                           l5353 2482                             l5417 2A36  
                           l5409 29BE                             l3753 2910  
                           l3905 329A                             l4289 1E4A  
                           l4297 1E92                             l3825 28E2  
                           l3809 289A                             l3921 31B8  
                           l3913 3190                             l4377 1BF0  
                           l4369 1BAC                             l5505 3600  
                           l3841 27B2                             l3833 2792  
                           l4457 1946                             l4449 190E  
                           l5513 359E                             l4641 2D84  
                           l4633 2D66                             l4625 2D56  
                           l4801 33C8                             l4553 2C88  
                           l4545 2C48                             l4537 2C34  
                           l4529 2BEA                             l5425 39EE  
                           l4561 2B36                             l5441 39D0  
                           l4617 2B20                             l4609 2AE0  
                           l5097 0CC6                             l5089 0CAA  
                           l5193 12D6                             l5185 1298  
                           l5177 125E                             l5169 1222  
                           l5281 2436                             l5265 23E2  
                           l5257 23BC                             l5249 237C  
                           l5329 220C                             l3729 382C  
                           l4481 1F2A                             l4473 1ECC  
                           l5337 34DA                             l5601 0D90  
                           l3739 3998                             l3747 3946  
                           l5371 2526                             l5363 24CC  
                           l5355 2490                             l5347 245A  
                           l3771 295C                             l3763 292E  
                           l3755 2912                             l3907 329C  
                           l4811 2F2A                             l3827 28E4  
                           l3923 31BE                             l4379 1C04  
                           l5507 3622                             l3851 27E0  
                           l3835 279A                             l4459 1962  
                           l4395 171A                             l4387 16F2  
                           l5515 35A8                             l4651 2D96  
                           l4643 2D86                             l4635 2D6C  
                           l4627 2D5C                             l5419 3B6E  
                           l5435 3B5E                             l4803 33D8  
                           l5451 3B4E                             l4547 2C58  
                           l4539 2C44                             l5427 39FA  
                           l4571 2B90                             l4563 2B42  
                           l5443 39DC                             l5099 0CD4  
                           l5195 12E0                             l5187 12A8  
                           l5179 126C                             l5283 2446  
                           l5275 240A                             l5267 23EC  
                           l5259 23CA                             l5291 208A  
                           l4483 1F40                             l4491 1FC6  
                           l4475 1EDE                             l5339 3500  
                           l5611 0DE6                             l5603 0DA0  
                           l4901 2D1C                             l5365 24EA  
                           l5357 24A4                             l5349 245E  
                           l3781 2984                             l3773 2974  
                           l3765 2952                             l3757 2926  
                           l3749 2906                             l4821 2F5C  
                           l4813 2F32                             l3829 2900  
                           l3941 3204                             l3933 31D6  
                           l3925 31C0                             l3909 3184  
                           l3853 27E6                             l3837 279C  
                           l4397 1744                             l4389 1702  
                           l5517 35CA                             l5509 357E  
                           l4661 2DB6                             l4653 2DA6  
                           l4645 2D8C                             l4637 2D6E  
                           l4629 2D5E                             l5373 221E  
                           l4805 33EC                             l4549 2C5A  
                           l4581 2BA6                             l4565 2B52  
                           l4557 2B28                             l5197 12EE  
                           l5189 12BA                             l5277 2416  
                           l5269 23F6                             l5293 20D0  
                           l5381 3040                             l4493 1FEA  
                           l4485 1F4E                             l4477 1EE2  
                           l4469 1E9A                             l5701 1058  
                           l5621 0E50                             l5613 0E04  
                           l5605 0DAC                             l5367 24F0  
                           l5359 24AA                             l3783 299C  
                           l3767 2954                             l4831 2F90  
                           l4823 2F66                             l4815 2F44  
                           l3791 284C                             l3935 31FA  
                           l3927 31C2                             l3919 3194  
                           l3871 2846                             l3863 280A  
                           l3855 27E8                             l3847 27BA  
                           l3839 279E                             l3943 30EC  
                           l4399 176E                             l4671 3B2A  
                           l4663 2DBC                             l4655 2DAC  
                           l4647 2D8E                             l4639 2D7E  
                           l5375 223C                             l4583 2BB6  
                           l4567 2B5C                             l4559 2B2C  
                           l4591 2A78                             l4911 0854  
                           l4903 0828                             l5199 1300  
                           l5279 2426                             l5295 20E6  
                           l5287 206C                             l5391 304E  
                           l5383 3044                             l5471 32C8  
                           l4495 1FF8                             l4487 1F8A  
                           l4479 1F06                             l5703 1062  
                           l5631 0E8C                             l5615 0E22  
                           l5607 0DB8                ?_LCD_Write_Nibble 0001  
                           l5369 250E                             l5393 3324  
                           l3785 299E                             l3769 295A  
                           l4825 2F70                             l4817 2F48  
                           l4809 2F16                             l3793 2854  
                           l3937 3200                             l3929 31D2  
                           l4841 2EA8                             l4833 2E76  
                           l3865 2810                             l3857 2800  
                           l3849 27DE                             l3961 312A  
                           l3953 30FC                             l3945 30F0  
                           l4681 3B8A                             l4673 3B18  
                           l4665 2DBE                             l4657 2DAE  
                           l4649 2D94                             l4585 2BD4  
                           l4577 2B94                             l4569 2B80  
                           l4593 2A82                             l5457 39B2  
                           l4921 088E                             l4913 0864  
                           l4905 0834                             l5289 207C  
                           l5385 3048                             l5377 2FB6  
                           l5473 32F6                             l4497 200C  
                           l5481 36F8                             l5705 106E  
                           l5641 0EC2                             l5633 0E98  
                           l5617 0E32                             l5609 0DC8  
                           l5395 3328                             l3787 29BA  
                           l3779 297E                             l3891 3258  
                           l3875 321C                             l4827 2F72  
                           l4819 2F4A                             l5491 3636  
                           l3795 2856                             l3939 3202  
                           l4851 2ED2                             l4843 2EAA  
                           l4835 2E8A                             l3867 2828  
                           l3971 3168                             l3963 313A  
                           l3955 3120                             l3947 30F8  
                           l4683 3B7E                             l4675 3B06  
                           l4667 2DCE                             l4659 2DB4  
                           l4771 3474                             l4579 2BA4  
                           l4595 2A8E                             l5459 39BE  
                           l4931 08BC                             l4923 0894  
                           l4915 0874                             l4907 0842  
                           l5299 20FA                             l5387 304A  
                           l5379 2FBA                             l5475 32F8  
                           l5467 32B2                             l5483 3700  
                           l5707 108C                             l5651 0F1A  
                           l5635 0E9C                             l5627 0E56  
                           l5619 0E44                             l5643 0EE0  
                           l5397 3334                             l3893 325A  
                           l3885 322C                             l3877 3220  
                           l4829 2F82                             l5493 364E  
                           l3797 2858                             l4853 2EE2  
                           l4845 2EBC                             l4837 2E92  
                           l3869 282A                             l3973 316A  
                           l3957 3126                             l4861 2DF2  
                           l4677 3BA2                             l4669 3B3C  
                           l4773 3498                             l4781 33F6  
                           l4597 2A9E                             l4589 2A74  
                           l4941 08F0                             l4933 08BE  
                           l4925 08A6                             l4917 0876  
                           l4909 0844                             l5389 304C  
                           l5469 32C0                             l3981 2634  
                           l5485 371C                             l5477 36DE  
                           l5709 10A6                             l5661 0F56  
                           l5653 0F26                             l5645 0EFA  
                           l5637 0EAC                             l5629 0E80  
                           l5399 3340                             l3895 326A  
                           l3887 3250                             l3879 3228  
                           l5495 3658                             l3799 286C  
                           l4855 2EF0                             l4847 2EC6  
                           l4839 2EA4                             l3975 316C  
                           l3967 313E                             l3959 3128  
                           l4871 2E26                             l4863 2E04  
                           l4679 3B96                             l4775 34A8  
                           l4767 345E                             l4791 3454  
                           l4783 3400                             l4599 2AA8  
                           l4951 092C                             l4935 08CE  
                           l4943 08F8                             l4927 08A8  
                           l4919 087E                             l3991 267A  
                           l3983 2642                             l5479 36F0  
                           l5671 0F8C                             l5663 0F62  
                           l5647 0EFE                             l5639 0EB6  
                           l5591 0D50                             l5583 0CE8  
                           l4881 2C90                             l3889 3256  
                           l5497 367A                             l5489 362E  
                           l4849 2ED0                             l3969 3162  
                           l4873 2E30                             l4865 2E08  
                           l4857 2DD6                             l4777 34BC  
                           l4769 3468                             l4785 340C  
                           l4961 0940                             l4953 0930  
                           l4945 0908                             l4937 08DE  
                           l4929 08AE                             l3993 26A8  
                           l3985 264E                             l3977 2610  
                           l5681 0FDE                             l5673 0F98  
                           l5665 0F6E                             l5649 0F08  
                           l5593 0D5C                             l5585 0D24  
                           l4891 2CD8                             l4883 2CA0  
                           l3899 326E                             l5499 35D6  
                           l4875 2E32                             l4867 2E0A  
                           l4859 2DEA                             l4787 3430  
                           l4795 338E                             l4971 0954  
                           l4963 0944                             l4955 0934  
                           l4947 091A                             l4939 08EE  
                           l3995 26BC                             l3987 2662  
                           l3979 2620                             l5691 1002  
                           l5683 0FF0                             l5667 0F72  
                           l5659 0F2C                             l5675 0FB6  
                           l5595 0D68                             l5587 0D30  
                           l4893 2CE2                             l4885 2CB6  
                           l5941 19BC                             l4877 2E42  
                           l4869 2E1C                             l4789 3440  
                           l4797 3398                             l4973 0958  
                           l4965 0948                             l4957 0938  
                           l4949 0928                             l4981 0968  
                           l3989 2676                             l5693 102C  
                           l5685 0FFC                             l5677 0FD0  
                           l5669 0F82                             l5597 0D78  
                           l5589 0D4A                             l4895 2D00  
                           l4887 2CBE                             l5943 1C4A  
                           l4879 2E50                             l4799 33A4  
                           l4991 09D8                             l4983 096C  
                           l4975 095C                             l4967 094C  
                           l4959 093C                             l3999 38C6  
                           l5695 1038                             l5679 0FD4  
                           l5599 0D84                             l4897 2D10  
                           l4889 2CCA                             l5945 336C  
                           l4993 09E4                             l4985 0996  
                           l4977 0960                             l4969 0950  
                           l5697 1044                             l4899 2D12  
                           l5939 172E                             l4995 09E8  
                           l4987 09B2                             l4979 0964  
                           l5699 1048                             l4997 09F6  
                           l4989 09C2                             l4999 09F8  
                           STR_1 0801                             STR_2 081A  
                           STR_3 0823                             STR_4 080B  
                           STR_5 081D                             STR_6 0823  
                           STR_7 0810                             STR_8 0820  
                           STR_9 0823                             _CREN 007D5C  
                           u3000 2592                             u3001 258E  
                           u3010 25C8                             u3011 25C4  
                           u3100 3986                             u3020 3760  
                           u3101 3982                             u3110 3946  
                           u3030 3770                             u3111 3942  
                           u3031 376C                             u3120 395C  
                           u3200 28BA                             u4000 1B0E  
                           u3040 3850                             u3121 3958  
                           u3201 28B6                             u4001 1B0A  
                           u3041 384C                             u3130 2940  
                           u3210 28DC                             u4010 1B30  
                           u3050 38BE                             u3131 2938  
                           u3211 28D4                             u4011 1B2C  
                           u3027 3756                             u3051 38B8  
                           u3300 326A                             u3220 28FC  
                           u4020 1B98                             u4100 1838  
                           u3060 38C0                             u3301 3266  
                           u3221 28F8                             u4021 1B94  
                           u4101 1834                             u3070 3998  
                           u3150 2974                             u3310 3280  
                           u4030 1BAC                             u3230 27CC  
                           u4110 1852                             u3071 3994  
                           u3151 2970                             u3311 3278  
                           u4031 1BA8                             u3231 27C4  
                           u4111 184E                             u3080 39AE  
                           u3160 2996                             u4040 1BF0  
                           u3400 310E                             u4120 186A  
                           u5000 0CA6                             u4200 1F2A  
                           u3081 39AA                             u3161 298E  
                           u4041 1BEC                             u3401 3106  
                           u4121 1866                             u5001 0CA2  
                           u4201 1F26                             u3090 3970  
                           u3170 29B6                             u3330 32AC  
                           u3218 28DE                             u3250 2800  
                           u4130 1880                             u4050 17B0  
                           u5010 0CB8                             u4210 1FEA  
                           u3091 396C                             u3171 29B2  
                           u3331 32A8                             u3251 27FC  
                           u4131 187C                             u4051 17AC  
                           u5011 0CB4                             u4211 1FE6  
                           u4220 37A6                             u3148 2942  
                           u3180 2886                             u3340 31A6  
                           u3260 2822                             u3420 313A  
                           u4140 18A2                             u4060 17CC  
                           u4300 2ADC                             u5020 0CD4  
                           u5100 11D4                             u3500 38F6  
                           u4221 37A2                             u3181 287E  
                           u3341 319E                             u3261 281A  
                           u3421 3136                             u4141 189E  
                           u4061 17C8                             u4301 2AD8  
                           u5021 0CD0                             u5101 11D0  
                           u3501 38F0                             u4230 37B8  
                           u3270 2842                             u3430 3150  
                           u4150 190A                             u4070 17FA  
                           u4310 2B02                             u5110 124A  
                           u5030 10CC                             u3510 38F8  
                           u4231 37B4                             u3271 283E  
                           u3431 3148                             u4151 1906  
                           u4071 17F6                             u4311 2AFE  
                           u5111 1246                             u5031 10C8  
                           u3168 2998                             u3328 3282  
                           u3280 323E                             u3360 31D2  
                           u3248 27CE                             u4160 191E  
                           u4080 1808                             u3600 3076  
                           u4240 2C44                             u4320 2B20  
                           u5200 1364                             u5120 126C  
                           u5040 10DE                             u3520 3886  
                           u3281 3236                             u3361 31CE  
                           u4161 191A                             u4081 1804  
                           u3601 306E                             u4241 2C40  
                           u4321 2B1C                             u5201 1360  
                           u5121 1268                             u5041 10DA  
                           u3521 3880                             u3370 31E8  
                           u3450 317C                             u3418 3110  
                           u4170 1962                             u4090 181C  
                           u4250 2C6A                             u5210 1378  
                           u5130 1296                             u5050 10EE  
                           u3530 3888                             u3371 31E0  
                           u3451 3178                             u4171 195E  
                           u4091 1818                             u4251 2C66  
                           u5211 1374                             u5131 1292  
                           u5051 10EA                             u3268 2824  
                           u3620 30A2                             u4500 33D8  
                           u4260 2C88                             u5220 1392  
                           u5140 12BA                             u5060 1132  
                           u5300 2406                             u3460 2620  
                           u3540 37F8                             u3700 154C  
                           u4180 1EBE                             u3621 309E  
                           u4501 33D4                             u4261 2C84  
                           u5221 138E                             u5141 12B6  
                           u5061 112E                             u5301 2402  
                           u3461 261C                             u3541 37F4  
                           u3701 1548                             u4181 1EBA  
                           u3198 2888                             u3390 3214  
                           u3358 31A8                             u3550 2712  
                           u3630 30B8                             u4510 33EC  
                           u4270 2B90                             u5230 13DA  
                           u5150 12D0                             u5070 1144  
                           u5310 2426                             u3470 2642  
                           u3710 157E                             u4190 1F06  
                           u3391 3210                             u3551 270A  
                           u3631 30B0                             u4511 33E8  
                           u4271 2B8C                             u5231 13D6  
                           u5151 12CC                             u5071 1140  
                           u5311 2422                             u3471 263E  
                           u3711 157A                             u4191 1F02  
                           u4520 2F5C                             u3800 1CE8  
                           u3448 3152                             u4600 2E50  
                           u4280 2BB6                             u5240 140A  
                           u5160 12EE                             u5080 1154  
                           u5320 2436                             u5400 21C2  
                           u3480 2698                             u3720 15E6  
                           u4521 2F58                             u3801 1CE4  
                           u4601 2E4C                             u4281 2BB2  
                           u5241 1406                             u5161 12EA  
                           u5081 1150                             u5321 2432  
                           u5401 21BE                             u3481 2694  
                           u4610 2CB6                             u3298 3240  
                           u4530 2F82                             u3810 1D16  
                           u3570 2746                             u3650 30E4  
                           u3618 3078                             u4290 2BD4  
                           u5250 1438                             u5170 130E  
                           u5090 1194                             u5410 21FC  
                           u5330 207C                             u3490 26A8  
                           u3730 1628                             u4611 2CB2  
                           u4531 2F7E                             u3811 1D12  
                           u3571 2742                             u3651 30E0  
                           u4291 2BD0                             u5251 1434  
                           u5171 130A                             u5091 1190  
                           u5411 21F8                             u5331 2078  
                           u3491 26A4                             u3731 1624  
                           u4620 2CD8                             u4540 2F90  
                           u3900 1E3A                             u3820 1D24  
                           u3388 31EA                             u3580 2768  
                           u4460 34A8                             u4700 08DE  
                           u5180 1320                             u5260 2368  
                           u5420 220A                             u5340 208A  
                           u5500 32F4                             u3740 1646  
                           u3660 145C                             u4621 2CD4  
                           u4541 2F8C                             u3901 1E36  
                           u3821 1D20                             u3581 2760  
                           u4461 34A4                             u4701 08DA  
                           u5181 131C                             u5261 2364  
                           u5421 2206                             u5341 2086  
                           u3741 1642                             u3725 15D4  
                           u3661 1458                             u4630 2D00  
                           u3910 1E7E                             u3830 1D38  
                           u4550 2EBC                             u3590 2788  
                           u4470 34BC                             u4710 091A  
                           u5190 134E                             u5270 239C  
                           u5350 20E6                             u5510 3320  
                           u3750 1660                             u3670 1478  
                           u5430 351C                             u4631 2CFC  
                           u3911 1E7A                             u3831 1D34  
                           u4551 2EB8                             u3591 2784  
                           u4471 34B8                             u4711 0916  
                           u5191 134A                             u5351 20E2  
                           u5511 331C                             u3751 165C  
                           u3671 1474                             u5431 3518  
                           u3840 1D54                             u4560 2EE2  
                           u3920 1A3E                             u3568 2714  
                           u3648 30BA                             u4480 3440  
                           u4800 0A34                             u4720 0928  
                           u4640 0842                             u5280 23CA  
                           u5360 213C                             u3760 167A  
                           u3680 14A2                             u5600 0DE6  
                           u3841 1D50                             u4561 2EDE  
                           u3921 1A3A                             u4481 343C  
                           u4801 0A30                             u4721 0924  
                           u4641 083E                             u5281 23C6  
                           u5361 2138                             u3761 1676  
                           u3681 149E                             u5601 0DE2  
                           u5450 29F6                             u3850 1D6E  
                           u4570 2EF0                             u3930 1A5A  
                           u4490 3454                             u4810 0A66  
                           u4730 0996                             u4650 0854  
                           u5290 23DE                             u5370 2186  
                           u3770 168A                             u3690 1504  
                           u5610 0E04                             u3851 1D6A  
                           u4571 2EEC                             u3931 1A56  
                           u4491 3450                             u4811 0A62  
                           u4731 0992                             u4651 0850  
                           u5291 23DA                             u5275 2392  
                           u5371 2182                             u5507 32EA  
                           u3771 1686                             u3691 1500  
                           u5611 0E00                             u5460 2A28  
                           u3860 1D86                             u3940 1A88  
                           u4580 2E1C                             u3588 276A  
                           u4900 0BAE                             u4820 0A74  
                           u4740 09AE                             u4660 0864  
                           u5380 21A4                             u2980 2558  
                           u3780 169A                             u5620 0E22  
                           _RCIF 007CF5                             _RCEN 007E2B  
                           u5445 36B0                             u3861 1D82  
                           u3941 1A84                             u4581 2E18  
                           u4901 0BAA                             u4821 0A70  
                           u4741 09A8                             u4661 0860  
                           u5381 21A0                             u2981 2554  
                           u3781 1696                             u5621 0E1E  
                           u5470 2A62                             u3870 1D9C  
                           u3790 1CCC                             u3950 1A96  
                           u4590 2E42                             u4910 0BBE  
                           u4830 0A92                             u4750 09B0  
                           u4670 08A6                             u5390 21B4  
                           u2990 256A                             u5630 0E44  
                           u3871 1D98                             u3791 1CC8  
                           u3951 1A92                             u4591 2E3E  
                           u4911 0BBA                             u4831 0A8E  
                           u4671 08A2                             u5391 21B0  
                           u2991 2566                             u5631 0E40  
                           u5480 2A72                             u3880 1DBE  
                           u3960 1AAA                             u4920 0BD0  
                           u4840 0ACA                             u4760 09D8  
                           u4680 08BC                             u5640 0EAC  
                           u5481 2A6E                             u5457 29EC  
                           u3881 1DBA                             u3961 1AA6  
                           u4921 0BCC                             u4841 0AC6  
                           u4761 09D4                             u4681 08B8  
                           u5641 0EA8                             u3890 1E26  
                           u3970 1AC6                             u4930 0BE6  
                           u4850 0B10                             u4770 09F6  
                           u4690 08CE                             u5490 32C0  
                           u5650 0F1A                             u5467 2A1E  
                           u3891 1E22                             u3971 1AC2  
                           u4931 0BE2                             u4851 0B0C  
                           u4771 09F2                             u4691 08CA  
                           u5491 32BC                             u5651 0F16  
                           u3980 1AE0                             u4940 0BFC  
                           u4860 0B46                             u4780 0A16  
                           u5660 0F82                             u5477 2A58  
                           u3981 1ADC                             u4941 0BF8  
                           u4861 0B42                             u4781 0A12  
                           u5661 0F7E                             u3990 1AF8  
                           u4950 0C10                             u4870 0B56  
                           u4790 0A24                             u5670 0FF0  
                           u3991 1AF4                             u4951 0C0C  
                           u4871 0B52                             u4791 0A20  
                           u5671 0FEC                             u4960 0C2A  
                           u4880 0B82                             u5680 1058  
                           u4961 0C26                             u4881 0B7E  
                           u5681 1054                             u5817 0D3C  
                           u4970 0C64                             u4890 0B92  
                           u5907 249C                             u4971 0C60  
                           u4891 0B8E                             u5827 0ECE  
                           u4980 0C76                             u5917 24B0  
                           u4981 0C72                             u5837 0EEC  
                           u4990 0C86                             u5927 24C4  
                           u4991 0C82                             u5847 0FA4  
                           u5937 24DC                             u5857 0FC2  
                           u5947 24FA                             u5867 107A  
                           u5957 2518                             u5877 1098  
                           u5967 2536                             u5887 246E  
                           u5977 37BE                             u5897 2488  
                           u5987 3930                             _RSEN 007E29  
                           _TXIF 007CF4               ??_LCD_Write_Nibble 0004  
           MFRC522_ToCard2@irqEn 001B                             _data 0114  
                           _dbuf 006D             MFRC522_ToCard3@irqEn 001B  
                           _main 0CE8                             _prec 0064  
          MFRC522_AntiColl@unLen 0024                             _nout 0060  
                           pad@i 0018                             pad@p 0015  
                           fsr1h 000FE2                             fsr2h 000FDA  
                           indf1 000FE7                             indf2 000FDF  
                           fsr1l 000FE1                             pad@w 001A  
                           fsr2l 000FD9                             _xtoa 144C  
                           prodh 000FF4                             prodl 000FF3  
                           start 0000                 _MFRC522_AntiColl 2BDC  
                ___fldiv@new_exp 0020                      LCD_Goto@col 000A  
                    LCD_Goto@row 0007                     ___param_bank 000000  
         MFRC522_AntiColl2@unLen 0024                  ??_MFRC522_Halt2 0020  
                ??_MFRC522_Halt3 0020           MFRC522_AntiColl3@unLen 0024  
                ??_MFRC522_Reset 0006                            ??_pad 0017  
               __end_of_LCD_Goto 338C                    ___fltol@sign1 0009  
               _MFRC522_Set_Bit2 3AC2                 _MFRC522_Set_Bit3 3AAA  
               _MFRC522_Set_Bit4 3A92                  __end_of___fladd 0CE8  
                          ?_main 0001                            _ACKEN 007E2C  
                          _ACKDT 007E2D                  __end_of___fldiv 144C  
        ?_MFRC522_ReadCardSerial 0028                            STR_10 0815  
                __end_of___fltol 2458                  __end_of___lldiv 2D34  
                          ?_xtoa 001C               MFRC522_Halt2@unLen 0024  
             MFRC522_Halt3@unLen 0024                            _RCREG 000FAE  
                          _RCSTA 000FAB                     vfpfcnvrt@fmt 0041  
                          _UID_1 00B5                            _UID_2 00A1  
                          _UID_3 008D                     vfpfcnvrt@llu 0049  
                          _UID_4 0100                            _SPBRG 000FAF  
               _MFRC522_Request2 33F4                 _MFRC522_Request3 338C  
                          _TXREG 000FAD                            _TXSTA 000FAC  
                          _flags 0066                            _fputc 2546  
                __end_of_isalpha 388E                            _fputs 380E  
         MFRC522_AntiColl@serNum 0020                            pad@fp 0011  
                          _width 0062                            _putch 3BAE  
                          main@i 00EF                  __end_of_islower 38C6  
                __end_of_isupper 38FE                            tablat 000FF5  
              _MFRC522_Clear_Bit 3A78                            status 000FD8  
                __end_of_sprintf 3730                            xtoa@c 003D  
                          xtoa@d 001E                            xtoa@i 003B  
                          xtoa@n 0033                            xtoa@p 002F  
                          xtoa@w 0031                            xtoa@x 0026  
              _MFRC522_AntiColl2 2B28                _MFRC522_AntiColl3 2A74  
             ?_MFRC522_Clear_Bit 000A                  __end_of_toupper 380E  
             MFRC522_AntiColl2@i 0027               MFRC522_AntiColl3@i 0027  
                    ?_USART_Init 0038               ?_MFRC522_AntiColl2 0020  
             ?_MFRC522_AntiColl3 0020                _MFRC522_AntennaOn 3B3C  
                __initialization 3526                     __end_of_main 10B2  
             ?_MFRC522_AntennaOn 0001              ??_MFRC522_Clear_Bit 000B  
                   __end_of_xtoa 16F0          MFRC522_AntiColl2@serNum 0020  
               ??_MFRC522_IsCard 0028          MFRC522_AntiColl3@serNum 0020  
      MFRC522_ReadCardSerial@str 0028              ??_MFRC522_AntiColl2 0022  
            ??_MFRC522_AntiColl3 0022   __end_of_MFRC522_ReadCardSerial 3A0C  
               ??_MFRC522_ToCard 0014                           ??_main 00ED  
            ??_MFRC522_AntennaOn 000D                __end_of_LCD_Begin 2546  
                         ??_xtoa 0027                    __activetblptr 000002  
                      ??_LCD_Cmd 0005                  MFRC522_ToCard@i 001D  
                MFRC522_ToCard@n 001F            MFRC522_ToCard@backLen 0012  
              __end_of_LCD_Print 2A74               MFRC522_Rd@ucResult 0006  
                MFRC522_Wr@value 0001        __end_of_MFRC522_Clear_Bit 3A92  
          MFRC522_ToCard@_status 0019         ?_MFRC522_ReadCardSerial2 0028  
       ?_MFRC522_ReadCardSerial3 0028            MFRC522_ToCard@command 001C  
                         ?_fputc 0001                           ?_fputs 000A  
                         ?_putch 0001        __end_of_MFRC522_AntiColl2 2BDC  
      __end_of_MFRC522_AntiColl3 2B28            MFRC522_ToCard@sendLen 000F  
          MFRC522_ToCard@waitIRq 0018                           _SSPADD 000FC8  
                         _TRISC6 007CA6                           _TRISC7 007CA7  
                         _SSPBUF 000FC9                 __end_of___xxtofl 221E  
      __end_of_MFRC522_AntennaOn 3B4E           MFRC522_ToCard2@backLen 0012  
            MFRC522_CRC2@dataOut 0010           MFRC522_ToCard3@backLen 0012  
            MFRC522_CRC3@dataOut 0010               MFRC522_Wr2@address 0003  
                   vfprintf@cfmt 0058             __end_of_MFRC522_CRC2 2F16  
           __end_of_MFRC522_CRC3 2E76           MFRC522_ToCard2@_status 0019  
         MFRC522_ToCard2@command 001C               MFRC522_Wr3@address 0003  
                      ??___fladd 0030             __end_of_MFRC522_Halt 3686  
                      ??___fldiv 0017             __end_of_MFRC522_Init 2352  
         MFRC522_ToCard3@_status 0019           MFRC522_ToCard3@command 001C  
                      ??___fltol 0005               MFRC522_Wr4@address 0003  
        MFRC522_AntiColl@_status 0026                        ??___lldiv 0009  
         MFRC522_ToCard2@sendLen 000F           MFRC522_ToCard2@waitIRq 0018  
                         clear_0 355E                           clear_1 356E  
         MFRC522_ToCard3@sendLen 000F                           isa$std 000001  
                         pad@buf 0013           MFRC522_ToCard3@waitIRq 0018  
                         _strlen 3730                           fputc@c 0001  
                  USART_TxChar@i 0009                           fputs@c 000E  
                         fputs@i 000F                           fputs@s 000A  
                      ??_isalpha 0003               _MFRC522_Clear_Bit2 3A5E  
             _MFRC522_Clear_Bit3 3A44               _MFRC522_Clear_Bit4 3A2A  
                      ??_islower 0003                     __mediumconst 0000  
                         tblptrh 000FF7                        ??_isupper 0003  
                         tblptrl 000FF6                           tblptru 000FF8  
                         putch@c 0001                 __end_of_vfprintf 3526  
                      ??_sprintf 0060                           xtoa@fp 001C  
                      ??_toupper 0009              ?_MFRC522_Clear_Bit2 000A  
            ?_MFRC522_Clear_Bit3 000A              ?_MFRC522_Clear_Bit4 000A  
                   ___xxtofl@arg 000B                     ___xxtofl@exp 000A  
                   ___xxtofl@val 0001                       __accesstop 0060  
        __end_of__initialization 3574                        ?_LCD_Goto 0007  
                  ___rparam_used 000001           MFRC522_Request@TagType 0020  
                   ??_MFRC522_Rd 0001                       ___fltol@f1 0001  
                   ??_MFRC522_Wr 0002               _MFRC522_AntennaOn2 3B2A  
             _MFRC522_AntennaOn3 3B18               _MFRC522_AntennaOn4 3B06  
             _MFRC522_AntennaOff 3BA2          I2CLCD_Init@i2c_clk_freq 000E  
                  _backlight_val 00F4                   __pcstackCOMRAM 0001  
                   __pidataBANK0 3BB0                     __pidataBANK1 3AF2  
       MFRC522_AntiColl2@_status 0026                    ??_I2CLCD_Init 0012  
                  ??_I2CLCD_Stop 0001              ?_MFRC522_AntennaOn2 0001  
            ?_MFRC522_AntennaOn3 0001              ?_MFRC522_AntennaOn4 0001  
           ??_MFRC522_Clear_Bit2 000B             ??_MFRC522_Clear_Bit3 000B  
           ??_MFRC522_Clear_Bit4 000B         MFRC522_AntiColl3@_status 0026  
            ?_MFRC522_AntennaOff 0001                    __end_of_fputc 2610  
                  __end_of_fputs 3852       MFRC522_ReadCardSerial2@str 0028  
     MFRC522_ReadCardSerial3@str 0028                   LCD_Cmd@Command 0006  
                  __end_of_putch 3BB0                 MFRC522_Halt@buff 0020  
         MFRC522_Request@_status 0023                ??_MFRC522_IsCard2 0028  
              ??_MFRC522_IsCard3 0028                 MFRC522_Rd@ucAddr 0004  
         MFRC522_Request@reqMode 0022  __end_of_MFRC522_ReadCardSerial2 39EE  
__end_of_MFRC522_ReadCardSerial3 39D0                ??_MFRC522_ToCard2 0014  
              ??_MFRC522_ToCard3 0014         __end_of_MFRC522_AntiColl 2C90  
              ??_MFRC522_Set_Bit 000B               __end_of_MFRC522_Rd 29BE  
             __end_of_MFRC522_Wr 32B2                ??_MFRC522_Request 0022  
               MFRC522_Wr2@value 0001                 MFRC522_Wr3@value 0001  
                        ??_fputc 0005                          ??_fputs 000E  
               MFRC522_Wr4@value 0001             ??_MFRC522_AntennaOn2 000D  
           ??_MFRC522_AntennaOn3 000D             ??_MFRC522_AntennaOn4 000D  
           ??_MFRC522_AntennaOff 000D                          ??_putch 0001  
                     __pbssBANK0 0060                       __pbssBANK1 0100  
           MFRC522_Set_Bit2@addr 000C                 MFRC522_ToCard2@i 001D  
           MFRC522_Set_Bit3@addr 000C                 MFRC522_ToCard3@i 001D  
               MFRC522_ToCard2@n 001F                 MFRC522_ToCard3@n 001F  
           MFRC522_Set_Bit4@addr 000C             MFRC522_Set_Bit2@mask 000A  
           MFRC522_Set_Bit3@mask 000A             MFRC522_Set_Bit4@mask 000A  
                     ??_LCD_Goto 0008           MFRC522_ToCard@backData 0010  
       __end_of_MFRC522_Set_Bit2 3ADA         __end_of_MFRC522_Set_Bit3 3AC2  
       __end_of_MFRC522_Set_Bit4 3AAA         __end_of_MFRC522_Request2 345C  
       __end_of_MFRC522_Request3 33F4                MFRC522_CRC@dataIn 000D  
             MFRC522_Set_Bit@tmp 000B                MFRC522_CRC@length 000F  
               MFRC522_Wr@ucAddr 0004           MFRC522_ToCard@lastBits 001A  
                        ?_strlen 0001              __end_of_I2CLCD_Init 36DE  
                        _LCD_Cmd 377E              __end_of_I2CLCD_Stop 398A  
                      ?___xxtofl 0001           MFRC522_ToCard@sendData 000D  
                        _SSPCON1 000FC6                          _SSPCON2 000FC5  
                        _SSPSTAT 000FC7          MFRC522_ToCard2@backData 0010  
        MFRC522_ToCard3@backData 0010                     ??_USART_Init 003C  
                        __Hparam 0000                          __Lparam 0000  
        MFRC522_Request2@TagType 0020             MFRC522_Clear_Bit@tmp 000B  
            Expander_Write@value 0003             I2CLCD_Write@i2c_data 0002  
        MFRC522_Request3@TagType 0020                          ___fladd 0828  
                        ___fldiv 10B2                          ___fltol 2352  
                        ___lldiv 2C90                        ?_vfprintf 0052  
                   __psmallconst 0800            __end_of_MFRC522_Halt2 362E  
          __end_of_MFRC522_Halt3 35D6          MFRC522_ToCard2@lastBits 001A  
                        __pcinit 3526            __end_of_MFRC522_Reset 2DD6  
                        __ramtop 0800                          __ptext0 0CE8  
                        __ptext1 36DE                          __ptext2 34C4  
                        __ptext3 1E9A                          __ptext4 144C  
                        __ptext5 37CA                          __ptext6 388E  
                        __ptext7 2610                          __ptext8 380E  
                        __ptext9 2546          MFRC522_ToCard3@lastBits 001A  
        MFRC522_ToCard2@sendData 000D                   _Expander_Write 3A0C  
                 USART_Init@temp 003C          MFRC522_Request2@_status 0023  
                        _isalpha 3852                       ??___xxtofl 0005  
        MFRC522_Request3@_status 0023                          _islower 388E  
        MFRC522_ToCard3@sendData 000D                          _isupper 38C6  
                      _LCD_Begin 2458          MFRC522_Request2@reqMode 0022  
                   _MFRC522_CRC2 2E76                     _MFRC522_CRC3 2DD6  
             __end_of_USART_Init 3052          MFRC522_Request3@reqMode 0022  
                      _LCD_Print 29BE                          _sprintf 36DE  
                   _MFRC522_Halt 362E                     _MFRC522_Init 221E  
                        _toupper 37CA             end_of_initialization 3574  
                        fputc@fp 0003                    __Lmediumconst 0000  
                        fputs@fp 000C                  ___lldiv@divisor 0005  
                ___lldiv@counter 000D                __end_of_vfpfcnvrt 206A  
                      _RCSTAbits 000FAB                          postdec1 000FE5  
                        postdec2 000FDD                          postinc0 000FEE  
                        postinc1 000FE6                          postinc2 000FDE  
                    _I2CLCD_Init 3686                       ??_vfprintf 0058  
                    _I2CLCD_Stop 3962                LCD_Write_Nibble@n 0004  
                        strlen@a 0003                          strlen@s 0001  
         __end_of_Expander_Write 3A2A                    ?_I2CLCD_Start 0001  
                      _PORTDbits 000F83                    ?_I2CLCD_Write 0001  
                    ___fladd@grs 0037                    ___xxtofl@sign 0009  
                      _TRISAbits 000F92                        _TRISDbits 000F95  
                     ?_LCD_Begin 0001                MFRC522_Rd2@ucAddr 0004  
                    ___fldiv@grs 0022                      ___fldiv@rem 001B  
              MFRC522_Rd3@ucAddr 0004                       ?_LCD_Print 0005  
              MFRC522_Rd4@ucAddr 0004              USART_Init@baud_rate 0038  
                  ??_MFRC522_CRC 0012                    ??_MFRC522_Rd2 0001  
                  ??_MFRC522_Rd3 0001                    ??_MFRC522_Rd4 0001  
                  ??_MFRC522_Wr2 0002                    ??_MFRC522_Wr3 0002  
                  ??_MFRC522_Wr4 0002              _MFRC522_AntennaOff2 3B96  
            _MFRC522_AntennaOff3 3B8A              _MFRC522_AntennaOff4 3B7E  
                  ?_USART_TxChar 0005                  _MFRC522_IsCard2 3B5E  
                _MFRC522_IsCard3 3B4E                  _MFRC522_ToCard2 197E  
                _MFRC522_ToCard3 16F0                 _LCD_Write_Nibble 38FE  
                     LCD_Print@i 000A                  _MFRC522_Set_Bit 3ADA  
              MFRC522_Halt2@buff 0020          MFRC522_Request@backBits 0024  
              MFRC522_Halt3@buff 0020              MFRC522_ToCard@irqEn 001B  
                    vfpfcnvrt@ap 0043                      vfpfcnvrt@fp 003F  
                _MFRC522_Request 345C                   ??_I2CLCD_Start 0001  
                 ??_I2CLCD_Write 0001                  ?_Expander_Write 0001  
           ?_MFRC522_AntennaOff2 0001             ?_MFRC522_AntennaOff3 0001  
           ?_MFRC522_AntennaOff4 0001                    __pbitbssBANK0 0798  
                 __end_of_strlen 377E              start_initialization 3526  
              MFRC522_Halt@unLen 0024                ?_MFRC522_AntiColl 0020  
              MFRC522_Rd@address 0003                MFRC522_AntiColl@i 0027  
                    __end_of_pad 26D6               ??_MFRC522_AntiColl 0022  
         MFRC522_Clear_Bit2@addr 000C           MFRC522_Clear_Bit3@addr 000C  
         MFRC522_Clear_Bit4@addr 000C           MFRC522_Clear_Bit2@mask 000A  
         MFRC522_Clear_Bit3@mask 000A           MFRC522_Clear_Bit4@mask 000A  
                 ??_USART_TxChar 0007                ?_MFRC522_Set_Bit2 000A  
              ?_MFRC522_Set_Bit3 000A                ?_MFRC522_Set_Bit4 000A  
             MFRC522_CRC2@dataIn 000D               MFRC522_CRC3@dataIn 000D  
              ?_MFRC522_Request2 0020                ?_MFRC522_Request3 0020  
             ??_MFRC522_Set_Bit2 000B               ??_MFRC522_Set_Bit3 000B  
             ??_MFRC522_Set_Bit4 000B         ??_MFRC522_ReadCardSerial 002A  
                    vfprintf@fmt 0054               MFRC522_CRC2@length 000F  
            __end_of_MFRC522_CRC 2FB6              __end_of_MFRC522_Rd2 2904  
            __end_of_MFRC522_Rd3 284A              __end_of_MFRC522_Rd4 2790  
             MFRC522_CRC3@length 000F              __end_of_MFRC522_Wr2 321A  
            __end_of_MFRC522_Wr3 3182              __end_of_MFRC522_Wr4 30EA  
              MFRC522_Wr2@ucAddr 0004               ??_MFRC522_Request2 0022  
             ??_MFRC522_Request3 0022                MFRC522_Wr3@ucAddr 0004  
              MFRC522_Wr4@ucAddr 0004                      __pdataBANK0 00F4  
                    __pdataBANK1 0114            ??_MFRC522_AntennaOff2 000D  
          ??_MFRC522_AntennaOff3 000D            ??_MFRC522_AntennaOff4 000D  
                       ??_strlen 0003                        ___fladd@a 002C  
                      ___fladd@b 0028                         ?_LCD_Cmd 0001  
                      ___fldiv@a 0013                        ___fldiv@b 000F  
                  __pcstackBANK0 00E0                      ??_LCD_Begin 0007  
                    _data_buffer 00C9                      ??_LCD_Print 0007  
        __end_of_MFRC522_IsCard2 3B6E          __end_of_MFRC522_IsCard3 3B5E  
        __end_of_MFRC522_ToCard2 1C0C          __end_of_MFRC522_ToCard3 197E  
                      __pnvBANK0 00F2              MFRC522_Set_Bit2@tmp 000B  
            MFRC522_Set_Bit3@tmp 000B              MFRC522_Set_Bit4@tmp 000B  
        __end_of_MFRC522_Set_Bit 3AF2          _MFRC522_ReadCardSerial2 39D0  
        _MFRC522_ReadCardSerial3 39B2               MFRC522_CRC@dataOut 0010  
        __end_of_MFRC522_Request 34C4              MFRC522_Set_Bit@addr 000C  
              MFRC522_Wr@address 0003              MFRC522_Set_Bit@mask 000A  
                       ?___fladd 0028                         ?___fldiv 000F  
                       ?___fltol 0001                         ?___lldiv 0001  
               LCD_Print@LCD_Str 0005                      __smallconst 0800  
                       ?_isalpha 0001                         ?_islower 0001  
                       ?_isupper 0001                         ?_sprintf 005A  
                       ?_toupper 0007             __end_of_I2CLCD_Start 39B2  
                       _LCD_Goto 3322                      _MFRC522_CRC 2F16  
           __end_of_I2CLCD_Write 3962                      _MFRC522_Rd2 284A  
                    _MFRC522_Rd3 2790                      _MFRC522_Rd4 26D6  
                       _LATAbits 000F89                      _MFRC522_Wr2 3182  
                    _MFRC522_Wr3 30EA                      _MFRC522_Wr4 3052  
                       _LATDbits 000F8C                         _PIE1bits 000F9D  
         MFRC522_IsCard2@TagType 0026                     ?_I2CLCD_Init 000E  
                   ?_I2CLCD_Stop 0001           MFRC522_IsCard3@TagType 0026  
                      _vfpfcnvrt 1E9A                        main@i_321 00F1  
                      main@i_317 00F0             __end_of_USART_TxChar 3322  
                 _MFRC522_IsCard 3B6E                   _MFRC522_ToCard 1C0C  
                     vfpfcnvrt@c 0051         __end_of_LCD_Write_Nibble 3936  
                      copy_data0 353A                         _i2c_addr 00F2  
               ?_MFRC522_IsCard2 0026                 ?_MFRC522_IsCard3 0026  
      ??_MFRC522_ReadCardSerial2 002A        ??_MFRC522_ReadCardSerial3 002A  
                       _TagType1 00DF                         _TagType2 00DE  
                       _TagType3 00DD                         _TagType4 0068  
               ?_MFRC522_ToCard2 000D                 ?_MFRC522_ToCard3 000D  
          MFRC522_Clear_Bit2@tmp 000B            MFRC522_Clear_Bit3@tmp 000B  
          MFRC522_Clear_Bit4@tmp 000B                 ?_MFRC522_Set_Bit 000A  
                       __Hrparam 0000            MFRC522_Clear_Bit@addr 000C  
               ?_MFRC522_Request 0020            MFRC522_Clear_Bit@mask 000A  
                     vfprintf@ap 0056                         __Lrparam 0000  
                     vfprintf@fp 0052                 ??_Expander_Write 0003  
                     ?_vfpfcnvrt 003F     MFRC522_AntiColl2@serNumCheck 0023  
         __end_of_MFRC522_IsCard 3B7E                       sprintf@fmt 005C  
       MFRC522_Request2@backBits 0024                         ___xxtofl 206A  
         __end_of_MFRC522_ToCard 1E9A           _MFRC522_ReadCardSerial 39EE  
       MFRC522_Request3@backBits 0024                         __ptext10 3BAE  
                       __ptext11 38C6                         __ptext20 39B2  
                       __ptext12 3852                         __ptext21 2A74  
                       __ptext13 32B2                         __ptext30 3B6E  
                       __ptext22 39D0                         __ptext14 3730  
                       __ptext31 345C                         __ptext23 2B28  
                       __ptext15 2FB6                         __ptext40 3A2A  
                       __ptext32 221E                         __ptext24 39EE  
                       __ptext16 206A                         __ptext41 3052  
                       __ptext33 2D34                         __ptext25 2BDC  
                       __ptext17 2352                         __ptext50 3A44  
                       __ptext42 26D6                         __ptext34 3B06  
                       __ptext26 3B4E                         __ptext18 10B2  
                       __ptext51 30EA                         __ptext43 3B8A  
                       __ptext35 3A92                         __ptext27 338C  
                       __ptext19 0828                         __ptext60 362E  
                       __ptext52 2790                         __ptext44 3B96  
                       __ptext36 3B18                         __ptext28 3B5E  
                       __ptext61 1C0C                         __ptext53 35D6  
                       __ptext45 3BA2                         __ptext37 3B2A  
                       __ptext29 33F4                         __ptext70 377E  
                       __ptext62 2F16                         __ptext54 197E  
                       __ptext46 357E                         __ptext38 3B3C  
                       __ptext71 38FE                         __ptext63 3ADA  
                       __ptext55 2E76                         __ptext47 16F0  
                       __ptext39 3B7E                         __ptext72 3A0C  
                       __ptext64 3A78                         __ptext56 3AC2  
                       __ptext48 2DD6                         __ptext73 3936  
                       __ptext65 321A                         __ptext57 3A5E  
                       __ptext49 3AAA                         __ptext74 3962  
                       __ptext66 2904                         __ptext58 3182  
                       __ptext75 398A                         __ptext67 29BE  
                       __ptext59 284A                         __ptext76 3686  
                       __ptext68 3322                         __ptext77 2C90  
                       __ptext69 2458      MFRC522_AntiColl@serNumCheck 0023  
                     _MFRC522_Rd 2904                       _MFRC522_Wr 321A  
                       isa$xinst 000000                         _vfprintf 34C4  
                       _status_1 006C                         _status_2 006B  
                       _status_3 006A                         _status_4 0069  
                  _MFRC522_Halt2 35D6                    _MFRC522_Halt3 357E  
                  _MFRC522_Reset 2D34     MFRC522_AntiColl3@serNumCheck 0023  
                ?_MFRC522_IsCard 0026                       _INTCONbits 000FF2  
                ?_MFRC522_ToCard 000D                         isalpha@c 0001  
                USART_TxChar@out 0005               LCD_Begin@_i2c_addr 0009  
                      sprintf@ap 00E0                         islower@c 0001  
               ___lldiv@dividend 0001                         isupper@c 0001  
          MFRC522_IsCard@TagType 0026      __end_of_MFRC522_AntennaOff2 3BA2  
    __end_of_MFRC522_AntennaOff3 3B96      __end_of_MFRC522_AntennaOff4 3B8A  
     __end_of_MFRC522_Clear_Bit2 3A78       __end_of_MFRC522_Clear_Bit3 3A5E  
     __end_of_MFRC522_Clear_Bit4 3A44                   ?_MFRC522_Halt2 0001  
                 ?_MFRC522_Halt3 0001                      ??_vfpfcnvrt 0045  
                 ?_MFRC522_Reset 0001                     _I2CLCD_Start 398A  
                   _I2CLCD_Write 3936                         sprintf@f 00E2  
                       sprintf@s 005A                 ___lldiv@quotient 0009  
                       toupper@c 0007       __end_of_MFRC522_AntennaOn2 3B3C  
     __end_of_MFRC522_AntennaOn3 3B2A       __end_of_MFRC522_AntennaOn4 3B18  
     __end_of_MFRC522_AntennaOff 3BAE                    ?_MFRC522_CRC2 000D  
                  ?_MFRC522_CRC3 000D                    ?_MFRC522_Halt 0001  
                  ?_MFRC522_Init 0001                    ___fladd@signs 0034  
                   ?_MFRC522_CRC 000D                     ___fladd@aexp 0035  
                   ___fladd@bexp 0036                     ?_MFRC522_Rd2 0001  
                   ?_MFRC522_Rd3 0001                     ?_MFRC522_Rd4 0001  
                   ?_MFRC522_Wr2 0001                     ?_MFRC522_Wr3 0001  
                   ?_MFRC522_Wr4 0001                     _USART_TxChar 32B2  
                    ?_MFRC522_Rd 0001                      ?_MFRC522_Wr 0001  
             MFRC522_Rd2@address 0003                       _USART_Init 2FB6  
             MFRC522_Rd3@address 0003  
